 png

 Timestamp is 6495d2b5 (Fri Jun 23 12:13:25 2023)

 Preferred load address is 0000000140000000

 Start         Length     Name                   Class
 0001:00000000 0004d0c0H .text$mn                CODE
 0001:0004d0c0 00000040H .text$mn$00             CODE
 0001:0004d100 000007edH .text$x                 CODE
 0002:00000000 00000290H .idata$5                DATA
 0002:00000290 00000038H .00cfg                  DATA
 0002:000002c8 00000008H .CRT$XCA                DATA
 0002:000002d0 00000008H .CRT$XCAA               DATA
 0002:000002d8 00000008H .CRT$XCZ                DATA
 0002:000002e0 00000008H .CRT$XIA                DATA
 0002:000002e8 00000008H .CRT$XIAA               DATA
 0002:000002f0 00000008H .CRT$XIAC               DATA
 0002:000002f8 00000020H .CRT$XIC                DATA
 0002:00000318 00000008H .CRT$XIZ                DATA
 0002:00000320 00000008H .CRT$XPA                DATA
 0002:00000328 00000010H .CRT$XPX                DATA
 0002:00000338 00000008H .CRT$XPXA               DATA
 0002:00000340 00000008H .CRT$XPZ                DATA
 0002:00000348 00000008H .CRT$XTA                DATA
 0002:00000350 00000010H .CRT$XTZ                DATA
 0002:00000358 00000000H .gehcont$y              DATA
 0002:00000358 00000000H .gfids$y                DATA
 0002:00000360 00013d20H .rdata                  DATA
 0002:00014080 00000000H .rdata$CastGuardVftablesA DATA
 0002:00014080 00000000H .rdata$CastGuardVftablesC DATA
 0002:00014080 0000016cH .rdata$r                DATA
 0002:000141ec 000000ecH .rdata$voltmd           DATA
 0002:000142d8 00000370H .rdata$zzzdbg           DATA
 0002:00014648 00000008H .rtc$IAA                DATA
 0002:00014650 00000008H .rtc$IZZ                DATA
 0002:00014658 00000008H .rtc$TAA                DATA
 0002:00014660 00000008H .rtc$TZZ                DATA
 0002:00014668 000015a0H .xdata                  DATA
 0002:00015c08 00000084H .xdata$x                DATA
 0002:00015c8c 00000000H .edata                  DATA
 0002:00015c8c 00000014H .idata$2                DATA
 0002:00015ca0 00000018H .idata$3                DATA
 0002:00015cb8 00000290H .idata$4                DATA
 0002:00015f48 000005dcH .idata$6                DATA
 0003:00000000 00000ba0H .data                   DATA
 0003:00000ba0 00000050H .data$r                 DATA
 0003:00000bf0 00000020H .data$rs                DATA
 0003:00000c10 00001868H .bss                    DATA
 0004:00000000 0000387cH .pdata                  DATA
 0005:00000000 0000015cH _RDATA                  DATA

  Address         Publics by Value              Rva+Base               Lib:Object

 0000:00000000       __AbsoluteZero             0000000000000000     <absolute>
 0000:00000000       ___safe_se_handler_count   0000000000000000     <absolute>
 0000:00000000       ___safe_se_handler_table   0000000000000000     <absolute>
 0000:00000000       __arm64x_extra_rfe_table   0000000000000000     <absolute>
 0000:00000000       __arm64x_extra_rfe_table_size 0000000000000000     <absolute>
 0000:00000000       __arm64x_native_entrypoint 0000000000000000     <absolute>
 0000:00000000       __arm64x_redirection_metadata 0000000000000000     <absolute>
 0000:00000000       __arm64x_redirection_metadata_count 0000000000000000     <absolute>
 0000:00000000       __dynamic_value_reloc_table 0000000000000000     <absolute>
 0000:00000000       __enclave_config           0000000000000000     <absolute>
 0000:00000000       __guard_check_icall_a64n_fptr 0000000000000000     <absolute>
 0000:00000000       __guard_eh_cont_count      0000000000000000     <absolute>
 0000:00000000       __guard_eh_cont_table      0000000000000000     <absolute>
 0000:00000000       __guard_fids_count         0000000000000000     <absolute>
 0000:00000000       __guard_fids_table         0000000000000000     <absolute>
 0000:00000000       __guard_iat_count          0000000000000000     <absolute>
 0000:00000000       __guard_iat_table          0000000000000000     <absolute>
 0000:00000000       __guard_longjmp_count      0000000000000000     <absolute>
 0000:00000000       __guard_longjmp_table      0000000000000000     <absolute>
 0000:00000000       __hybrid_auxiliary_iat     0000000000000000     <absolute>
 0000:00000000       __hybrid_auxiliary_iat_copy 0000000000000000     <absolute>
 0000:00000000       __hybrid_code_map          0000000000000000     <absolute>
 0000:00000000       __hybrid_code_map_count    0000000000000000     <absolute>
 0000:00000000       __x64_code_ranges_to_entry_points 0000000000000000     <absolute>
 0000:00000000       __x64_code_ranges_to_entry_points_count 0000000000000000     <absolute>
 0000:00000100       __guard_flags              0000000000000100     <absolute>
 0000:00000000       __ImageBase                0000000140000000     <linker-defined>
 0001:00000000       ?read_file@@YA?AUFile_Result@@PEAD@Z 0000000140001000 f   png.obj
 0001:00000110       ?free_file@@YAXUFile_Result@@@Z 0000000140001110 f   png.obj
 0001:00000140       ?write_file@@YA_NPEADPEAXI@Z 0000000140001140 f   png.obj
 0001:00000200       ?EndianSwap@@YAXPEAI@Z     0000000140001200 f   png.obj
 0001:00000260       ?ConsumeDataSize@@YAPEAXPEAPEAEI@Z 0000000140001260 f   png.obj
 0001:000002a0       ?ConsumeDataSizeLong@@YAPEAXPEAPEAE_K@Z 00000001400012a0 f   png.obj
 0001:000002e0       ?PushDataSize@@YAIPEAPEAEPEAEI@Z 00000001400012e0 f   png.obj
 0001:00000350       ?calc_line_length@@YAIPEADI@Z 0000000140001350 f   png.obj
 0001:000003b0       ?copy_line_to_buffer@@YAXPEAD0PEAI@Z 00000001400013b0 f   png.obj
 0001:00000420       ?ReadDataBits@@YAIPEAPEAUDeflate_Block_Data@@E@Z 0000000140001420 f   png.obj
 0001:000005b0       ?PeakBitsInReverseForHuffman@@YAIPEAUDeflate_Block_Data@@I@Z 00000001400015b0 f   png.obj
 0001:00000720       ?BuildHuffmanCodesFromCodeLengthCounts@@YAXPEAEIPEAI@Z 0000000140001720 f   png.obj
 0001:00000950       ?DecodeHuffmanSymbol@@YA_NPEAPEAUDeflate_Block_Data@@PEAIPEAEI1@Z 0000000140001950 f   png.obj
 0001:00000a10       ?deflate_decompress@@YAIPEAUDeflate_Block_Data@@PEAE@Z 0000000140001a10 f   png.obj
 0001:00001350       ?deflate_decompress@@YAIPEAEI0@Z 0000000140002350 f   png.obj
 0001:000013e0       ?PaethPredictor@@YAEEEE@Z  00000001400023e0 f   png.obj
 0001:000014b0       ?defilter_pass@@YAXPEAEIII@Z 00000001400024b0 f   png.obj
 0001:000016c0       ?LoadPNG@@YA?AUImage@@UFile_Result@@@Z 00000001400026c0 f   png.obj
 0001:00002180       ?dataReadTest@@YAXXZ       0000000140003180 f   png.obj
 0001:000022f0       main                       00000001400032f0 f   png.obj
 0001:000023b0       __local_stdio_printf_options 00000001400033b0 f i png.obj
 0001:000023c0       _vfprintf_l                00000001400033c0 f i png.obj
 0001:00002410       printf                     0000000140003410 f i png.obj
 0001:00002470       __GSHandlerCheck           0000000140003470 f   LIBCMTD:gshandler.obj
 0001:000024b0       __GSHandlerCheckCommon     00000001400034b0 f   LIBCMTD:gshandler.obj
 0001:000025c0       __security_check_cookie    00000001400035c0 f   LIBCMTD:amdsecgs.obj
 0001:00002890       ?configure_argv@__scrt_narrow_argv_policy@@SAHXZ 0000000140003890 f i LIBCMTD:exe_main.obj
 0001:000028b0       ?initialize_environment@__scrt_narrow_environment_policy@@SAHXZ 00000001400038b0 f i LIBCMTD:exe_main.obj
 0001:00002900       ?set_app_type@__scrt_main_policy@@SAXXZ 0000000140003900 f i LIBCMTD:exe_main.obj
 0001:00002920       ?set_commode@__scrt_file_policy@@SAXXZ 0000000140003920 f i LIBCMTD:exe_main.obj
 0001:00002940       ?set_fmode@__scrt_file_policy@@SAXXZ 0000000140003940 f i LIBCMTD:exe_main.obj
 0001:00002960       mainCRTStartup             0000000140003960 f   LIBCMTD:exe_main.obj
 0001:00002980       __raise_securityfailure    0000000140003980 f   LIBCMTD:gs_report.obj
 0001:000029c0       __report_gsfailure         00000001400039c0 f   LIBCMTD:gs_report.obj
 0001:00002aa0       __report_rangecheckfailure 0000000140003aa0 f   LIBCMTD:gs_report.obj
 0001:00002ac0       __report_securityfailure   0000000140003ac0 f   LIBCMTD:gs_report.obj
 0001:00002e20       NtCurrentTeb               0000000140003e20 f i LIBCMTD:utility.obj
 0001:00002e30       __scrt_acquire_startup_lock 0000000140003e30 f   LIBCMTD:utility.obj
 0001:00002ea0       __scrt_initialize_crt      0000000140003ea0 f   LIBCMTD:utility.obj
 0001:00002ef0       __scrt_initialize_onexit_tables 0000000140003ef0 f   LIBCMTD:utility.obj
 0001:00003000       __scrt_is_nonwritable_in_current_image 0000000140004000 f   LIBCMTD:utility.obj
 0001:00003090       __scrt_release_startup_lock 0000000140004090 f   LIBCMTD:utility.obj
 0001:000030c0       __scrt_uninitialize_crt    00000001400040c0 f   LIBCMTD:utility.obj
 0001:00003100       _onexit                    0000000140004100 f   LIBCMTD:utility.obj
 0001:00003180       atexit                     0000000140004180 f   LIBCMTD:utility.obj
 0001:00003280       __security_init_cookie     0000000140004280 f   LIBCMTD:gs_support.obj
 0001:00003300       ?get_current_state_index@__crt_state_management@@YA_KAEBV__crt_scoped_get_last_error_reset@@@Z 0000000140004300 f   libucrtd:fclose.obj
 0001:00003300       _matherr                   0000000140004300 f   LIBCMTD:matherr.obj
 0001:00003310       _get_startup_argv_mode     0000000140004310 f   LIBCMTD:argv_mode.obj
 0001:00003320       ?get_current_state_index@__crt_state_management@@YA_KXZ 0000000140004320 f   libucrtd:matherr.obj
 0001:00003320       ?get_invalid_value@__crt_hmodule_traits@@SAPEAUHINSTANCE__@@XZ 0000000140004320 f   libucrtd:exit.obj
 0001:00003320       __scrt_exe_initialize_mta  0000000140004320 f   LIBCMTD:utility_desktop.obj
 0001:00003320       __scrt_initialize_winrt    0000000140004320 f   LIBCMTD:utility_desktop.obj
 0001:00003320       __scrt_stub_for_initialize_mta 0000000140004320 f   LIBCMTD:utility_desktop.obj
 0001:00003320       _get_startup_commit_mode   0000000140004320 f   LIBCMTD:commit_mode.obj
 0001:00003320       _get_startup_new_mode      0000000140004320 f   LIBCMTD:new_mode.obj
 0001:00003320       _get_startup_thread_locale_mode 0000000140004320 f   LIBCMTD:thread_locale.obj
 0001:00003330       _get_startup_file_mode     0000000140004330 f   LIBCMTD:file_mode.obj
 0001:00003340       ?__scrt_initialize_type_info@@YAXXZ 0000000140004340 f   LIBCMTD:tncleanup.obj
 0001:00003360       _should_initialize_environment 0000000140004360 f   LIBCMTD:env_mode.obj
 0001:00003370       _initialize_denormal_control 0000000140004370 f   LIBCMTD:denormal_control.obj
 0001:00003370       _initialize_invalid_parameter_handler 0000000140004370 f   LIBCMTD:invalid_parameter_handler.obj
 0001:00003380       __local_stdio_scanf_options 0000000140004380 f i LIBCMTD:default_local_stdio_options.obj
 0001:00003390       __scrt_initialize_default_local_stdio_options 0000000140004390 f   LIBCMTD:default_local_stdio_options.obj
 0001:000033e0       __scrt_is_user_matherr_present 00000001400043e0 f   LIBCMTD:matherr_detection.obj
 0001:00003410       __scrt_get_dyn_tls_init_callback 0000000140004410 f   LIBCMTD:dyn_tls_init.obj
 0001:00003420       __scrt_get_dyn_tls_dtor_callback 0000000140004420 f   LIBCMTD:dyn_tls_dtor.obj
 0001:00003430       __crt_debugger_hook        0000000140004430 f   LIBCMTD:utility_desktop.obj
 0001:00003440       __scrt_fastfail            0000000140004440 f   LIBCMTD:utility_desktop.obj
 0001:000035e0       __scrt_initialize_mta      00000001400045e0 f   LIBCMTD:utility_desktop.obj
 0001:000035f0       __scrt_is_managed_app      00000001400045f0 f   LIBCMTD:utility_desktop.obj
 0001:000036a0       __scrt_set_unhandled_exception_filter 00000001400046a0 f   LIBCMTD:utility_desktop.obj
 0001:000036c0       __scrt_unhandled_exception_filter 00000001400046c0 f   LIBCMTD:utility_desktop.obj
 0001:00003760       _RTC_Initialize            0000000140004760 f   LIBCMTD:initsect.obj
 0001:000037b0       _RTC_Terminate             00000001400047b0 f   LIBCMTD:initsect.obj
 0001:00003800       ??1?$__crt_simd_cleanup_guard@$0A@@@QEAA@XZ 0000000140004800 f i libucrtd:strnlen.obj
 0001:00003800       ??1scoped_global_state_reset@__crt_state_management@@QEAA@XZ 0000000140004800 f i libucrtd:onexit.obj
 0001:00003800       _guard_check_icall_nop     0000000140004800 f i LIBCMTD:guard_support.obj
 0001:00003810       ReadNoFence64              0000000140004810 f i LIBCMTD:guard_support.obj
 0001:00003830       ReadPointerNoFence         0000000140004830 f i LIBCMTD:guard_support.obj
 0001:00003850       _guard_icall_checks_enforced 0000000140004850 f i LIBCMTD:guard_support.obj
 0001:00003890       __isa_available_init       0000000140004890 f   LIBCMTD:cpu_disp.obj
 0001:00003c40       __scrt_is_ucrt_dll_in_use  0000000140004c40 f   LIBCMTD:ucrt_detection.obj
 0001:00003c80       memset_repstos             0000000140004c80 f   libvcruntimed:memset.obj
 0001:00003ca0       memset                     0000000140004ca0 f   libvcruntimed:memset.obj
 0001:00004030       __C_specific_handler       0000000140005030 f   libvcruntimed:riscchandler.obj
 0001:000044a0       __vcrt_initialize          00000001400054a0 f   libvcruntimed:initialization.obj
 0001:000044e0       __vcrt_uninitialize        00000001400054e0 f   libvcruntimed:initialization.obj
 0001:00004500       ??$?RD@__crt_internal_free_policy@@QEBAXQEBD@Z 0000000140005500 f i libvcruntimed:std_type_info.obj
 0001:00004500       ??$?RE@__crt_internal_free_policy@@QEBAXQEBE@Z 0000000140005500 f i libucrtd:argv_parsing.obj
 0001:00004500       ??$?RP6AXXZ@__crt_internal_free_policy@@QEBAXQEBQ6AXXZ@Z 0000000140005500 f i libucrtd:onexit.obj
 0001:00004500       ??$?RPEAD@__crt_internal_free_policy@@QEBAXQEBQEAD@Z 0000000140005500 f i libucrtd:argv_parsing.obj
 0001:00004500       ??$?RPEAU__crt_stdio_stream_data@@@__crt_internal_free_policy@@QEBAXQEBQEAU__crt_stdio_stream_data@@@Z 0000000140005500 f i libucrtd:_file.obj
 0001:00004500       ??$?RPEA_W@__crt_internal_free_policy@@QEBAXQEBQEA_W@Z 0000000140005500 f i libucrtd:argv_parsing.obj
 0001:00004500       ??$?RU__acrt_ptd@@@__crt_internal_free_policy@@QEBAXQEBU__acrt_ptd@@@Z 0000000140005500 f i libucrtd:per_thread_data.obj
 0001:00004500       ??$?RU__crt_lowio_handle_data@@@__crt_internal_free_policy@@QEBAXQEBU__crt_lowio_handle_data@@@Z 0000000140005500 f i libucrtd:osfinfo.obj
 0001:00004500       ??$?RU__crt_multibyte_data@@@__crt_internal_free_policy@@QEBAXQEBU__crt_multibyte_data@@@Z 0000000140005500 f i libucrtd:wsetlocale.obj
 0001:00004500       ??$?RU__crt_stdio_stream_data@@@__crt_internal_free_policy@@QEBAXQEBU__crt_stdio_stream_data@@@Z 0000000140005500 f i libucrtd:stream.obj
 0001:00004500       ??$?RU__vcrt_ptd@@@__crt_internal_free_policy@@QEBAXQEBU__vcrt_ptd@@@Z 0000000140005500 f i libvcruntimed:per_thread_data.obj
 0001:00004530       ??0?$__crt_scoped_stack_ptr@_W@@QEAA@U?$__crt_scoped_stack_ptr_tag@_W@@@Z 0000000140005530 f i libucrtd:getstringtypea.obj
 0001:00004530       ??0?$__crt_scoped_stack_ptr_tag@_W@@QEAA@QEA_W@Z 0000000140005530 f i libucrtd:getstringtypea.obj
 0001:00004530       ??0?$__crt_unique_handle_t@U__crt_findfile_traits@@@@QEAA@QEAX@Z 0000000140005530 f i libucrtd:argv_wildcards.obj
 0001:00004530       ??0?$__crt_unique_handle_t@U__crt_hmodule_traits@@@@QEAA@QEAUHINSTANCE__@@@Z 0000000140005530 f i libucrtd:exit.obj
 0001:00004530       ??0?$__crt_unique_heap_ptr@DU__crt_internal_free_policy@@@@QEAA@QEAD@Z 0000000140005530 f i libvcruntimed:std_type_info.obj
 0001:00004530       ??0?$__crt_unique_heap_ptr@DU__crt_public_free_policy@@@@QEAA@QEAD@Z 0000000140005530 f i libvcruntimed:std_exception.obj
 0001:00004530       ??0?$__crt_unique_heap_ptr@EU__crt_internal_free_policy@@@@QEAA@QEAE@Z 0000000140005530 f i libucrtd:argv_parsing.obj
 0001:00004530       ??0?$__crt_unique_heap_ptr@P6AXXZU__crt_internal_free_policy@@@@QEAA@QEAP6AXXZ@Z 0000000140005530 f i libucrtd:onexit.obj
 0001:00004530       ??0?$__crt_unique_heap_ptr@PEADU__crt_internal_free_policy@@@@QEAA@QEAPEAD@Z 0000000140005530 f i libucrtd:argv_parsing.obj
 0001:00004530       ??0?$__crt_unique_heap_ptr@PEAU__crt_stdio_stream_data@@U__crt_internal_free_policy@@@@QEAA@QEAPEAU__crt_stdio_stream_data@@@Z 0000000140005530 f i libucrtd:_file.obj
 0001:00004530       ??0?$__crt_unique_heap_ptr@PEA_WU__crt_internal_free_policy@@@@QEAA@QEAPEA_W@Z 0000000140005530 f i libucrtd:argv_parsing.obj
 0001:00004530       ??0?$__crt_unique_heap_ptr@U__acrt_ptd@@U__crt_internal_free_policy@@@@QEAA@QEAU__acrt_ptd@@@Z 0000000140005530 f i libucrtd:per_thread_data.obj
 0001:00004530       ??0?$__crt_unique_heap_ptr@U__crt_lowio_handle_data@@U__crt_internal_free_policy@@@@QEAA@QEAU__crt_lowio_handle_data@@@Z 0000000140005530 f i libucrtd:osfinfo.obj
 0001:00004530       ??0?$__crt_unique_heap_ptr@U__crt_multibyte_data@@U__crt_internal_free_policy@@@@QEAA@QEAU__crt_multibyte_data@@@Z 0000000140005530 f i libucrtd:wsetlocale.obj
 0001:00004530       ??0?$__crt_unique_heap_ptr@U__crt_stdio_stream_data@@U__crt_internal_free_policy@@@@QEAA@QEAU__crt_stdio_stream_data@@@Z 0000000140005530 f i libucrtd:stream.obj
 0001:00004530       ??0?$__crt_unique_heap_ptr@U__vcrt_ptd@@U__crt_internal_free_policy@@@@QEAA@QEAU__vcrt_ptd@@@Z 0000000140005530 f i libvcruntimed:per_thread_data.obj
 0001:00004530       ??0?$string_output_adapter@D@__crt_stdio_output@@QEAA@QEAU?$string_output_adapter_context@D@1@@Z 0000000140005530 f i libucrtd:output.obj
 0001:00004530       ??0?$string_output_adapter@_W@__crt_stdio_output@@QEAA@QEAU?$string_output_adapter_context@_W@1@@Z 0000000140005530 f i libucrtd:output.obj
 0001:00004530       ??0__crt_stdio_stream@@QEAA@QEAU__crt_stdio_stream_data@@@Z 0000000140005530 f i libucrtd:closeall.obj
 0001:00004530       ??0__crt_stdio_stream@@QEAA@QEAU_iobuf@@@Z 0000000140005530 f i libucrtd:_file.obj
 0001:00004550       ??1?$__crt_unique_heap_ptr@DU__crt_internal_free_policy@@@@QEAA@XZ 0000000140005550 f i libvcruntimed:std_type_info.obj
 0001:00004550       ??1?$__crt_unique_heap_ptr@EU__crt_internal_free_policy@@@@QEAA@XZ 0000000140005550 f i libucrtd:argv_parsing.obj
 0001:00004550       ??1?$__crt_unique_heap_ptr@P6AXXZU__crt_internal_free_policy@@@@QEAA@XZ 0000000140005550 f i libucrtd:onexit.obj
 0001:00004550       ??1?$__crt_unique_heap_ptr@PEADU__crt_internal_free_policy@@@@QEAA@XZ 0000000140005550 f i libucrtd:argv_parsing.obj
 0001:00004550       ??1?$__crt_unique_heap_ptr@PEAU__crt_stdio_stream_data@@U__crt_internal_free_policy@@@@QEAA@XZ 0000000140005550 f i libucrtd:_file.obj
 0001:00004550       ??1?$__crt_unique_heap_ptr@PEA_WU__crt_internal_free_policy@@@@QEAA@XZ 0000000140005550 f i libucrtd:argv_parsing.obj
 0001:00004550       ??1?$__crt_unique_heap_ptr@U__acrt_ptd@@U__crt_internal_free_policy@@@@QEAA@XZ 0000000140005550 f i libucrtd:per_thread_data.obj
 0001:00004550       ??1?$__crt_unique_heap_ptr@U__crt_lowio_handle_data@@U__crt_internal_free_policy@@@@QEAA@XZ 0000000140005550 f i libucrtd:osfinfo.obj
 0001:00004550       ??1?$__crt_unique_heap_ptr@U__crt_multibyte_data@@U__crt_internal_free_policy@@@@QEAA@XZ 0000000140005550 f i libucrtd:wsetlocale.obj
 0001:00004550       ??1?$__crt_unique_heap_ptr@U__crt_stdio_stream_data@@U__crt_internal_free_policy@@@@QEAA@XZ 0000000140005550 f i libucrtd:stream.obj
 0001:00004550       ??1?$__crt_unique_heap_ptr@U__vcrt_ptd@@U__crt_internal_free_policy@@@@QEAA@XZ 0000000140005550 f i libvcruntimed:per_thread_data.obj
 0001:00004570       ??B?$__crt_unique_heap_ptr@DU__crt_internal_free_policy@@@@QEBA_NXZ 0000000140005570 f i libvcruntimed:std_type_info.obj
 0001:00004570       ??B?$__crt_unique_heap_ptr@DU__crt_public_free_policy@@@@QEBA_NXZ 0000000140005570 f i libvcruntimed:std_exception.obj
 0001:00004570       ??B?$__crt_unique_heap_ptr@EU__crt_internal_free_policy@@@@QEBA_NXZ 0000000140005570 f i libucrtd:argv_parsing.obj
 0001:00004570       ??B?$__crt_unique_heap_ptr@PEADU__crt_internal_free_policy@@@@QEBA_NXZ 0000000140005570 f i libucrtd:environment_initialization.obj
 0001:00004570       ??B?$__crt_unique_heap_ptr@U__acrt_ptd@@U__crt_internal_free_policy@@@@QEBA_NXZ 0000000140005570 f i libucrtd:per_thread_data.obj
 0001:00004570       ??B?$__crt_unique_heap_ptr@U__crt_lowio_handle_data@@U__crt_internal_free_policy@@@@QEBA_NXZ 0000000140005570 f i libucrtd:osfinfo.obj
 0001:00004570       ??B?$__crt_unique_heap_ptr@U__crt_multibyte_data@@U__crt_internal_free_policy@@@@QEBA_NXZ 0000000140005570 f i libucrtd:wsetlocale.obj
 0001:00004570       ??B?$__crt_unique_heap_ptr@U__vcrt_ptd@@U__crt_internal_free_policy@@@@QEBA_NXZ 0000000140005570 f i libvcruntimed:per_thread_data.obj
 0001:00004590       ?__crt_interlocked_read_64@@YA_JPED_J@Z 0000000140005590 f i libvcruntimed:std_type_info.obj
 0001:000045b0       ??C__crt_stdio_stream@@QEBAPEAU__crt_stdio_stream_data@@XZ 00000001400055b0 f i libucrtd:_file.obj
 0001:000045b0       ?get@?$__crt_scoped_stack_ptr@_W@@QEBAPEA_WXZ 00000001400055b0 f i libucrtd:getstringtypea.obj
 0001:000045b0       ?get@?$__crt_unique_handle_t@U__crt_findfile_traits@@@@QEBAPEAXXZ 00000001400055b0 f i libucrtd:argv_wildcards.obj
 0001:000045b0       ?get@?$__crt_unique_handle_t@U__crt_hmodule_traits@@@@QEBAPEAUHINSTANCE__@@XZ 00000001400055b0 f i libucrtd:exit.obj
 0001:000045b0       ?get@?$__crt_unique_heap_ptr@DU__crt_internal_free_policy@@@@QEBAPEADXZ 00000001400055b0 f i libvcruntimed:std_type_info.obj
 0001:000045b0       ?get@?$__crt_unique_heap_ptr@DU__crt_public_free_policy@@@@QEBAPEADXZ 00000001400055b0 f i libvcruntimed:std_exception.obj
 0001:000045b0       ?get@?$__crt_unique_heap_ptr@EU__crt_internal_free_policy@@@@QEBAPEAEXZ 00000001400055b0 f i libucrtd:argv_parsing.obj
 0001:000045b0       ?get@?$__crt_unique_heap_ptr@PEADU__crt_internal_free_policy@@@@QEBAPEAPEADXZ 00000001400055b0 f i libucrtd:argv_parsing.obj
 0001:000045b0       ?get@?$__crt_unique_heap_ptr@U__acrt_ptd@@U__crt_internal_free_policy@@@@QEBAPEAU__acrt_ptd@@XZ 00000001400055b0 f i libucrtd:per_thread_data.obj
 0001:000045b0       ?get@?$__crt_unique_heap_ptr@U__crt_lowio_handle_data@@U__crt_internal_free_policy@@@@QEBAPEAU__crt_lowio_handle_data@@XZ 00000001400055b0 f i libucrtd:osfinfo.obj
 0001:000045b0       ?get@?$__crt_unique_heap_ptr@U__crt_multibyte_data@@U__crt_internal_free_policy@@@@QEBAPEAU__crt_multibyte_data@@XZ 00000001400055b0 f i libucrtd:wsetlocale.obj
 0001:000045b0       ?get@?$__crt_unique_heap_ptr@U__vcrt_ptd@@U__crt_internal_free_policy@@@@QEBAPEAU__vcrt_ptd@@XZ 00000001400055b0 f i libvcruntimed:per_thread_data.obj
 0001:000045b0       ?public_stream@__crt_stdio_stream@@QEBAPEAU_iobuf@@XZ 00000001400055b0 f i libucrtd:fclose.obj
 0001:000045b0       ?save_state@?$c_string_character_source@D@__crt_strtox@@QEBAPEBDXZ 00000001400055b0 f i libucrtd:output.obj
 0001:000045b0       ?save_state@?$c_string_character_source@_W@__crt_strtox@@QEBAPEB_WXZ 00000001400055b0 f i libucrtd:output.obj
 0001:000045c0       ??B?$__crt_scoped_stack_ptr@_W@@QEBA_NXZ 00000001400055c0 f i libucrtd:lcmapstringa.obj
 0001:000045c0       ?is_valid@?$__crt_unique_heap_ptr@DU__crt_internal_free_policy@@@@QEBA_NXZ 00000001400055c0 f i libvcruntimed:std_type_info.obj
 0001:000045c0       ?is_valid@?$__crt_unique_heap_ptr@DU__crt_public_free_policy@@@@QEBA_NXZ 00000001400055c0 f i libvcruntimed:std_exception.obj
 0001:000045c0       ?is_valid@?$__crt_unique_heap_ptr@EU__crt_internal_free_policy@@@@QEBA_NXZ 00000001400055c0 f i libucrtd:argv_parsing.obj
 0001:000045c0       ?is_valid@?$__crt_unique_heap_ptr@PEADU__crt_internal_free_policy@@@@QEBA_NXZ 00000001400055c0 f i libucrtd:environment_initialization.obj
 0001:000045c0       ?is_valid@?$__crt_unique_heap_ptr@U__acrt_ptd@@U__crt_internal_free_policy@@@@QEBA_NXZ 00000001400055c0 f i libucrtd:per_thread_data.obj
 0001:000045c0       ?is_valid@?$__crt_unique_heap_ptr@U__crt_lowio_handle_data@@U__crt_internal_free_policy@@@@QEBA_NXZ 00000001400055c0 f i libucrtd:osfinfo.obj
 0001:000045c0       ?is_valid@?$__crt_unique_heap_ptr@U__crt_multibyte_data@@U__crt_internal_free_policy@@@@QEBA_NXZ 00000001400055c0 f i libucrtd:wsetlocale.obj
 0001:000045c0       ?is_valid@?$__crt_unique_heap_ptr@U__vcrt_ptd@@U__crt_internal_free_policy@@@@QEBA_NXZ 00000001400055c0 f i libvcruntimed:per_thread_data.obj
 0001:000045c0       ?valid@__crt_stdio_stream@@QEBA_NXZ 00000001400055c0 f i libucrtd:fclose.obj
 0001:000045f0       ?release@?$__crt_unique_heap_ptr@DU__crt_internal_free_policy@@@@QEAAXXZ 00000001400055f0 f i libvcruntimed:std_type_info.obj
 0001:000045f0       ?release@?$__crt_unique_heap_ptr@EU__crt_internal_free_policy@@@@QEAAXXZ 00000001400055f0 f i libucrtd:argv_parsing.obj
 0001:000045f0       ?release@?$__crt_unique_heap_ptr@P6AXXZU__crt_internal_free_policy@@@@QEAAXXZ 00000001400055f0 f i libucrtd:onexit.obj
 0001:000045f0       ?release@?$__crt_unique_heap_ptr@PEADU__crt_internal_free_policy@@@@QEAAXXZ 00000001400055f0 f i libucrtd:argv_parsing.obj
 0001:000045f0       ?release@?$__crt_unique_heap_ptr@PEAU__crt_stdio_stream_data@@U__crt_internal_free_policy@@@@QEAAXXZ 00000001400055f0 f i libucrtd:_file.obj
 0001:000045f0       ?release@?$__crt_unique_heap_ptr@PEA_WU__crt_internal_free_policy@@@@QEAAXXZ 00000001400055f0 f i libucrtd:argv_parsing.obj
 0001:000045f0       ?release@?$__crt_unique_heap_ptr@U__acrt_ptd@@U__crt_internal_free_policy@@@@QEAAXXZ 00000001400055f0 f i libucrtd:per_thread_data.obj
 0001:000045f0       ?release@?$__crt_unique_heap_ptr@U__crt_lowio_handle_data@@U__crt_internal_free_policy@@@@QEAAXXZ 00000001400055f0 f i libucrtd:osfinfo.obj
 0001:000045f0       ?release@?$__crt_unique_heap_ptr@U__crt_multibyte_data@@U__crt_internal_free_policy@@@@QEAAXXZ 00000001400055f0 f i libucrtd:wsetlocale.obj
 0001:000045f0       ?release@?$__crt_unique_heap_ptr@U__crt_stdio_stream_data@@U__crt_internal_free_policy@@@@QEAAXXZ 00000001400055f0 f i libucrtd:stream.obj
 0001:000045f0       ?release@?$__crt_unique_heap_ptr@U__vcrt_ptd@@U__crt_internal_free_policy@@@@QEAAXXZ 00000001400055f0 f i libvcruntimed:per_thread_data.obj
 0001:00004620       __std_type_info_compare    0000000140005620 f   libvcruntimed:std_type_info.obj
 0001:00004660       __DestructExceptionObject  0000000140005660 f   libvcruntimed:ehhelpers.obj
 0001:00004760       ?_CallMemberFunction0@@YAXQEAX0@Z 0000000140005760 f i libvcruntimed:ehhelpers.obj
 0001:00004830       _IsExceptionObjectToBeDestroyed 0000000140005830 f   libvcruntimed:ehhelpers.obj
 0001:00004880       __AdjustPointer            0000000140005880 f   libvcruntimed:ehhelpers.obj
 0001:00004900       __FrameUnwindFilter        0000000140005900 f   libvcruntimed:ehhelpers.obj
 0001:000049b0       __current_exception        00000001400059b0 f   libvcruntimed:ehhelpers.obj
 0001:000049d0       __current_exception_context 00000001400059d0 f   libvcruntimed:ehhelpers.obj
 0001:00004a00       _NLG_Notify                0000000140005a00 f   libvcruntimed:notify.obj
 0001:00004a20       __NLG_Dispatch2            0000000140005a20 f   libvcruntimed:notify.obj
 0001:00004a30       __NLG_Return2              0000000140005a30 f   libvcruntimed:notify.obj
 0001:00004a40       __except_validate_context_record 0000000140005a40 f   libvcruntimed:jbcxrval.obj
 0001:00004ae0       ?detach@?$__crt_unique_heap_ptr@DU__crt_internal_free_policy@@@@QEAAPEADXZ 0000000140005ae0 f i libucrtd:environment_initialization.obj
 0001:00004ae0       ?detach@?$__crt_unique_heap_ptr@DU__crt_public_free_policy@@@@QEAAPEADXZ 0000000140005ae0 f i libvcruntimed:std_exception.obj
 0001:00004ae0       ?detach@?$__crt_unique_heap_ptr@EU__crt_internal_free_policy@@@@QEAAPEAEXZ 0000000140005ae0 f i libucrtd:argv_parsing.obj
 0001:00004ae0       ?detach@?$__crt_unique_heap_ptr@P6AXXZU__crt_internal_free_policy@@@@QEAAPEAP6AXXZXZ 0000000140005ae0 f i libucrtd:onexit.obj
 0001:00004ae0       ?detach@?$__crt_unique_heap_ptr@PEADU__crt_internal_free_policy@@@@QEAAPEAPEADXZ 0000000140005ae0 f i libucrtd:argv_parsing.obj
 0001:00004ae0       ?detach@?$__crt_unique_heap_ptr@PEAU__crt_stdio_stream_data@@U__crt_internal_free_policy@@@@QEAAPEAPEAU__crt_stdio_stream_data@@XZ 0000000140005ae0 f i libucrtd:_file.obj
 0001:00004ae0       ?detach@?$__crt_unique_heap_ptr@PEA_WU__crt_internal_free_policy@@@@QEAAPEAPEA_WXZ 0000000140005ae0 f i libucrtd:argv_parsing.obj
 0001:00004ae0       ?detach@?$__crt_unique_heap_ptr@U__acrt_ptd@@U__crt_internal_free_policy@@@@QEAAPEAU__acrt_ptd@@XZ 0000000140005ae0 f i libucrtd:per_thread_data.obj
 0001:00004ae0       ?detach@?$__crt_unique_heap_ptr@U__crt_lowio_handle_data@@U__crt_internal_free_policy@@@@QEAAPEAU__crt_lowio_handle_data@@XZ 0000000140005ae0 f i libucrtd:osfinfo.obj
 0001:00004ae0       ?detach@?$__crt_unique_heap_ptr@U__crt_multibyte_data@@U__crt_internal_free_policy@@@@QEAAPEAU__crt_multibyte_data@@XZ 0000000140005ae0 f i libucrtd:wsetlocale.obj
 0001:00004ae0       ?detach@?$__crt_unique_heap_ptr@U__crt_stdio_stream_data@@U__crt_internal_free_policy@@@@QEAAPEAU__crt_stdio_stream_data@@XZ 0000000140005ae0 f i libucrtd:stream.obj
 0001:00004ae0       ?detach@?$__crt_unique_heap_ptr@U__vcrt_ptd@@U__crt_internal_free_policy@@@@QEAAPEAU__vcrt_ptd@@XZ 0000000140005ae0 f i libvcruntimed:per_thread_data.obj
 0001:00004b50       __vcrt_freefls             0000000140005b50 f   libvcruntimed:per_thread_data.obj
 0001:00004b90       __vcrt_getptd              0000000140005b90 f   libvcruntimed:per_thread_data.obj
 0001:00004bc0       __vcrt_getptd_noexit       0000000140005bc0 f   libvcruntimed:per_thread_data.obj
 0001:00004d60       __vcrt_initialize_ptd      0000000140005d60 f   libvcruntimed:per_thread_data.obj
 0001:00004db0       __vcrt_uninitialize_ptd    0000000140005db0 f   libvcruntimed:per_thread_data.obj
 0001:00004de0       __vcrt_initialize_locks    0000000140005de0 f   libvcruntimed:locks.obj
 0001:00004e50       __vcrt_uninitialize_locks  0000000140005e50 f   libvcruntimed:locks.obj
 0001:00004eb0       _vsprintf_s_l              0000000140005eb0 f i libvcruntimed:undname.obj
 0001:00004f20       sprintf_s                  0000000140005f20 f i libvcruntimed:undname.obj
 0001:00004f80       ??$__crt_interlocked_exchange_pointer@UHINSTANCE__@@PEAU1@@@YAPEAUHINSTANCE__@@PEDSEAU0@QEAU0@@Z 0000000140005f80 f i libvcruntimed:winapi_downlevel.obj
 0001:00004f80       ??$__crt_interlocked_exchange_pointer@UHINSTANCE__@@PEAX@@YAPEAUHINSTANCE__@@PEDSEAU0@QEAX@Z 0000000140005f80 f i libvcruntimed:winapi_downlevel.obj
 0001:00004f80       ??$__crt_interlocked_exchange_pointer@XPEAX@@YAPEAXPEDSEAXQEAX@Z 0000000140005f80 f i libvcruntimed:winapi_downlevel.obj
 0001:00004fa0       ??$__crt_interlocked_read_pointer@UHINSTANCE__@@@@YAPEAUHINSTANCE__@@PEDSEAU0@@Z 0000000140005fa0 f i libvcruntimed:winapi_downlevel.obj
 0001:00004fa0       ??$__crt_interlocked_read_pointer@X@@YAPEAXPEDSEAX@Z 0000000140005fa0 f i libvcruntimed:winapi_downlevel.obj
 0001:00004fc0       ?get_invalid_value@__crt_findfile_traits@@SAPEAXXZ 0000000140005fc0 f   libucrtd:argv_wildcards.obj
 0001:000054b0       __vcrt_FlsAlloc            00000001400064b0 f   libvcruntimed:winapi_downlevel.obj
 0001:00005500       __vcrt_FlsFree             0000000140006500 f   libvcruntimed:winapi_downlevel.obj
 0001:00005550       __vcrt_FlsGetValue         0000000140006550 f   libvcruntimed:winapi_downlevel.obj
 0001:000055a0       __vcrt_FlsSetValue         00000001400065a0 f   libvcruntimed:winapi_downlevel.obj
 0001:00005600       __vcrt_InitializeCriticalSectionEx 0000000140006600 f   libvcruntimed:winapi_downlevel.obj
 0001:00005680       memcpy_repmovs             0000000140006680 f   libvcruntimed:memcpy.obj
 0001:000056a0       memcpy                     00000001400066a0 f   libvcruntimed:memcpy.obj
 0001:000056a0       memmove                    00000001400066a0 f   libvcruntimed:memcpy.obj
 0001:00005d20       ??$?0AEAViterator@TryBlockMap@__FrameHandler3@@AEAV012@$0A@@?$pair@Viterator@TryBlockMap@__FrameHandler3@@V123@@std@@QEAA@AEAViterator@TryBlockMap@__FrameHandler3@@0@Z 0000000140006d20 f i libvcruntimed:risctrnsctrl.obj
 0001:00005e50       ??$_CallSETranslator@V__FrameHandler3@@@@YAHPEAUEHExceptionRecord@@PEA_KPEAU_CONTEXT@@PEAU_xDISPATCHER_CONTEXT@@PEBU_s_FuncInfo@@K1H@Z 0000000140006e50 f i libvcruntimed:risctrnsctrl.obj
 0001:00005ee0       ??$forward@AEAViterator@TryBlockMap@__FrameHandler3@@@std@@YAAEAViterator@TryBlockMap@__FrameHandler3@@AEAV123@@Z 0000000140006ee0 f i libvcruntimed:risctrnsctrl.obj
 0001:00005ee0       ?dangerous_get_state_array@?$dual_state_global@H@__crt_state_management@@QEAAPEAHXZ 0000000140006ee0 f i libucrtd:txtmode.obj
 0001:00005ee0       ?dangerous_get_state_array@?$dual_state_global@P6AXPEB_W00I_K@Z@__crt_state_management@@QEAAPEAP6AXPEB_W00I_K@ZXZ 0000000140006ee0 f i libucrtd:invalid_parameter.obj
 0001:00005ee0       ?dangerous_get_state_array@?$dual_state_global@PEAE@__crt_state_management@@QEAAPEAPEAEXZ 0000000140006ee0 f i libucrtd:mbctype.obj
 0001:00005ee0       ?dangerous_get_state_array@?$dual_state_global@PEAU__crt_locale_data@@@__crt_state_management@@QEAAPEAPEAU__crt_locale_data@@XZ 0000000140006ee0 f i libucrtd:per_thread_data.obj
 0001:00005ee0       ?dangerous_get_state_array@?$dual_state_global@PEAU__crt_multibyte_data@@@__crt_state_management@@QEAAPEAPEAU__crt_multibyte_data@@XZ 0000000140006ee0 f i libucrtd:mbctype.obj
 0001:00005ee0       ?debug_info@?$__crt_win32_buffer@DU__crt_win32_buffer_internal_dynamic_resizing@@@@QEBAAEBV__crt_win32_buffer_empty_debug_info@@XZ 0000000140006ee0 f i libucrtd:argv_wildcards.obj
 0001:00005ee0       ?debug_info@?$__crt_win32_buffer@DU__crt_win32_buffer_no_resizing@@@@QEBAAEBV__crt_win32_buffer_empty_debug_info@@XZ 0000000140006ee0 f i libucrtd:getmodulefilenamea.obj
 0001:00005ee0       ?debug_info@?$__crt_win32_buffer@_WU__crt_win32_buffer_internal_dynamic_resizing@@@@QEBAAEBV__crt_win32_buffer_empty_debug_info@@XZ 0000000140006ee0 f i libucrtd:argv_wildcards.obj
 0001:00005ee0       ?get_address_of@?$__crt_unique_handle_t@U__crt_hmodule_traits@@@@QEAAPEAPEAUHINSTANCE__@@XZ 0000000140006ee0 f i libucrtd:exit.obj
 0001:00005ee0       ?get_address_of@?$__crt_unique_heap_ptr@PEADU__crt_internal_free_policy@@@@QEAAPEAPEAPEADXZ 0000000140006ee0 f i libucrtd:argv_parsing.obj
 0001:00005ef0       ??0iterator@HandlerMap@__FrameHandler3@@QEAA@AEAV12@I@Z 0000000140006ef0 f i libvcruntimed:frame.obj
 0001:00005ef0       ??0iterator@TryBlockMap@__FrameHandler3@@QEAA@AEAV12@I@Z 0000000140006ef0 f i libvcruntimed:risctrnsctrl.obj
 0001:00005f20       ?CatchTryBlock@__FrameHandler3@@SAPEBU_s_TryBlockMapEntry@@PEBU_s_FuncInfo@@H@Z 0000000140006f20 f   libvcruntimed:risctrnsctrl.obj
 0001:00005fb0       ?ExecutionInCatch@__FrameHandler3@@SA_NPEAU_xDISPATCHER_CONTEXT@@PEBU_s_FuncInfo@@@Z 0000000140006fb0 f   libvcruntimed:risctrnsctrl.obj
 0001:00006000       ?FrameUnwindToEmptyState@__FrameHandler3@@SAXPEA_KPEAU_xDISPATCHER_CONTEXT@@PEBU_s_FuncInfo@@@Z 0000000140007000 f   libvcruntimed:risctrnsctrl.obj
 0001:000060a0       ?GetEstablisherFrame@__FrameHandler3@@SAPEA_KPEA_KPEAU_xDISPATCHER_CONTEXT@@PEBU_s_FuncInfo@@0@Z 00000001400070a0 f   libvcruntimed:risctrnsctrl.obj
 0001:00006210       ?GetRangeOfTrysToCheck@__FrameHandler3@@SA?AU?$pair@Viterator@TryBlockMap@__FrameHandler3@@V123@@std@@AEAVTryBlockMap@1@HPEAU_xDISPATCHER_CONTEXT@@PEBU_s_FuncInfo@@H@Z 0000000140007210 f   libvcruntimed:risctrnsctrl.obj
 0001:00006450       ?UnwindNestedFrames@__FrameHandler3@@SAXPEA_KPEAUEHExceptionRecord@@PEAU_CONTEXT@@0PEAXPEBU_s_FuncInfo@@HHPEBU_s_HandlerType@@PEAU_xDISPATCHER_CONTEXT@@E@Z 0000000140007450 f   libvcruntimed:risctrnsctrl.obj
 0001:000065c0       _CreateFrameInfo           00000001400075c0 f   libvcruntimed:risctrnsctrl.obj
 0001:00006630       _FindAndUnlinkFrame        0000000140007630 f   libvcruntimed:risctrnsctrl.obj
 0001:000066b0       _GetImageBase              00000001400076b0 f   libvcruntimed:risctrnsctrl.obj
 0001:000066d0       _GetThrowImageBase         00000001400076d0 f   libvcruntimed:risctrnsctrl.obj
 0001:000066f0       _SetImageBase              00000001400076f0 f   libvcruntimed:risctrnsctrl.obj
 0001:00006710       _SetThrowImageBase         0000000140007710 f   libvcruntimed:risctrnsctrl.obj
 0001:00006730       __CxxFrameHandler3         0000000140007730 f   libvcruntimed:risctrnsctrl.obj
 0001:00006810       ?GetCurrentState@__FrameHandler3@@SAHPEA_KPEAU_xDISPATCHER_CONTEXT@@PEBU_s_FuncInfo@@@Z 0000000140007810 f   libvcruntimed:ehstate.obj
 0001:00006870       ?GetUnwindTryBlock@__FrameHandler3@@SAHPEA_KPEAU_xDISPATCHER_CONTEXT@@PEBU_s_FuncInfo@@@Z 0000000140007870 f   libvcruntimed:ehstate.obj
 0001:000068c0       ?SetState@__FrameHandler3@@SAXPEA_KPEBU_s_FuncInfo@@H@Z 00000001400078c0 f   libvcruntimed:ehstate.obj
 0001:000068f0       ?SetUnwindTryBlock@__FrameHandler3@@SAXPEA_KPEAU_xDISPATCHER_CONTEXT@@PEBU_s_FuncInfo@@H@Z 00000001400078f0 f   libvcruntimed:ehstate.obj
 0001:00006960       ?StateFromControlPc@__FrameHandler3@@SAHPEBU_s_FuncInfo@@PEAU_xDISPATCHER_CONTEXT@@@Z 0000000140007960 f   libvcruntimed:ehstate.obj
 0001:000069a0       ?StateFromIp@__FrameHandler3@@SAHPEBU_s_FuncInfo@@PEAU_xDISPATCHER_CONTEXT@@_K@Z 00000001400079a0 f   libvcruntimed:ehstate.obj
 0001:00006a90       ?__RVAtoRealOffset@@YA_KPEAU_xDISPATCHER_CONTEXT@@H@Z 0000000140007a90 f i libvcruntimed:ehstate.obj
 0001:00007c60       ??$TypeMatchHelper@V__FrameHandler3@@@@YAHPEBU_s_HandlerType@@PEBU_s_CatchableType@@PEBU_s_ThrowInfo@@@Z 0000000140008c60 f i libvcruntimed:frame.obj
 0001:00007e60       ??$__InternalCxxFrameHandler@V__FrameHandler3@@@@YA?AW4_EXCEPTION_DISPOSITION@@PEAUEHExceptionRecord@@PEA_KPEAU_CONTEXT@@PEAU_xDISPATCHER_CONTEXT@@PEBU_s_FuncInfo@@H1E@Z 0000000140008e60 f i libvcruntimed:frame.obj
 0001:000082d0       ??$__InternalCxxFrameHandlerWrapper@V__FrameHandler3@@@@YA?AW4_EXCEPTION_DISPOSITION@@PEAUEHExceptionRecord@@PEA_KPEAU_CONTEXT@@PEAU_xDISPATCHER_CONTEXT@@PEBU_s_FuncInfo@@H1E@Z 00000001400092d0 f i libvcruntimed:frame.obj
 0001:00008340       ??0HandlerMap@__FrameHandler3@@QEAA@PEBU_s_TryBlockMapEntry@@_KI@Z 0000000140009340 f i libvcruntimed:frame.obj
 0001:00008390       ??0TryBlockMap@__FrameHandler3@@QEAA@PEBU_s_FuncInfo@@_K@Z 0000000140009390 f i libvcruntimed:frame.obj
 0001:000083c0       ??0bad_exception@std@@QEAA@AEBV01@@Z 00000001400093c0 f i libvcruntimed:frame.obj
 0001:00008400       ??0bad_exception@std@@QEAA@XZ 0000000140009400 f i libvcruntimed:frame.obj
 0001:00008440       ??0exception@std@@QEAA@AEBV01@@Z 0000000140009440 f i libvcruntimed:frame.obj
 0001:000084a0       ??0exception@std@@QEAA@QEBDH@Z 00000001400094a0 f i libvcruntimed:frame.obj
 0001:000084f0       ??1bad_exception@std@@UEAA@XZ 00000001400094f0 f i libvcruntimed:frame.obj
 0001:00008510       ??1exception@std@@UEAA@XZ  0000000140009510 f i libvcruntimed:frame.obj
 0001:00008540       ??8iterator@HandlerMap@__FrameHandler3@@QEBA_NAEBV012@@Z 0000000140009540 f i libvcruntimed:frame.obj
 0001:00008580       ??8type_info@@QEBA_NAEBV0@@Z 0000000140009580 f i libvcruntimed:frame.obj
 0001:00008600       ??9iterator@HandlerMap@__FrameHandler3@@QEBA_NAEBV012@@Z 0000000140009600 f i libvcruntimed:frame.obj
 0001:00008640       ??Diterator@HandlerMap@__FrameHandler3@@QEAA?BU_s_HandlerType@@XZ 0000000140009640 f i libvcruntimed:frame.obj
 0001:00008680       ??Diterator@TryBlockMap@__FrameHandler3@@QEAA?BU_s_TryBlockMapEntry@@XZ 0000000140009680 f i libvcruntimed:frame.obj
 0001:000086d0       ??Eiterator@HandlerMap@__FrameHandler3@@QEAAAEAV012@XZ 00000001400096d0 f i libvcruntimed:frame.obj
 0001:000086d0       ??Eiterator@TryBlockMap@__FrameHandler3@@QEAAAEAV012@XZ 00000001400096d0 f i libvcruntimed:frame.obj
 0001:000086f0       ??Miterator@TryBlockMap@__FrameHandler3@@QEBA_NAEBV012@@Z 00000001400096f0 f i libvcruntimed:frame.obj
 0001:00008730       ??_Ebad_exception@std@@UEAAPEAXI@Z 0000000140009730 f i libvcruntimed:frame.obj
 0001:00008730       ??_Gbad_exception@std@@UEAAPEAXI@Z 0000000140009730 f i libvcruntimed:frame.obj
 0001:00008770       ??_Eexception@std@@UEAAPEAXI@Z 0000000140009770 f i libvcruntimed:frame.obj
 0001:00008770       ??_Gexception@std@@UEAAPEAXI@Z 0000000140009770 f i libvcruntimed:frame.obj
 0001:000087b0       ?BuildCatchObject@__FrameHandler3@@SAXPEAUEHExceptionRecord@@PEAXPEBU_s_HandlerType@@PEBU_s_CatchableType@@@Z 00000001400097b0 f   libvcruntimed:frame.obj
 0001:000087f0       ?CxxCallCatchBlock@__FrameHandler3@@SAPEAXPEAU_EXCEPTION_RECORD@@@Z 00000001400097f0 f   libvcruntimed:frame.obj
 0001:00008b50       ?FrameUnwindToState@__FrameHandler3@@SAXPEA_KPEAU_xDISPATCHER_CONTEXT@@PEBU_s_FuncInfo@@H@Z 0000000140009b50 f   libvcruntimed:frame.obj
 0001:00008da0       ?GetHandlerSearchState@__FrameHandler3@@SAHPEA_KPEAU_xDISPATCHER_CONTEXT@@PEBU_s_FuncInfo@@@Z 0000000140009da0 f i libvcruntimed:frame.obj
 0001:00008e50       ?GetMaxState@__FrameHandler3@@SAHPEAU_xDISPATCHER_CONTEXT@@PEBU_s_FuncInfo@@@Z 0000000140009e50 f i libvcruntimed:frame.obj
 0001:00009050       ?TypeMatch@__FrameHandler3@@SAHPEBU_s_HandlerType@@PEBU_s_CatchableType@@PEBU_s_ThrowInfo@@@Z 000000014000a050 f   libvcruntimed:frame.obj
 0001:00009050       __TypeMatch                000000014000a050 f   libvcruntimed:frame.obj
 0001:00009080       ?_CallMemberFunction1@@YAXQEAX00@Z 000000014000a080 f i libvcruntimed:frame.obj
 0001:000090c0       ?_CallMemberFunction2@@YAXQEAX00H@Z 000000014000a0c0 f i libvcruntimed:frame.obj
 0001:00009150       ?begin@HandlerMap@__FrameHandler3@@QEAA?AViterator@12@XZ 000000014000a150 f i libvcruntimed:frame.obj
 0001:00009180       ?end@HandlerMap@__FrameHandler3@@QEAA?AViterator@12@XZ 000000014000a180 f i libvcruntimed:frame.obj
 0001:000091b0       ?getESTypes@__FrameHandler3@@SAPEBU_s_ESTypeList@@PEBU_s_FuncInfo@@@Z 000000014000a1b0 f i libvcruntimed:frame.obj
 0001:000091f0       ?getLastEntry@HandlerMap@__FrameHandler3@@QEAAPEBU_s_HandlerType@@XZ 000000014000a1f0 f i libvcruntimed:frame.obj
 0001:00009210       ?getMagicNum@__FrameHandler3@@SAIPEBU_s_FuncInfo@@@Z 000000014000a210 f i libvcruntimed:frame.obj
 0001:00009230       ?getNumTryBlocks@TryBlockMap@__FrameHandler3@@QEAAIXZ 000000014000a230 f i libvcruntimed:frame.obj
 0001:00009250       ?isEHs@__FrameHandler3@@SA_NPEBU_s_FuncInfo@@@Z 000000014000a250 f i libvcruntimed:frame.obj
 0001:00009290       ?isNoExcept@__FrameHandler3@@SA_NPEBU_s_FuncInfo@@@Z 000000014000a290 f i libvcruntimed:frame.obj
 0001:000092d0       ?what@exception@std@@UEBAPEBDXZ 000000014000a2d0 f i libvcruntimed:frame.obj
 0001:00009310       __vcrt_EncodePointer       000000014000a310 f i libvcruntimed:frame.obj
 0001:00009340       _CallSettingFrame          000000014000a340 f   libvcruntimed:handlers.obj
 0001:00009390       _CallSettingFrame_LookupContinuationIndex 000000014000a390 f   libvcruntimed:handlers.obj
 0001:000093c0       _CallSettingFrame_NotifyContinuationAddr 000000014000a3c0 f   libvcruntimed:handlers.obj
 0001:000093f0       _CallSettingFrameEncoded   000000014000a3f0 f   libvcruntimed:handlers.obj
 0001:00009440       ??$?RD@__crt_public_free_policy@@QEBAXQEBD@Z 000000014000a440 f i libvcruntimed:std_exception.obj
 0001:00009460       ??1?$__crt_unique_heap_ptr@DU__crt_public_free_policy@@@@QEAA@XZ 000000014000a460 f i libvcruntimed:std_exception.obj
 0001:00009480       ?release@?$__crt_unique_heap_ptr@DU__crt_public_free_policy@@@@QEAAXXZ 000000014000a480 f i libvcruntimed:std_exception.obj
 0001:000094b0       __std_exception_copy       000000014000a4b0 f   libvcruntimed:std_exception.obj
 0001:000095f0       __std_exception_destroy    000000014000a5f0 f   libvcruntimed:std_exception.obj
 0001:00009630       _CxxThrowException         000000014000a630 f   libvcruntimed:throw.obj
 0001:00009760       __acrt_initialize_stdio    000000014000a760 f   libucrtd:_file.obj
 0001:00009950       __acrt_iob_func            000000014000a950 f   libucrtd:_file.obj
 0001:00009970       __acrt_uninitialize_stdio  000000014000a970 f   libucrtd:_file.obj
 0001:00009a00       _lock_file                 000000014000aa00 f   libucrtd:_file.obj
 0001:00009a40       _unlock_file               000000014000aa40 f   libucrtd:_file.obj
 0001:00009a80       ??$__crt_interlocked_read@H@@YAHPEDH@Z 000000014000aa80 f i libucrtd:setmode.obj
 0001:00009a80       ??$__crt_interlocked_read@J@@YAJPEDJ@Z 000000014000aa80 f i libucrtd:fclose.obj
 0001:00009aa0       ??0?$cached@H@__crt_cached_ptd_host@@QEAA@XZ 000000014000aaa0 f i libucrtd:fclose.obj
 0001:00009aa0       ??0?$cached@K@__crt_cached_ptd_host@@QEAA@XZ 000000014000aaa0 f i libucrtd:fclose.obj
 0001:00009ac0       ??0__crt_cached_ptd_host@@QEAA@QEAU__crt_locale_pointers@@@Z 000000014000aac0 f i libucrtd:fclose.obj
 0001:00009b80       ??0__crt_scoped_get_last_error_reset@@QEAA@XZ 000000014000ab80 f i libucrtd:fclose.obj
 0001:00009ba0       ??1__crt_cached_ptd_host@@QEAA@XZ 000000014000aba0 f i libucrtd:fclose.obj
 0001:00009c50       ??1__crt_scoped_get_last_error_reset@@QEAA@XZ 000000014000ac50 f i libucrtd:fclose.obj
 0001:00009c70       ?__crt_interlocked_read_32@@YAHPEDH@Z 000000014000ac70 f i libucrtd:fclose.obj
 0001:00009fa0       ?check_synchronize_global_state_index@__crt_cached_ptd_host@@AEAA_KAEBV__crt_scoped_get_last_error_reset@@@Z 000000014000afa0 f i libucrtd:fclose.obj
 0001:00009fe0       ?check_synchronize_per_thread_data@__crt_cached_ptd_host@@AEAAPEAU__acrt_ptd@@XZ 000000014000afe0 f i libucrtd:fclose.obj
 0001:0000a020       ?force_synchronize_global_state_index@__crt_cached_ptd_host@@AEAA_KAEBV__crt_scoped_get_last_error_reset@@@Z 000000014000b020 f i libucrtd:fclose.obj
 0001:0000a060       ?force_synchronize_per_thread_data@__crt_cached_ptd_host@@AEAAPEAU__acrt_ptd@@XZ 000000014000b060 f i libucrtd:fclose.obj
 0001:0000a0c0       ?get_errno@__crt_cached_ptd_host@@QEAAAEAU?$cached@H@1@XZ 000000014000b0c0 f i libucrtd:fclose.obj
 0001:0000a0d0       ?get_flags@__crt_stdio_stream@@QEBAJXZ 000000014000b0d0 f i libucrtd:fclose.obj
 0001:0000a100       ?get_raw_ptd@__crt_cached_ptd_host@@QEAAPEAU__acrt_ptd@@XZ 000000014000b100 f i libucrtd:fclose.obj
 0001:0000a120       ?is_in_use@__crt_stdio_stream@@QEBA_NXZ 000000014000b120 f i libucrtd:fclose.obj
 0001:0000a160       ?is_string_backed@__crt_stdio_stream@@QEBA_NXZ 000000014000b160 f i libucrtd:fclose.obj
 0001:0000a1a0       ?set@?$cached@H@__crt_cached_ptd_host@@QEAAHH@Z 000000014000b1a0 f i libucrtd:fclose.obj
 0001:0000a1a0       ?set@?$cached@K@__crt_cached_ptd_host@@QEAAKK@Z 000000014000b1a0 f i libucrtd:errno.obj
 0001:0000a1d0       ?unsafe_value@?$cached@H@__crt_cached_ptd_host@@QEAAHXZ 000000014000b1d0 f i libucrtd:fclose.obj
 0001:0000a1d0       ?unsafe_value@?$cached@K@__crt_cached_ptd_host@@QEAAKXZ 000000014000b1d0 f i libucrtd:fclose.obj
 0001:0000a1e0       ?valid@?$cached@H@__crt_cached_ptd_host@@QEBA_NXZ 000000014000b1e0 f i libucrtd:fclose.obj
 0001:0000a1e0       ?valid@?$cached@K@__crt_cached_ptd_host@@QEBA_NXZ 000000014000b1e0 f i libucrtd:fclose.obj
 0001:0000a1f0       __acrt_enable_global_locale_sync 000000014000b1f0 f i libucrtd:fclose.obj
 0001:0000a220       __acrt_locale_changed      000000014000b220 f i libucrtd:fclose.obj
 0001:0000a250       fclose                     000000014000b250 f   libucrtd:fclose.obj
 0001:0000a290       ?error@__crt_stdio_stream@@QEBA_NXZ 000000014000b290 f i libucrtd:feoferr.obj
 0001:0000a2b0       ?has_any_of@__crt_stdio_stream@@QEBA_NJ@Z 000000014000b2b0 f i libucrtd:feoferr.obj
 0001:0000a2f0       ferror                     000000014000b2f0 f   libucrtd:feoferr.obj
 0001:0000a670       ??$open_file@AEBQEBDAEBQEBDAEBHPEAU_iobuf@@@?$__crt_char_traits@D@@SAPEAU_iobuf@@AEBQEBD0AEBH$$QEAPEAU1@@Z 000000014000b670 f i libucrtd:fopen.obj
 0001:0000a6c0       ?unlock@__crt_stdio_stream@@QEBAXXZ 000000014000b6c0 f i libucrtd:fopen.obj
 0001:0000a6e0       fopen                      000000014000b6e0 f   libucrtd:fopen.obj
 0001:0000a710       ?__acrt_stdio_reset_buffer@@YAXV__crt_stdio_stream@@@Z 000000014000b710 f i libucrtd:fread.obj
 0001:0000a760       ?has_any_buffer@__crt_stdio_stream@@QEBA_NXZ 000000014000b760 f i libucrtd:fread.obj
 0001:0000a780       ?set_flags@__crt_stdio_stream@@QEBA_NJ@Z 000000014000b780 f i libucrtd:fread.obj
 0001:0000a7f0       _fread_nolock_s            000000014000b7f0 f   libucrtd:fread.obj
 0001:0000b1a0       fread                      000000014000c1a0 f   libucrtd:fread.obj
 0001:0000b1f0       fread_s                    000000014000c1f0 f   libucrtd:fread.obj
 0001:0000b480       ?LongLongSub@@YAJ_J0PEA_J@Z 000000014000c480 f i libucrtd:fseek.obj
 0001:0000bb90       ?has_all_of@__crt_stdio_stream@@QEBA_NJ@Z 000000014000cb90 f i libucrtd:fseek.obj
 0001:0000bbd0       ?lowio_handle@__crt_stdio_stream@@QEBAHXZ 000000014000cbd0 f i libucrtd:fseek.obj
 0001:0000bc00       ?unset_flags@__crt_stdio_stream@@QEBA_NJ@Z 000000014000cc00 f i libucrtd:fseek.obj
 0001:0000bc60       fseek                      000000014000cc60 f   libucrtd:fseek.obj
 0001:0000ca70       ?ctrl_z@__crt_stdio_stream@@QEBA_NXZ 000000014000da70 f i libucrtd:ftell.obj
 0001:0000ca90       ?has_big_buffer@__crt_stdio_stream@@QEBA_NXZ 000000014000da90 f i libucrtd:ftell.obj
 0001:0000cab0       ?has_crt_buffer@__crt_stdio_stream@@QEBA_NXZ 000000014000dab0 f i libucrtd:ftell.obj
 0001:0000cad0       ?has_setvbuf_buffer@__crt_stdio_stream@@QEBA_NXZ 000000014000dad0 f i libucrtd:ftell.obj
 0001:0000caf0       _ftelli64_nolock_internal  000000014000daf0 f   libucrtd:ftell.obj
 0001:0000cb20       _utf8_no_of_trailbytes     000000014000db20 f i libucrtd:ftell.obj
 0001:0000cb40       ftell                      000000014000db40 f   libucrtd:ftell.obj
 0001:0000ccc0       ??0__acrt_stdio_temporary_buffering_guard@@QEAA@QEAU_iobuf@@AEAV__crt_cached_ptd_host@@@Z 000000014000dcc0 f i libucrtd:fwrite.obj
 0001:0000cd10       ??1__acrt_stdio_temporary_buffering_guard@@QEAA@XZ 000000014000dd10 f i libucrtd:fwrite.obj
 0001:0000ce10       _fwrite_internal           000000014000de10 f   libucrtd:fwrite.obj
 0001:0000cf80       _fwrite_nolock_internal    000000014000df80 f   libucrtd:fwrite.obj
 0001:0000d7b0       fwrite                     000000014000e7b0 f   libucrtd:fwrite.obj
 0001:0000d920       _get_sys_err_msg           000000014000e920 f i libucrtd:perror.obj
 0001:0000d9d0       perror                     000000014000e9d0 f   libucrtd:perror.obj
 0001:0000da10       ??$?0AEBV?$stream_output_adapter@D@__crt_stdio_output@@AEB_KAEBQEBDAEAV__crt_cached_ptd_host@@AEBQEAD@?$standard_base@DV?$stream_output_adapter@D@__crt_stdio_output@@@__crt_stdio_output@@IEAA@AEBV?$stream_output_adapter@D@1@AEB_KAEBQEBDAEAV__crt_cached_ptd_host@@AEBQEAD@Z 000000014000ea10 f i libucrtd:output.obj
 0001:0000da10       ??$?0AEBV?$string_output_adapter@D@__crt_stdio_output@@AEB_KAEBQEBDAEAV__crt_cached_ptd_host@@AEBQEAD@?$standard_base@DV?$string_output_adapter@D@__crt_stdio_output@@@__crt_stdio_output@@IEAA@AEBV?$string_output_adapter@D@1@AEB_KAEBQEBDAEAV__crt_cached_ptd_host@@AEBQEAD@Z 000000014000ea10 f i libucrtd:output.obj
 0001:0000da80       ??$?0AEBV?$string_output_adapter@D@__crt_stdio_output@@AEB_KAEBQEBDAEAV__crt_cached_ptd_host@@AEBQEAD@?$format_validation_base@DV?$string_output_adapter@D@__crt_stdio_output@@@__crt_stdio_output@@IEAA@AEBV?$string_output_adapter@D@1@AEB_KAEBQEBDAEAV__crt_cached_ptd_host@@AEBQEAD@Z 000000014000ea80 f i libucrtd:output.obj
 0001:0000dad0       ??$?0AEBV?$string_output_adapter@_W@__crt_stdio_output@@AEB_KAEBQEB_WAEAV__crt_cached_ptd_host@@AEBQEAD@?$format_validation_base@_WV?$string_output_adapter@_W@__crt_stdio_output@@@__crt_stdio_output@@IEAA@AEBV?$string_output_adapter@_W@1@AEB_KAEBQEB_WAEAV__crt_cached_ptd_host@@AEBQEAD@Z 000000014000ead0 f i libucrtd:output.obj
 0001:0000db20       ??$?0AEBV?$string_output_adapter@_W@__crt_stdio_output@@AEB_KAEBQEB_WAEAV__crt_cached_ptd_host@@AEBQEAD@?$standard_base@_WV?$string_output_adapter@_W@__crt_stdio_output@@@__crt_stdio_output@@IEAA@AEBV?$string_output_adapter@_W@1@AEB_KAEBQEB_WAEAV__crt_cached_ptd_host@@AEBQEAD@Z 000000014000eb20 f i libucrtd:output.obj
 0001:0000dc40       ??$_tcstol_internal@DPEAPEAD$0A@@@YAJAEAV__crt_cached_ptd_host@@QEBDQEAPEADH@Z 000000014000ec40 f i libucrtd:output.obj
 0001:0000dc90       ??$_tcstol_internal@_WPEAPEA_W$0A@@@YAJAEAV__crt_cached_ptd_host@@QEB_WQEAPEA_WH@Z 000000014000ec90 f i libucrtd:output.obj
 0001:0000fa90       ??$count@D@formatting_buffer@__crt_stdio_output@@QEBA_KXZ 0000000140010a90 f i libucrtd:output.obj
 0001:0000fae0       ??$count@_W@formatting_buffer@__crt_stdio_output@@QEBA_KXZ 0000000140010ae0 f i libucrtd:output.obj
 0001:0000fb30       ??$data@D@formatting_buffer@__crt_stdio_output@@QEAAPEADXZ 0000000140010b30 f i libucrtd:output.obj
 0001:0000fb30       ??$data@_W@formatting_buffer@__crt_stdio_output@@QEAAPEA_WXZ 0000000140010b30 f i libucrtd:output.obj
 0001:0000fb80       ??$ensure_buffer_is_big_enough@D@formatting_buffer@__crt_stdio_output@@QEAA_N_KAEAV__crt_cached_ptd_host@@@Z 0000000140010b80 f i libucrtd:output.obj
 0001:0000fcc0       ??$ensure_buffer_is_big_enough@_W@formatting_buffer@__crt_stdio_output@@QEAA_N_KAEAV__crt_cached_ptd_host@@@Z 0000000140010cc0 f i libucrtd:output.obj
 0001:0000fe00       ??$extract_argument_from_va_list@C_J@?$standard_base@DV?$stream_output_adapter@D@__crt_stdio_output@@@__crt_stdio_output@@IEAA_NAEA_J@Z 0000000140010e00 f i libucrtd:output.obj
 0001:0000fe00       ??$extract_argument_from_va_list@C_J@?$standard_base@DV?$string_output_adapter@D@__crt_stdio_output@@@__crt_stdio_output@@IEAA_NAEA_J@Z 0000000140010e00 f i libucrtd:output.obj
 0001:0000fe00       ??$extract_argument_from_va_list@C_J@?$standard_base@_WV?$string_output_adapter@_W@__crt_stdio_output@@@__crt_stdio_output@@IEAA_NAEA_J@Z 0000000140010e00 f i libucrtd:output.obj
 0001:0000fe40       ??$extract_argument_from_va_list@E_J@?$standard_base@DV?$stream_output_adapter@D@__crt_stdio_output@@@__crt_stdio_output@@IEAA_NAEA_J@Z 0000000140010e40 f i libucrtd:output.obj
 0001:0000fe40       ??$extract_argument_from_va_list@E_J@?$standard_base@DV?$string_output_adapter@D@__crt_stdio_output@@@__crt_stdio_output@@IEAA_NAEA_J@Z 0000000140010e40 f i libucrtd:output.obj
 0001:0000fe40       ??$extract_argument_from_va_list@E_J@?$standard_base@_WV?$string_output_adapter@_W@__crt_stdio_output@@@__crt_stdio_output@@IEAA_NAEA_J@Z 0000000140010e40 f i libucrtd:output.obj
 0001:0000fe80       ??$extract_argument_from_va_list@F_J@?$standard_base@DV?$stream_output_adapter@D@__crt_stdio_output@@@__crt_stdio_output@@IEAA_NAEA_J@Z 0000000140010e80 f i libucrtd:output.obj
 0001:0000fe80       ??$extract_argument_from_va_list@F_J@?$standard_base@DV?$string_output_adapter@D@__crt_stdio_output@@@__crt_stdio_output@@IEAA_NAEA_J@Z 0000000140010e80 f i libucrtd:output.obj
 0001:0000fe80       ??$extract_argument_from_va_list@F_J@?$standard_base@_WV?$string_output_adapter@_W@__crt_stdio_output@@@__crt_stdio_output@@IEAA_NAEA_J@Z 0000000140010e80 f i libucrtd:output.obj
 0001:0000fec0       ??$extract_argument_from_va_list@GD@?$standard_base@DV?$stream_output_adapter@D@__crt_stdio_output@@@__crt_stdio_output@@IEAA_NAEAD@Z 0000000140010ec0 f i libucrtd:output.obj
 0001:0000fec0       ??$extract_argument_from_va_list@GD@?$standard_base@DV?$string_output_adapter@D@__crt_stdio_output@@@__crt_stdio_output@@IEAA_NAEAD@Z 0000000140010ec0 f i libucrtd:output.obj
 0001:0000fef0       ??$extract_argument_from_va_list@G_J@?$standard_base@DV?$stream_output_adapter@D@__crt_stdio_output@@@__crt_stdio_output@@IEAA_NAEA_J@Z 0000000140010ef0 f i libucrtd:output.obj
 0001:0000fef0       ??$extract_argument_from_va_list@G_J@?$standard_base@DV?$string_output_adapter@D@__crt_stdio_output@@@__crt_stdio_output@@IEAA_NAEA_J@Z 0000000140010ef0 f i libucrtd:output.obj
 0001:0000fef0       ??$extract_argument_from_va_list@G_J@?$standard_base@_WV?$string_output_adapter@_W@__crt_stdio_output@@@__crt_stdio_output@@IEAA_NAEA_J@Z 0000000140010ef0 f i libucrtd:output.obj
 0001:0000ff30       ??$extract_argument_from_va_list@H_J@?$standard_base@DV?$stream_output_adapter@D@__crt_stdio_output@@@__crt_stdio_output@@IEAA_NAEA_J@Z 0000000140010f30 f i libucrtd:output.obj
 0001:0000ff30       ??$extract_argument_from_va_list@H_J@?$standard_base@DV?$string_output_adapter@D@__crt_stdio_output@@@__crt_stdio_output@@IEAA_NAEA_J@Z 0000000140010f30 f i libucrtd:output.obj
 0001:0000ff30       ??$extract_argument_from_va_list@H_J@?$standard_base@_WV?$string_output_adapter@_W@__crt_stdio_output@@@__crt_stdio_output@@IEAA_NAEA_J@Z 0000000140010f30 f i libucrtd:output.obj
 0001:0000ff60       ??$extract_argument_from_va_list@I_J@?$standard_base@DV?$stream_output_adapter@D@__crt_stdio_output@@@__crt_stdio_output@@IEAA_NAEA_J@Z 0000000140010f60 f i libucrtd:output.obj
 0001:0000ff60       ??$extract_argument_from_va_list@I_J@?$standard_base@DV?$string_output_adapter@D@__crt_stdio_output@@@__crt_stdio_output@@IEAA_NAEA_J@Z 0000000140010f60 f i libucrtd:output.obj
 0001:0000ff60       ??$extract_argument_from_va_list@I_J@?$standard_base@_WV?$string_output_adapter@_W@__crt_stdio_output@@@__crt_stdio_output@@IEAA_NAEA_J@Z 0000000140010f60 f i libucrtd:output.obj
 0001:0000ff90       ??$extract_argument_from_va_list@PEADPEAD@?$standard_base@DV?$stream_output_adapter@D@__crt_stdio_output@@@__crt_stdio_output@@IEAA_NAEAPEAD@Z 0000000140010f90 f i libucrtd:output.obj
 0001:0000ff90       ??$extract_argument_from_va_list@PEADPEAD@?$standard_base@DV?$string_output_adapter@D@__crt_stdio_output@@@__crt_stdio_output@@IEAA_NAEAPEAD@Z 0000000140010f90 f i libucrtd:output.obj
 0001:0000ff90       ??$extract_argument_from_va_list@PEADPEAD@?$standard_base@_WV?$string_output_adapter@_W@__crt_stdio_output@@@__crt_stdio_output@@IEAA_NAEAPEAD@Z 0000000140010f90 f i libucrtd:output.obj
 0001:0000ff90       ??$extract_argument_from_va_list@PEAUansi_string@?1??type_case_Z@?$output_processor@DV?$stream_output_adapter@D@__crt_stdio_output@@V?$standard_base@DV?$stream_output_adapter@D@__crt_stdio_output@@@2@@__crt_stdio_output@@AEAA_NXZ@PEAU1?1??234@AEAA_NXZ@@?$standard_base@DV?$stream_output_adapter@D@__crt_stdio_output@@@__crt_stdio_output@@IEAA_NAEAPEAUansi_string@?1??type_case_Z@?$output_processor@DV?$stream_output_adapter@D@__crt_stdio_output@@V?$standard_base@DV?$stream_output_adapter@D@__crt_stdio_output@@@2@@1@AEAA_NXZ@@Z 0000000140010f90 f i libucrtd:output.obj
 0001:0000ff90       ??$extract_argument_from_va_list@PEAUansi_string@?1??type_case_Z@?$output_processor@DV?$string_output_adapter@D@__crt_stdio_output@@V?$format_validation_base@DV?$string_output_adapter@D@__crt_stdio_output@@@2@@__crt_stdio_output@@AEAA_NXZ@PEAU1?1??234@AEAA_NXZ@@?$standard_base@DV?$string_output_adapter@D@__crt_stdio_output@@@__crt_stdio_output@@IEAA_NAEAPEAUansi_string@?1??type_case_Z@?$output_processor@DV?$string_output_adapter@D@__crt_stdio_output@@V?$format_validation_base@DV?$string_output_adapter@D@__crt_stdio_output@@@2@@1@AEAA_NXZ@@Z 0000000140010f90 f i libucrtd:output.obj
 0001:0000ff90       ??$extract_argument_from_va_list@PEAUansi_string@?1??type_case_Z@?$output_processor@_WV?$string_output_adapter@_W@__crt_stdio_output@@V?$format_validation_base@_WV?$string_output_adapter@_W@__crt_stdio_output@@@2@@__crt_stdio_output@@AEAA_NXZ@PEAU1?1??234@AEAA_NXZ@@?$standard_base@_WV?$string_output_adapter@_W@__crt_stdio_output@@@__crt_stdio_output@@IEAA_NAEAPEAUansi_string@?1??type_case_Z@?$output_processor@_WV?$string_output_adapter@_W@__crt_stdio_output@@V?$format_validation_base@_WV?$string_output_adapter@_W@__crt_stdio_output@@@2@@1@AEAA_NXZ@@Z 0000000140010f90 f i libucrtd:output.obj
 0001:0000ff90       ??$extract_argument_from_va_list@PEAXPEAX@?$standard_base@DV?$stream_output_adapter@D@__crt_stdio_output@@@__crt_stdio_output@@IEAA_NAEAPEAX@Z 0000000140010f90 f i libucrtd:output.obj
 0001:0000ff90       ??$extract_argument_from_va_list@PEAXPEAX@?$standard_base@DV?$string_output_adapter@D@__crt_stdio_output@@@__crt_stdio_output@@IEAA_NAEAPEAX@Z 0000000140010f90 f i libucrtd:output.obj
 0001:0000ff90       ??$extract_argument_from_va_list@PEAXPEAX@?$standard_base@_WV?$string_output_adapter@_W@__crt_stdio_output@@@__crt_stdio_output@@IEAA_NAEAPEAX@Z 0000000140010f90 f i libucrtd:output.obj
 0001:0000ff90       ??$extract_argument_from_va_list@_J_J@?$standard_base@DV?$stream_output_adapter@D@__crt_stdio_output@@@__crt_stdio_output@@IEAA_NAEA_J@Z 0000000140010f90 f i libucrtd:output.obj
 0001:0000ff90       ??$extract_argument_from_va_list@_J_J@?$standard_base@DV?$string_output_adapter@D@__crt_stdio_output@@@__crt_stdio_output@@IEAA_NAEA_J@Z 0000000140010f90 f i libucrtd:output.obj
 0001:0000ff90       ??$extract_argument_from_va_list@_J_J@?$standard_base@_WV?$string_output_adapter@_W@__crt_stdio_output@@@__crt_stdio_output@@IEAA_NAEA_J@Z 0000000140010f90 f i libucrtd:output.obj
 0001:0000ff90       ??$extract_argument_from_va_list@_K_J@?$standard_base@DV?$stream_output_adapter@D@__crt_stdio_output@@@__crt_stdio_output@@IEAA_NAEA_J@Z 0000000140010f90 f i libucrtd:output.obj
 0001:0000ff90       ??$extract_argument_from_va_list@_K_J@?$standard_base@DV?$string_output_adapter@D@__crt_stdio_output@@@__crt_stdio_output@@IEAA_NAEA_J@Z 0000000140010f90 f i libucrtd:output.obj
 0001:0000ff90       ??$extract_argument_from_va_list@_K_J@?$standard_base@_WV?$string_output_adapter@_W@__crt_stdio_output@@@__crt_stdio_output@@IEAA_NAEA_J@Z 0000000140010f90 f i libucrtd:output.obj
 0001:0000ffc0       ??$extract_argument_from_va_list@U_CRT_DOUBLE@@U1@@?$standard_base@DV?$stream_output_adapter@D@__crt_stdio_output@@@__crt_stdio_output@@IEAA_NAEAU_CRT_DOUBLE@@@Z 0000000140010fc0 f i libucrtd:output.obj
 0001:0000ffc0       ??$extract_argument_from_va_list@U_CRT_DOUBLE@@U1@@?$standard_base@DV?$string_output_adapter@D@__crt_stdio_output@@@__crt_stdio_output@@IEAA_NAEAU_CRT_DOUBLE@@@Z 0000000140010fc0 f i libucrtd:output.obj
 0001:0000ffc0       ??$extract_argument_from_va_list@U_CRT_DOUBLE@@U1@@?$standard_base@_WV?$string_output_adapter@_W@__crt_stdio_output@@@__crt_stdio_output@@IEAA_NAEAU_CRT_DOUBLE@@@Z 0000000140010fc0 f i libucrtd:output.obj
 0001:00010010       ??$extract_argument_from_va_list@_W_W@?$standard_base@DV?$stream_output_adapter@D@__crt_stdio_output@@@__crt_stdio_output@@IEAA_NAEA_W@Z 0000000140011010 f i libucrtd:output.obj
 0001:00010010       ??$extract_argument_from_va_list@_W_W@?$standard_base@DV?$string_output_adapter@D@__crt_stdio_output@@@__crt_stdio_output@@IEAA_NAEA_W@Z 0000000140011010 f i libucrtd:output.obj
 0001:00010010       ??$extract_argument_from_va_list@_W_W@?$standard_base@_WV?$string_output_adapter@_W@__crt_stdio_output@@@__crt_stdio_output@@IEAA_NAEA_W@Z 0000000140011010 f i libucrtd:output.obj
 0001:00010040       ??$is_overflow_condition@K@__crt_strtox@@YA_NIK@Z 0000000140011040 f i libucrtd:output.obj
 0001:000100b0       ??$is_wide_character_specifier@D@__crt_stdio_output@@YA_N_KDW4length_modifier@0@@Z 00000001400110b0 f i libucrtd:output.obj
 0001:00010150       ??$is_wide_character_specifier@_W@__crt_stdio_output@@YA_N_K_WW4length_modifier@0@@Z 0000000140011150 f i libucrtd:output.obj
 0001:00010220       ??$make_c_string_character_source@DPEAPEAD@__crt_strtox@@YA?AV?$c_string_character_source@D@0@QEBDQEAPEAD@Z 0000000140011220 f i libucrtd:output.obj
 0001:00010220       ??$make_c_string_character_source@_WPEAPEA_W@__crt_strtox@@YA?AV?$c_string_character_source@_W@0@QEB_WQEAPEA_W@Z 0000000140011220 f i libucrtd:output.obj
 0001:00010260       ??$parse_integer@KV?$c_string_character_source@D@__crt_strtox@@$0A@@__crt_strtox@@YAKAEAV__crt_cached_ptd_host@@V?$c_string_character_source@D@0@H_N@Z 0000000140011260 f i libucrtd:output.obj
 0001:000106e0       ??$parse_integer@KV?$c_string_character_source@_W@__crt_strtox@@$0A@@__crt_strtox@@YAKAEAV__crt_cached_ptd_host@@V?$c_string_character_source@_W@0@H_N@Z 00000001400116e0 f i libucrtd:output.obj
 0001:00010b60       ??$puttc_nolock_internal@AEBDPEAU_iobuf@@AEAV__crt_cached_ptd_host@@@?$__crt_char_traits@D@@SAHAEBD$$QEAPEAU_iobuf@@AEAV__crt_cached_ptd_host@@@Z 0000000140011b60 f i libucrtd:output.obj
 0001:00010ba0       ??$read_va_arg@C@__crt_stdio_output@@YACAEAPEAD@Z 0000000140011ba0 f i libucrtd:output.obj
 0001:00010ba0       ??$read_va_arg@E@__crt_stdio_output@@YAEAEAPEAD@Z 0000000140011ba0 f i libucrtd:output.obj
 0001:00010c10       ??$read_va_arg@F@__crt_stdio_output@@YAFAEAPEAD@Z 0000000140011c10 f i libucrtd:output.obj
 0001:00010c10       ??$read_va_arg@G@__crt_stdio_output@@YAGAEAPEAD@Z 0000000140011c10 f i libucrtd:output.obj
 0001:00010c10       ??$read_va_arg@_W@__crt_stdio_output@@YA_WAEAPEAD@Z 0000000140011c10 f i libucrtd:output.obj
 0001:00010c80       ??$read_va_arg@H@__crt_stdio_output@@YAHAEAPEAD@Z 0000000140011c80 f i libucrtd:output.obj
 0001:00010c80       ??$read_va_arg@I@__crt_stdio_output@@YAIAEAPEAD@Z 0000000140011c80 f i libucrtd:output.obj
 0001:00010ce0       ??$read_va_arg@PEAD@__crt_stdio_output@@YAPEADAEAPEAD@Z 0000000140011ce0 f i libucrtd:output.obj
 0001:00010ce0       ??$read_va_arg@PEAUansi_string@?1??type_case_Z@?$output_processor@DV?$stream_output_adapter@D@__crt_stdio_output@@V?$standard_base@DV?$stream_output_adapter@D@__crt_stdio_output@@@2@@__crt_stdio_output@@AEAA_NXZ@@__crt_stdio_output@@YAPEAUansi_string@?1??type_case_Z@?$output_processor@DV?$stream_output_adapter@D@__crt_stdio_output@@V?$standard_base@DV?$stream_output_adapter@D@__crt_stdio_output@@@2@@0@AEAA_NXZ@AEAPEAD@Z 0000000140011ce0 f i libucrtd:output.obj
 0001:00010ce0       ??$read_va_arg@PEAUansi_string@?1??type_case_Z@?$output_processor@DV?$string_output_adapter@D@__crt_stdio_output@@V?$format_validation_base@DV?$string_output_adapter@D@__crt_stdio_output@@@2@@__crt_stdio_output@@AEAA_NXZ@@__crt_stdio_output@@YAPEAUansi_string@?1??type_case_Z@?$output_processor@DV?$string_output_adapter@D@__crt_stdio_output@@V?$format_validation_base@DV?$string_output_adapter@D@__crt_stdio_output@@@2@@0@AEAA_NXZ@AEAPEAD@Z 0000000140011ce0 f i libucrtd:output.obj
 0001:00010ce0       ??$read_va_arg@PEAUansi_string@?1??type_case_Z@?$output_processor@_WV?$string_output_adapter@_W@__crt_stdio_output@@V?$format_validation_base@_WV?$string_output_adapter@_W@__crt_stdio_output@@@2@@__crt_stdio_output@@AEAA_NXZ@@__crt_stdio_output@@YAPEAUansi_string@?1??type_case_Z@?$output_processor@_WV?$string_output_adapter@_W@__crt_stdio_output@@V?$format_validation_base@_WV?$string_output_adapter@_W@__crt_stdio_output@@@2@@0@AEAA_NXZ@AEAPEAD@Z 0000000140011ce0 f i libucrtd:output.obj
 0001:00010ce0       ??$read_va_arg@PEAX@__crt_stdio_output@@YAPEAXAEAPEAD@Z 0000000140011ce0 f i libucrtd:output.obj
 0001:00010ce0       ??$read_va_arg@U_CRT_DOUBLE@@@__crt_stdio_output@@YA?AU_CRT_DOUBLE@@AEAPEAD@Z 0000000140011ce0 f i libucrtd:output.obj
 0001:00010ce0       ??$read_va_arg@_J@__crt_stdio_output@@YA_JAEAPEAD@Z 0000000140011ce0 f i libucrtd:output.obj
 0001:00010ce0       ??$read_va_arg@_K@__crt_stdio_output@@YA_KAEAPEAD@Z 0000000140011ce0 f i libucrtd:output.obj
 0001:00010d50       ??$scratch_count@D@formatting_buffer@__crt_stdio_output@@QEBA_KXZ 0000000140011d50 f i libucrtd:output.obj
 0001:00010d70       ??$scratch_data@D@formatting_buffer@__crt_stdio_output@@QEAAPEADXZ 0000000140011d70 f i libucrtd:output.obj
 0001:00010de0       ??$type_case_integer@$07@?$output_processor@DV?$stream_output_adapter@D@__crt_stdio_output@@V?$standard_base@DV?$stream_output_adapter@D@__crt_stdio_output@@@2@@__crt_stdio_output@@AEAA_N_N@Z 0000000140011de0 f i libucrtd:output.obj
 0001:00011260       ??$type_case_integer@$07@?$output_processor@DV?$string_output_adapter@D@__crt_stdio_output@@V?$format_validation_base@DV?$string_output_adapter@D@__crt_stdio_output@@@2@@__crt_stdio_output@@AEAA_N_N@Z 0000000140012260 f i libucrtd:output.obj
 0001:000116e0       ??$type_case_integer@$07@?$output_processor@_WV?$string_output_adapter@_W@__crt_stdio_output@@V?$format_validation_base@_WV?$string_output_adapter@_W@__crt_stdio_output@@@2@@__crt_stdio_output@@AEAA_N_N@Z 00000001400126e0 f i libucrtd:output.obj
 0001:00011b60       ??$type_case_integer@$09@?$output_processor@DV?$stream_output_adapter@D@__crt_stdio_output@@V?$standard_base@DV?$stream_output_adapter@D@__crt_stdio_output@@@2@@__crt_stdio_output@@AEAA_N_N@Z 0000000140012b60 f i libucrtd:output.obj
 0001:00011fe0       ??$type_case_integer@$09@?$output_processor@DV?$string_output_adapter@D@__crt_stdio_output@@V?$format_validation_base@DV?$string_output_adapter@D@__crt_stdio_output@@@2@@__crt_stdio_output@@AEAA_N_N@Z 0000000140012fe0 f i libucrtd:output.obj
 0001:00012460       ??$type_case_integer@$09@?$output_processor@_WV?$string_output_adapter@_W@__crt_stdio_output@@V?$format_validation_base@_WV?$string_output_adapter@_W@__crt_stdio_output@@@2@@__crt_stdio_output@@AEAA_N_N@Z 0000000140013460 f i libucrtd:output.obj
 0001:000128e0       ??$type_case_integer@$0BA@@?$output_processor@DV?$stream_output_adapter@D@__crt_stdio_output@@V?$standard_base@DV?$stream_output_adapter@D@__crt_stdio_output@@@2@@__crt_stdio_output@@AEAA_N_N@Z 00000001400138e0 f i libucrtd:output.obj
 0001:00012d60       ??$type_case_integer@$0BA@@?$output_processor@DV?$string_output_adapter@D@__crt_stdio_output@@V?$format_validation_base@DV?$string_output_adapter@D@__crt_stdio_output@@@2@@__crt_stdio_output@@AEAA_N_N@Z 0000000140013d60 f i libucrtd:output.obj
 0001:000131e0       ??$type_case_integer@$0BA@@?$output_processor@_WV?$string_output_adapter@_W@__crt_stdio_output@@V?$format_validation_base@_WV?$string_output_adapter@_W@__crt_stdio_output@@@2@@__crt_stdio_output@@AEAA_N_N@Z 00000001400141e0 f i libucrtd:output.obj
 0001:00013660       ??$type_case_integer_parse_into_buffer@I$07@?$output_processor@DV?$stream_output_adapter@D@__crt_stdio_output@@V?$standard_base@DV?$stream_output_adapter@D@__crt_stdio_output@@@2@@__crt_stdio_output@@AEAAXI_N@Z 0000000140014660 f i libucrtd:output.obj
 0001:00013660       ??$type_case_integer_parse_into_buffer@I$07@?$output_processor@DV?$string_output_adapter@D@__crt_stdio_output@@V?$format_validation_base@DV?$string_output_adapter@D@__crt_stdio_output@@@2@@__crt_stdio_output@@AEAAXI_N@Z 0000000140014660 f i libucrtd:output.obj
 0001:00013790       ??$type_case_integer_parse_into_buffer@I$07@?$output_processor@_WV?$string_output_adapter@_W@__crt_stdio_output@@V?$format_validation_base@_WV?$string_output_adapter@_W@__crt_stdio_output@@@2@@__crt_stdio_output@@AEAAXI_N@Z 0000000140014790 f i libucrtd:output.obj
 0001:000138d0       ??$type_case_integer_parse_into_buffer@I$09@?$output_processor@DV?$stream_output_adapter@D@__crt_stdio_output@@V?$standard_base@DV?$stream_output_adapter@D@__crt_stdio_output@@@2@@__crt_stdio_output@@AEAAXI_N@Z 00000001400148d0 f i libucrtd:output.obj
 0001:000138d0       ??$type_case_integer_parse_into_buffer@I$09@?$output_processor@DV?$string_output_adapter@D@__crt_stdio_output@@V?$format_validation_base@DV?$string_output_adapter@D@__crt_stdio_output@@@2@@__crt_stdio_output@@AEAAXI_N@Z 00000001400148d0 f i libucrtd:output.obj
 0001:00013a00       ??$type_case_integer_parse_into_buffer@I$09@?$output_processor@_WV?$string_output_adapter@_W@__crt_stdio_output@@V?$format_validation_base@_WV?$string_output_adapter@_W@__crt_stdio_output@@@2@@__crt_stdio_output@@AEAAXI_N@Z 0000000140014a00 f i libucrtd:output.obj
 0001:00013b40       ??$type_case_integer_parse_into_buffer@I$0BA@@?$output_processor@DV?$stream_output_adapter@D@__crt_stdio_output@@V?$standard_base@DV?$stream_output_adapter@D@__crt_stdio_output@@@2@@__crt_stdio_output@@AEAAXI_N@Z 0000000140014b40 f i libucrtd:output.obj
 0001:00013b40       ??$type_case_integer_parse_into_buffer@I$0BA@@?$output_processor@DV?$string_output_adapter@D@__crt_stdio_output@@V?$format_validation_base@DV?$string_output_adapter@D@__crt_stdio_output@@@2@@__crt_stdio_output@@AEAAXI_N@Z 0000000140014b40 f i libucrtd:output.obj
 0001:00013c70       ??$type_case_integer_parse_into_buffer@I$0BA@@?$output_processor@_WV?$string_output_adapter@_W@__crt_stdio_output@@V?$format_validation_base@_WV?$string_output_adapter@_W@__crt_stdio_output@@@2@@__crt_stdio_output@@AEAAXI_N@Z 0000000140014c70 f i libucrtd:output.obj
 0001:00013db0       ??$type_case_integer_parse_into_buffer@_K$07@?$output_processor@DV?$stream_output_adapter@D@__crt_stdio_output@@V?$standard_base@DV?$stream_output_adapter@D@__crt_stdio_output@@@2@@__crt_stdio_output@@AEAAX_K_N@Z 0000000140014db0 f i libucrtd:output.obj
 0001:00013db0       ??$type_case_integer_parse_into_buffer@_K$07@?$output_processor@DV?$string_output_adapter@D@__crt_stdio_output@@V?$format_validation_base@DV?$string_output_adapter@D@__crt_stdio_output@@@2@@__crt_stdio_output@@AEAAX_K_N@Z 0000000140014db0 f i libucrtd:output.obj
 0001:00013ef0       ??$type_case_integer_parse_into_buffer@_K$07@?$output_processor@_WV?$string_output_adapter@_W@__crt_stdio_output@@V?$format_validation_base@_WV?$string_output_adapter@_W@__crt_stdio_output@@@2@@__crt_stdio_output@@AEAAX_K_N@Z 0000000140014ef0 f i libucrtd:output.obj
 0001:00014030       ??$type_case_integer_parse_into_buffer@_K$09@?$output_processor@DV?$stream_output_adapter@D@__crt_stdio_output@@V?$standard_base@DV?$stream_output_adapter@D@__crt_stdio_output@@@2@@__crt_stdio_output@@AEAAX_K_N@Z 0000000140015030 f i libucrtd:output.obj
 0001:00014030       ??$type_case_integer_parse_into_buffer@_K$09@?$output_processor@DV?$string_output_adapter@D@__crt_stdio_output@@V?$format_validation_base@DV?$string_output_adapter@D@__crt_stdio_output@@@2@@__crt_stdio_output@@AEAAX_K_N@Z 0000000140015030 f i libucrtd:output.obj
 0001:00014170       ??$type_case_integer_parse_into_buffer@_K$09@?$output_processor@_WV?$string_output_adapter@_W@__crt_stdio_output@@V?$format_validation_base@_WV?$string_output_adapter@_W@__crt_stdio_output@@@2@@__crt_stdio_output@@AEAAX_K_N@Z 0000000140015170 f i libucrtd:output.obj
 0001:000142b0       ??$type_case_integer_parse_into_buffer@_K$0BA@@?$output_processor@DV?$stream_output_adapter@D@__crt_stdio_output@@V?$standard_base@DV?$stream_output_adapter@D@__crt_stdio_output@@@2@@__crt_stdio_output@@AEAAX_K_N@Z 00000001400152b0 f i libucrtd:output.obj
 0001:000142b0       ??$type_case_integer_parse_into_buffer@_K$0BA@@?$output_processor@DV?$string_output_adapter@D@__crt_stdio_output@@V?$format_validation_base@DV?$string_output_adapter@D@__crt_stdio_output@@@2@@__crt_stdio_output@@AEAAX_K_N@Z 00000001400152b0 f i libucrtd:output.obj
 0001:000143f0       ??$type_case_integer_parse_into_buffer@_K$0BA@@?$output_processor@_WV?$string_output_adapter@_W@__crt_stdio_output@@V?$format_validation_base@_WV?$string_output_adapter@_W@__crt_stdio_output@@@2@@__crt_stdio_output@@AEAAX_K_N@Z 00000001400153f0 f i libucrtd:output.obj
 0001:00014530       ??$write_multiple_characters@V?$stream_output_adapter@D@__crt_stdio_output@@D@__crt_stdio_output@@YAXAEBV?$stream_output_adapter@D@0@DHQEAHAEAV__crt_cached_ptd_host@@@Z 0000000140015530 f i libucrtd:output.obj
 0001:000145a0       ??$write_multiple_characters@V?$string_output_adapter@D@__crt_stdio_output@@D@__crt_stdio_output@@YAXAEBV?$string_output_adapter@D@0@DHQEAHAEAV__crt_cached_ptd_host@@@Z 00000001400155a0 f i libucrtd:output.obj
 0001:00014610       ??$write_multiple_characters@V?$string_output_adapter@_W@__crt_stdio_output@@D@__crt_stdio_output@@YAXAEBV?$string_output_adapter@_W@0@DHQEAHAEAV__crt_cached_ptd_host@@@Z 0000000140015610 f i libucrtd:output.obj
 0001:00014680       ??0?$c_string_character_source@D@__crt_strtox@@QEAA@QEBDQEAPEBD@Z 0000000140015680 f i libucrtd:output.obj
 0001:00014680       ??0?$c_string_character_source@_W@__crt_strtox@@QEAA@QEB_WQEAPEB_W@Z 0000000140015680 f i libucrtd:output.obj
 0001:000146d0       ??0?$common_data@D@__crt_stdio_output@@IEAA@AEAV__crt_cached_ptd_host@@@Z 00000001400156d0 f i libucrtd:output.obj
 0001:00014790       ??0?$common_data@_W@__crt_stdio_output@@IEAA@AEAV__crt_cached_ptd_host@@@Z 0000000140015790 f i libucrtd:output.obj
 0001:00014850       ??0?$output_adapter_data@DV?$stream_output_adapter@D@__crt_stdio_output@@@__crt_stdio_output@@IEAA@AEBV?$stream_output_adapter@D@1@_KQEBDAEAV__crt_cached_ptd_host@@QEAD@Z 0000000140015850 f i libucrtd:output.obj
 0001:00014850       ??0?$output_adapter_data@DV?$string_output_adapter@D@__crt_stdio_output@@@__crt_stdio_output@@IEAA@AEBV?$string_output_adapter@D@1@_KQEBDAEAV__crt_cached_ptd_host@@QEAD@Z 0000000140015850 f i libucrtd:output.obj
 0001:000148d0       ??0?$output_adapter_data@_WV?$string_output_adapter@_W@__crt_stdio_output@@@__crt_stdio_output@@IEAA@AEBV?$string_output_adapter@_W@1@_KQEB_WAEAV__crt_cached_ptd_host@@QEAD@Z 00000001400158d0 f i libucrtd:output.obj
 0001:00014950       ??0?$output_processor@DV?$stream_output_adapter@D@__crt_stdio_output@@V?$standard_base@DV?$stream_output_adapter@D@__crt_stdio_output@@@2@@__crt_stdio_output@@QEAA@AEBV?$stream_output_adapter@D@1@_KQEBDAEAV__crt_cached_ptd_host@@QEAD@Z 0000000140015950 f i libucrtd:output.obj
 0001:000149a0       ??0?$output_processor@DV?$string_output_adapter@D@__crt_stdio_output@@V?$format_validation_base@DV?$string_output_adapter@D@__crt_stdio_output@@@2@@__crt_stdio_output@@QEAA@AEBV?$string_output_adapter@D@1@_KQEBDAEAV__crt_cached_ptd_host@@QEAD@Z 00000001400159a0 f i libucrtd:output.obj
 0001:000149f0       ??0?$output_processor@_WV?$string_output_adapter@_W@__crt_stdio_output@@V?$format_validation_base@_WV?$string_output_adapter@_W@__crt_stdio_output@@@2@@__crt_stdio_output@@QEAA@AEBV?$string_output_adapter@_W@1@_KQEB_WAEAV__crt_cached_ptd_host@@QEAD@Z 00000001400159f0 f i libucrtd:output.obj
 0001:00014a40       ??0?$stream_output_adapter@D@__crt_stdio_output@@QEAA@QEAU_iobuf@@@Z 0000000140015a40 f i libucrtd:output.obj
 0001:00014a80       ??0formatting_buffer@__crt_stdio_output@@QEAA@XZ 0000000140015a80 f i libucrtd:output.obj
 0001:00014ac0       ??0guard@?$cached@H@__crt_cached_ptd_host@@QEAA@AEAU12@@Z 0000000140015ac0 f i libucrtd:output.obj
 0001:00014b00       ??1?$c_string_character_source@D@__crt_strtox@@QEAA@XZ 0000000140015b00 f i libucrtd:output.obj
 0001:00014b00       ??1?$c_string_character_source@_W@__crt_strtox@@QEAA@XZ 0000000140015b00 f i libucrtd:output.obj
 0001:00014b30       ??1?$common_data@D@__crt_stdio_output@@QEAA@XZ 0000000140015b30 f i libucrtd:output.obj
 0001:00014b30       ??1?$common_data@_W@__crt_stdio_output@@QEAA@XZ 0000000140015b30 f i libucrtd:output.obj
 0001:00014b50       ??1?$format_validation_base@DV?$string_output_adapter@D@__crt_stdio_output@@@__crt_stdio_output@@QEAA@XZ 0000000140015b50 f i libucrtd:output.obj
 0001:00014b50       ??1?$format_validation_base@_WV?$string_output_adapter@_W@__crt_stdio_output@@@__crt_stdio_output@@QEAA@XZ 0000000140015b50 f i libucrtd:output.obj
 0001:00014b50       ??1?$output_processor@DV?$stream_output_adapter@D@__crt_stdio_output@@V?$standard_base@DV?$stream_output_adapter@D@__crt_stdio_output@@@2@@__crt_stdio_output@@QEAA@XZ 0000000140015b50 f i libucrtd:output.obj
 0001:00014b70       ??1?$output_adapter_data@DV?$stream_output_adapter@D@__crt_stdio_output@@@__crt_stdio_output@@QEAA@XZ 0000000140015b70 f i libucrtd:output.obj
 0001:00014b70       ??1?$output_adapter_data@DV?$string_output_adapter@D@__crt_stdio_output@@@__crt_stdio_output@@QEAA@XZ 0000000140015b70 f i libucrtd:output.obj
 0001:00014b70       ??1?$output_adapter_data@_WV?$string_output_adapter@_W@__crt_stdio_output@@@__crt_stdio_output@@QEAA@XZ 0000000140015b70 f i libucrtd:output.obj
 0001:00014b90       ??1?$output_processor@DV?$string_output_adapter@D@__crt_stdio_output@@V?$format_validation_base@DV?$string_output_adapter@D@__crt_stdio_output@@@2@@__crt_stdio_output@@QEAA@XZ 0000000140015b90 f i libucrtd:output.obj
 0001:00014b90       ??1?$output_processor@_WV?$string_output_adapter@_W@__crt_stdio_output@@V?$format_validation_base@_WV?$string_output_adapter@_W@__crt_stdio_output@@@2@@__crt_stdio_output@@QEAA@XZ 0000000140015b90 f i libucrtd:output.obj
 0001:00014bb0       ??1?$standard_base@DV?$stream_output_adapter@D@__crt_stdio_output@@@__crt_stdio_output@@QEAA@XZ 0000000140015bb0 f i libucrtd:output.obj
 0001:00014bb0       ??1?$standard_base@DV?$string_output_adapter@D@__crt_stdio_output@@@__crt_stdio_output@@QEAA@XZ 0000000140015bb0 f i libucrtd:output.obj
 0001:00014bb0       ??1?$standard_base@_WV?$string_output_adapter@_W@__crt_stdio_output@@@__crt_stdio_output@@QEAA@XZ 0000000140015bb0 f i libucrtd:output.obj
 0001:00014bd0       ??1formatting_buffer@__crt_stdio_output@@QEAA@XZ 0000000140015bd0 f i libucrtd:output.obj
 0001:00014c00       ??1guard@?$cached@H@__crt_cached_ptd_host@@QEAA@XZ 0000000140015c00 f i libucrtd:output.obj
 0001:00014c30       ??4?$__crt_unique_heap_ptr@DU__crt_internal_free_policy@@@@QEAAAEAV0@$$QEAV0@@Z 0000000140015c30 f i libucrtd:output.obj
 0001:00014c70       ??A?$spectre_mitigated_lookup_table@Ustate_transition_pair@__crt_stdio_output@@$0IA@@__crt_stdio_output@@QEBAAEBUstate_transition_pair@1@_K@Z 0000000140015c70 f i libucrtd:output.obj
 0001:00014db0       ?adjust_hexit@?$output_processor@DV?$stream_output_adapter@D@__crt_stdio_output@@V?$standard_base@DV?$stream_output_adapter@D@__crt_stdio_output@@@2@@__crt_stdio_output@@CADH_N@Z 0000000140015db0 f i libucrtd:output.obj
 0001:00014db0       ?adjust_hexit@?$output_processor@DV?$string_output_adapter@D@__crt_stdio_output@@V?$format_validation_base@DV?$string_output_adapter@D@__crt_stdio_output@@@2@@__crt_stdio_output@@CADH_N@Z 0000000140015db0 f i libucrtd:output.obj
 0001:00014db0       ?adjust_hexit@?$output_processor@_WV?$string_output_adapter@_W@__crt_stdio_output@@V?$format_validation_base@_WV?$string_output_adapter@_W@__crt_stdio_output@@@2@@__crt_stdio_output@@CADH_N@Z 0000000140015db0 f i libucrtd:output.obj
 0001:00014e00       ?advance_to_next_pass@?$standard_base@DV?$stream_output_adapter@D@__crt_stdio_output@@@__crt_stdio_output@@IEAA_NXZ 0000000140015e00 f i libucrtd:output.obj
 0001:00014e00       ?advance_to_next_pass@?$standard_base@DV?$string_output_adapter@D@__crt_stdio_output@@@__crt_stdio_output@@IEAA_NXZ 0000000140015e00 f i libucrtd:output.obj
 0001:00014e00       ?advance_to_next_pass@?$standard_base@_WV?$string_output_adapter@_W@__crt_stdio_output@@@__crt_stdio_output@@IEAA_NXZ 0000000140015e00 f i libucrtd:output.obj
 0001:00014e50       ?check@?$cached@H@__crt_cached_ptd_host@@QEBA_NH@Z 0000000140015e50 f i libucrtd:output.obj
 0001:00014e50       ?check@?$cached@K@__crt_cached_ptd_host@@QEBA_NK@Z 0000000140015e50 f i libucrtd:chsize.obj
 0001:00014e90       ?create_guard@?$cached@H@__crt_cached_ptd_host@@QEAA?AVguard@12@XZ 0000000140015e90 f i libucrtd:output.obj
 0001:00014ec0       ?crop_zeroes@__crt_stdio_output@@YAXPEADQEAU__crt_locale_pointers@@@Z 0000000140015ec0 f i libucrtd:output.obj
 0001:00015010       ?disable@guard@?$cached@H@__crt_cached_ptd_host@@QEAAXXZ 0000000140016010 f i libucrtd:output.obj
 0001:00015020       ?enable@guard@?$cached@H@__crt_cached_ptd_host@@QEAAXXZ 0000000140016020 f i libucrtd:output.obj
 0001:00015030       ?find_next_state@?$output_processor@DV?$stream_output_adapter@D@__crt_stdio_output@@V?$standard_base@DV?$stream_output_adapter@D@__crt_stdio_output@@@2@@__crt_stdio_output@@AEBA?AW4state@2@DW432@@Z 0000000140016030 f i libucrtd:output.obj
 0001:000150d0       ?find_next_state@?$output_processor@DV?$string_output_adapter@D@__crt_stdio_output@@V?$format_validation_base@DV?$string_output_adapter@D@__crt_stdio_output@@@2@@__crt_stdio_output@@AEBA?AW4state@2@DW432@@Z 00000001400160d0 f i libucrtd:output.obj
 0001:00015170       ?find_next_state@?$output_processor@_WV?$string_output_adapter@_W@__crt_stdio_output@@V?$format_validation_base@_WV?$string_output_adapter@_W@__crt_stdio_output@@@2@@__crt_stdio_output@@AEBA?AW4state@2@_WW432@@Z 0000000140016170 f i libucrtd:output.obj
 0001:00015210       ?force_decimal_point@__crt_stdio_output@@YAXPEADQEAU__crt_locale_pointers@@@Z 0000000140016210 f i libucrtd:output.obj
 0001:00015310       ?get@?$c_string_character_source@D@__crt_strtox@@QEAADXZ 0000000140016310 f i libucrtd:output.obj
 0001:00015350       ?get@?$c_string_character_source@_W@__crt_strtox@@QEAA_WXZ 0000000140016350 f i libucrtd:output.obj
 0001:00015390       ?get_locale@__crt_cached_ptd_host@@QEAAPEAU__crt_locale_pointers@@XZ 0000000140016390 f i libucrtd:output.obj
 0001:000153c0       ?has_flag@?$output_processor@DV?$stream_output_adapter@D@__crt_stdio_output@@V?$standard_base@DV?$stream_output_adapter@D@__crt_stdio_output@@@2@@__crt_stdio_output@@AEBA_NI@Z 00000001400163c0 f i libucrtd:output.obj
 0001:000153c0       ?has_flag@?$output_processor@DV?$string_output_adapter@D@__crt_stdio_output@@V?$format_validation_base@DV?$string_output_adapter@D@__crt_stdio_output@@@2@@__crt_stdio_output@@AEBA_NI@Z 00000001400163c0 f i libucrtd:output.obj
 0001:000153c0       ?has_flag@?$output_processor@_WV?$string_output_adapter@_W@__crt_stdio_output@@V?$format_validation_base@_WV?$string_output_adapter@_W@__crt_stdio_output@@@2@@__crt_stdio_output@@AEBA_NI@Z 00000001400163c0 f i libucrtd:output.obj
 0001:00015400       ?maximum_signed_value@__crt_strtox@@YAJK@Z 0000000140016400 f i libucrtd:output.obj
 0001:00015410       ?minimum_signed_value@__crt_strtox@@YAJK@Z 0000000140016410 f i libucrtd:output.obj
 0001:00015420       ?narrow_null_string@?$output_processor@DV?$stream_output_adapter@D@__crt_stdio_output@@V?$standard_base@DV?$stream_output_adapter@D@__crt_stdio_output@@@2@@__crt_stdio_output@@CAPEADXZ 0000000140016420 f i libucrtd:output.obj
 0001:00015420       ?narrow_null_string@?$output_processor@DV?$string_output_adapter@D@__crt_stdio_output@@V?$format_validation_base@DV?$string_output_adapter@D@__crt_stdio_output@@@2@@__crt_stdio_output@@CAPEADXZ 0000000140016420 f i libucrtd:output.obj
 0001:00015420       ?narrow_null_string@?$output_processor@_WV?$string_output_adapter@_W@__crt_stdio_output@@V?$format_validation_base@_WV?$string_output_adapter@_W@__crt_stdio_output@@@2@@__crt_stdio_output@@CAPEADXZ 0000000140016420 f i libucrtd:output.obj
 0001:00015430       ?parse_digit@__crt_strtox@@YAID@Z 0000000140016430 f i libucrtd:output.obj
 0001:000154a0       ?parse_digit@__crt_strtox@@YAI_W@Z 00000001400164a0 f i libucrtd:output.obj
 0001:000154f0       ?parse_int_from_format_string@?$output_processor@DV?$stream_output_adapter@D@__crt_stdio_output@@V?$standard_base@DV?$stream_output_adapter@D@__crt_stdio_output@@@2@@__crt_stdio_output@@AEAA_NQEAH@Z 00000001400164f0 f i libucrtd:output.obj
 0001:000154f0       ?parse_int_from_format_string@?$output_processor@DV?$string_output_adapter@D@__crt_stdio_output@@V?$format_validation_base@DV?$string_output_adapter@D@__crt_stdio_output@@@2@@__crt_stdio_output@@AEAA_NQEAH@Z 00000001400164f0 f i libucrtd:output.obj
 0001:000155f0       ?parse_int_from_format_string@?$output_processor@_WV?$string_output_adapter@_W@__crt_stdio_output@@V?$format_validation_base@_WV?$string_output_adapter@_W@__crt_stdio_output@@@2@@__crt_stdio_output@@AEAA_NQEAH@Z 00000001400165f0 f i libucrtd:output.obj
 0001:000156f0       ?process@?$output_processor@DV?$stream_output_adapter@D@__crt_stdio_output@@V?$standard_base@DV?$stream_output_adapter@D@__crt_stdio_output@@@2@@__crt_stdio_output@@QEAAHXZ 00000001400166f0 f i libucrtd:output.obj
 0001:00015ab0       ?process@?$output_processor@DV?$string_output_adapter@D@__crt_stdio_output@@V?$format_validation_base@DV?$string_output_adapter@D@__crt_stdio_output@@@2@@__crt_stdio_output@@QEAAHXZ 0000000140016ab0 f i libucrtd:output.obj
 0001:00015e70       ?process@?$output_processor@_WV?$string_output_adapter@_W@__crt_stdio_output@@V?$format_validation_base@_WV?$string_output_adapter@_W@__crt_stdio_output@@@2@@__crt_stdio_output@@QEAAHXZ 0000000140016e70 f i libucrtd:output.obj
 0001:00016230       ?restore_state@?$c_string_character_source@D@__crt_strtox@@QEAA_NQEBD@Z 0000000140017230 f i libucrtd:output.obj
 0001:00016230       ?restore_state@?$c_string_character_source@_W@__crt_strtox@@QEAA_NQEB_W@Z 0000000140017230 f i libucrtd:output.obj
 0001:00016250       ?set_flag@?$output_processor@DV?$stream_output_adapter@D@__crt_stdio_output@@V?$standard_base@DV?$stream_output_adapter@D@__crt_stdio_output@@@2@@__crt_stdio_output@@AEAAXI@Z 0000000140017250 f i libucrtd:output.obj
 0001:00016250       ?set_flag@?$output_processor@DV?$string_output_adapter@D@__crt_stdio_output@@V?$format_validation_base@DV?$string_output_adapter@D@__crt_stdio_output@@@2@@__crt_stdio_output@@AEAAXI@Z 0000000140017250 f i libucrtd:output.obj
 0001:00016250       ?set_flag@?$output_processor@_WV?$string_output_adapter@_W@__crt_stdio_output@@V?$format_validation_base@_WV?$string_output_adapter@_W@__crt_stdio_output@@@2@@__crt_stdio_output@@AEAAXI@Z 0000000140017250 f i libucrtd:output.obj
 0001:00016270       ?should_format@?$standard_base@DV?$stream_output_adapter@D@__crt_stdio_output@@@__crt_stdio_output@@IEAA_NXZ 0000000140017270 f i libucrtd:output.obj
 0001:00016270       ?should_format@?$standard_base@DV?$string_output_adapter@D@__crt_stdio_output@@@__crt_stdio_output@@IEAA_NXZ 0000000140017270 f i libucrtd:output.obj
 0001:00016270       ?should_format@?$standard_base@_WV?$string_output_adapter@_W@__crt_stdio_output@@@__crt_stdio_output@@IEAA_NXZ 0000000140017270 f i libucrtd:output.obj
 0001:00016270       ?validate_and_update_state_at_beginning_of_format_character@?$standard_base@DV?$stream_output_adapter@D@__crt_stdio_output@@@__crt_stdio_output@@IEAA_NXZ 0000000140017270 f i libucrtd:output.obj
 0001:00016270       ?validate_and_update_state_at_beginning_of_format_character@?$standard_base@DV?$string_output_adapter@D@__crt_stdio_output@@@__crt_stdio_output@@IEAA_NXZ 0000000140017270 f i libucrtd:output.obj
 0001:00016270       ?validate_and_update_state_at_beginning_of_format_character@?$standard_base@_WV?$string_output_adapter@_W@__crt_stdio_output@@@__crt_stdio_output@@IEAA_NXZ 0000000140017270 f i libucrtd:output.obj
 0001:00016270       ?validate_and_update_state_at_end_of_format_string@?$standard_base@DV?$stream_output_adapter@D@__crt_stdio_output@@@__crt_stdio_output@@IEBA_NXZ 0000000140017270 f i libucrtd:output.obj
 0001:00016270       ?validate_state_for_type_case_a@?$standard_base@DV?$stream_output_adapter@D@__crt_stdio_output@@@__crt_stdio_output@@IEBA_NXZ 0000000140017270 f i libucrtd:output.obj
 0001:00016270       ?validate_state_for_type_case_a@?$standard_base@DV?$string_output_adapter@D@__crt_stdio_output@@@__crt_stdio_output@@IEBA_NXZ 0000000140017270 f i libucrtd:output.obj
 0001:00016270       ?validate_state_for_type_case_a@?$standard_base@_WV?$string_output_adapter@_W@__crt_stdio_output@@@__crt_stdio_output@@IEBA_NXZ 0000000140017270 f i libucrtd:output.obj
 0001:00016280       ?should_skip_normal_state_processing@?$standard_base@DV?$stream_output_adapter@D@__crt_stdio_output@@@__crt_stdio_output@@IEAA_NXZ 0000000140017280 f i libucrtd:output.obj
 0001:00016280       ?should_skip_normal_state_processing@?$standard_base@DV?$string_output_adapter@D@__crt_stdio_output@@@__crt_stdio_output@@IEAA_NXZ 0000000140017280 f i libucrtd:output.obj
 0001:00016280       ?should_skip_normal_state_processing@?$standard_base@_WV?$string_output_adapter@_W@__crt_stdio_output@@@__crt_stdio_output@@IEAA_NXZ 0000000140017280 f i libucrtd:output.obj
 0001:00016280       ?should_skip_type_state_output@?$standard_base@DV?$stream_output_adapter@D@__crt_stdio_output@@@__crt_stdio_output@@IEBA_NXZ 0000000140017280 f i libucrtd:output.obj
 0001:00016280       ?should_skip_type_state_output@?$standard_base@DV?$string_output_adapter@D@__crt_stdio_output@@@__crt_stdio_output@@IEBA_NXZ 0000000140017280 f i libucrtd:output.obj
 0001:00016280       ?should_skip_type_state_output@?$standard_base@_WV?$string_output_adapter@_W@__crt_stdio_output@@@__crt_stdio_output@@IEBA_NXZ 0000000140017280 f i libucrtd:output.obj
 0001:00016290       ?state_case_dot@?$output_processor@DV?$stream_output_adapter@D@__crt_stdio_output@@V?$standard_base@DV?$stream_output_adapter@D@__crt_stdio_output@@@2@@__crt_stdio_output@@AEAA_NXZ 0000000140017290 f i libucrtd:output.obj
 0001:00016290       ?state_case_dot@?$output_processor@DV?$string_output_adapter@D@__crt_stdio_output@@V?$format_validation_base@DV?$string_output_adapter@D@__crt_stdio_output@@@2@@__crt_stdio_output@@AEAA_NXZ 0000000140017290 f i libucrtd:output.obj
 0001:00016290       ?state_case_dot@?$output_processor@_WV?$string_output_adapter@_W@__crt_stdio_output@@V?$format_validation_base@_WV?$string_output_adapter@_W@__crt_stdio_output@@@2@@__crt_stdio_output@@AEAA_NXZ 0000000140017290 f i libucrtd:output.obj
 0001:000162b0       ?state_case_flag@?$output_processor@DV?$stream_output_adapter@D@__crt_stdio_output@@V?$standard_base@DV?$stream_output_adapter@D@__crt_stdio_output@@@2@@__crt_stdio_output@@AEAA_NXZ 00000001400172b0 f i libucrtd:output.obj
 0001:000162b0       ?state_case_flag@?$output_processor@DV?$string_output_adapter@D@__crt_stdio_output@@V?$format_validation_base@DV?$string_output_adapter@D@__crt_stdio_output@@@2@@__crt_stdio_output@@AEAA_NXZ 00000001400172b0 f i libucrtd:output.obj
 0001:00016350       ?state_case_flag@?$output_processor@_WV?$string_output_adapter@_W@__crt_stdio_output@@V?$format_validation_base@_WV?$string_output_adapter@_W@__crt_stdio_output@@@2@@__crt_stdio_output@@AEAA_NXZ 0000000140017350 f i libucrtd:output.obj
 0001:000163f0       ?state_case_normal@?$output_processor@DV?$stream_output_adapter@D@__crt_stdio_output@@V?$standard_base@DV?$stream_output_adapter@D@__crt_stdio_output@@@2@@__crt_stdio_output@@AEAA_NXZ 00000001400173f0 f i libucrtd:output.obj
 0001:000164f0       ?state_case_normal@?$output_processor@DV?$string_output_adapter@D@__crt_stdio_output@@V?$format_validation_base@DV?$string_output_adapter@D@__crt_stdio_output@@@2@@__crt_stdio_output@@AEAA_NXZ 00000001400174f0 f i libucrtd:output.obj
 0001:000165f0       ?state_case_normal@?$output_processor@_WV?$string_output_adapter@_W@__crt_stdio_output@@V?$format_validation_base@_WV?$string_output_adapter@_W@__crt_stdio_output@@@2@@__crt_stdio_output@@AEAA_NXZ 00000001400175f0 f i libucrtd:output.obj
 0001:000166f0       ?state_case_normal_common@?$output_processor@DV?$stream_output_adapter@D@__crt_stdio_output@@V?$standard_base@DV?$stream_output_adapter@D@__crt_stdio_output@@@2@@__crt_stdio_output@@AEAA_NXZ 00000001400176f0 f i libucrtd:output.obj
 0001:00016750       ?state_case_normal_common@?$output_processor@DV?$string_output_adapter@D@__crt_stdio_output@@V?$format_validation_base@DV?$string_output_adapter@D@__crt_stdio_output@@@2@@__crt_stdio_output@@AEAA_NXZ 0000000140017750 f i libucrtd:output.obj
 0001:000167b0       ?state_case_normal_common@?$output_processor@_WV?$string_output_adapter@_W@__crt_stdio_output@@V?$format_validation_base@_WV?$string_output_adapter@_W@__crt_stdio_output@@@2@@__crt_stdio_output@@AEAA_NXZ 00000001400177b0 f i libucrtd:output.obj
 0001:00016810       ?state_case_normal_tchar@?$output_processor@DV?$stream_output_adapter@D@__crt_stdio_output@@V?$standard_base@DV?$stream_output_adapter@D@__crt_stdio_output@@@2@@__crt_stdio_output@@AEAA_ND@Z 0000000140017810 f i libucrtd:output.obj
 0001:000169a0       ?state_case_normal_tchar@?$output_processor@DV?$string_output_adapter@D@__crt_stdio_output@@V?$format_validation_base@DV?$string_output_adapter@D@__crt_stdio_output@@@2@@__crt_stdio_output@@AEAA_ND@Z 00000001400179a0 f i libucrtd:output.obj
 0001:00016b30       ?state_case_normal_tchar@?$output_processor@_WV?$string_output_adapter@_W@__crt_stdio_output@@V?$format_validation_base@_WV?$string_output_adapter@_W@__crt_stdio_output@@@2@@__crt_stdio_output@@AEAA_N_W@Z 0000000140017b30 f i libucrtd:output.obj
 0001:00016b50       ?state_case_percent@?$output_processor@DV?$stream_output_adapter@D@__crt_stdio_output@@V?$standard_base@DV?$stream_output_adapter@D@__crt_stdio_output@@@2@@__crt_stdio_output@@AEAA_NXZ 0000000140017b50 f i libucrtd:output.obj
 0001:00016b50       ?state_case_percent@?$output_processor@DV?$string_output_adapter@D@__crt_stdio_output@@V?$format_validation_base@DV?$string_output_adapter@D@__crt_stdio_output@@@2@@__crt_stdio_output@@AEAA_NXZ 0000000140017b50 f i libucrtd:output.obj
 0001:00016b50       ?state_case_percent@?$output_processor@_WV?$string_output_adapter@_W@__crt_stdio_output@@V?$format_validation_base@_WV?$string_output_adapter@_W@__crt_stdio_output@@@2@@__crt_stdio_output@@AEAA_NXZ 0000000140017b50 f i libucrtd:output.obj
 0001:00016ba0       ?state_case_precision@?$output_processor@DV?$stream_output_adapter@D@__crt_stdio_output@@V?$standard_base@DV?$stream_output_adapter@D@__crt_stdio_output@@@2@@__crt_stdio_output@@AEAA_NXZ 0000000140017ba0 f i libucrtd:output.obj
 0001:00016ba0       ?state_case_precision@?$output_processor@DV?$string_output_adapter@D@__crt_stdio_output@@V?$format_validation_base@DV?$string_output_adapter@D@__crt_stdio_output@@@2@@__crt_stdio_output@@AEAA_NXZ 0000000140017ba0 f i libucrtd:output.obj
 0001:00016c20       ?state_case_precision@?$output_processor@_WV?$string_output_adapter@_W@__crt_stdio_output@@V?$format_validation_base@_WV?$string_output_adapter@_W@__crt_stdio_output@@@2@@__crt_stdio_output@@AEAA_NXZ 0000000140017c20 f i libucrtd:output.obj
 0001:00016ca0       ?state_case_size@?$output_processor@DV?$stream_output_adapter@D@__crt_stdio_output@@V?$standard_base@DV?$stream_output_adapter@D@__crt_stdio_output@@@2@@__crt_stdio_output@@AEAA_NXZ 0000000140017ca0 f i libucrtd:output.obj
 0001:00017160       ?state_case_size@?$output_processor@DV?$string_output_adapter@D@__crt_stdio_output@@V?$format_validation_base@DV?$string_output_adapter@D@__crt_stdio_output@@@2@@__crt_stdio_output@@AEAA_NXZ 0000000140018160 f i libucrtd:output.obj
 0001:00017620       ?state_case_size@?$output_processor@_WV?$string_output_adapter@_W@__crt_stdio_output@@V?$format_validation_base@_WV?$string_output_adapter@_W@__crt_stdio_output@@@2@@__crt_stdio_output@@AEAA_NXZ 0000000140018620 f i libucrtd:output.obj
 0001:00017ae0       ?state_case_type@?$output_processor@DV?$stream_output_adapter@D@__crt_stdio_output@@V?$standard_base@DV?$stream_output_adapter@D@__crt_stdio_output@@@2@@__crt_stdio_output@@AEAA_NXZ 0000000140018ae0 f i libucrtd:output.obj
 0001:00017fa0       ?state_case_type@?$output_processor@DV?$string_output_adapter@D@__crt_stdio_output@@V?$format_validation_base@DV?$string_output_adapter@D@__crt_stdio_output@@@2@@__crt_stdio_output@@AEAA_NXZ 0000000140018fa0 f i libucrtd:output.obj
 0001:00018460       ?state_case_type@?$output_processor@_WV?$string_output_adapter@_W@__crt_stdio_output@@V?$format_validation_base@_WV?$string_output_adapter@_W@__crt_stdio_output@@@2@@__crt_stdio_output@@AEAA_NXZ 0000000140019460 f i libucrtd:output.obj
 0001:000189f0       ?state_case_width@?$output_processor@DV?$stream_output_adapter@D@__crt_stdio_output@@V?$standard_base@DV?$stream_output_adapter@D@__crt_stdio_output@@@2@@__crt_stdio_output@@AEAA_NXZ 00000001400199f0 f i libucrtd:output.obj
 0001:000189f0       ?state_case_width@?$output_processor@DV?$string_output_adapter@D@__crt_stdio_output@@V?$format_validation_base@DV?$string_output_adapter@D@__crt_stdio_output@@@2@@__crt_stdio_output@@AEAA_NXZ 00000001400199f0 f i libucrtd:output.obj
 0001:00018a80       ?state_case_width@?$output_processor@_WV?$string_output_adapter@_W@__crt_stdio_output@@V?$format_validation_base@_WV?$string_output_adapter@_W@__crt_stdio_output@@@2@@__crt_stdio_output@@AEAA_NXZ 0000000140019a80 f i libucrtd:output.obj
 0001:00018b10       ?state_count@?$format_validation_base@DV?$string_output_adapter@D@__crt_stdio_output@@@__crt_stdio_output@@KAIXZ 0000000140019b10 f i libucrtd:output.obj
 0001:00018b10       ?state_count@?$format_validation_base@_WV?$string_output_adapter@_W@__crt_stdio_output@@@__crt_stdio_output@@KAIXZ 0000000140019b10 f i libucrtd:output.obj
 0001:00018b20       ?state_count@?$standard_base@DV?$stream_output_adapter@D@__crt_stdio_output@@@__crt_stdio_output@@KAIXZ 0000000140019b20 f i libucrtd:output.obj
 0001:00018b30       ?state_transition_table@?$format_validation_base@DV?$string_output_adapter@D@__crt_stdio_output@@@__crt_stdio_output@@KAAEBV?$spectre_mitigated_lookup_table@Ustate_transition_pair@__crt_stdio_output@@$0IA@@2@XZ 0000000140019b30 f i libucrtd:output.obj
 0001:00018b30       ?state_transition_table@?$format_validation_base@_WV?$string_output_adapter@_W@__crt_stdio_output@@@__crt_stdio_output@@KAAEBV?$spectre_mitigated_lookup_table@Ustate_transition_pair@__crt_stdio_output@@$0IA@@2@XZ 0000000140019b30 f i libucrtd:output.obj
 0001:00018b40       ?state_transition_table@?$standard_base@DV?$stream_output_adapter@D@__crt_stdio_output@@@__crt_stdio_output@@KAAEBV?$spectre_mitigated_lookup_table@Ustate_transition_pair@__crt_stdio_output@@$0IA@@2@XZ 0000000140019b40 f i libucrtd:output.obj
 0001:00018b50       ?tchar_string@?$common_data@D@__crt_stdio_output@@IEAAAEAPEADD@Z 0000000140019b50 f i libucrtd:output.obj
 0001:00018b70       ?tchar_string@?$common_data@D@__crt_stdio_output@@IEAAAEAPEADXZ 0000000140019b70 f i libucrtd:output.obj
 0001:00018b90       ?tchar_string@?$common_data@_W@__crt_stdio_output@@IEAAAEAPEA_WXZ 0000000140019b90 f i libucrtd:output.obj
 0001:00018bb0       ?tchar_string@?$common_data@_W@__crt_stdio_output@@IEAAAEAPEA_W_W@Z 0000000140019bb0 f i libucrtd:output.obj
 0001:00018bd0       ?to_integer_size@__crt_stdio_output@@YA_KW4length_modifier@1@@Z 0000000140019bd0 f i libucrtd:output.obj
 0001:00018c80       ?type_case_X@?$output_processor@DV?$stream_output_adapter@D@__crt_stdio_output@@V?$standard_base@DV?$stream_output_adapter@D@__crt_stdio_output@@@2@@__crt_stdio_output@@AEAA_NXZ 0000000140019c80 f i libucrtd:output.obj
 0001:00018ca0       ?type_case_X@?$output_processor@DV?$string_output_adapter@D@__crt_stdio_output@@V?$format_validation_base@DV?$string_output_adapter@D@__crt_stdio_output@@@2@@__crt_stdio_output@@AEAA_NXZ 0000000140019ca0 f i libucrtd:output.obj
 0001:00018cc0       ?type_case_X@?$output_processor@_WV?$string_output_adapter@_W@__crt_stdio_output@@V?$format_validation_base@_WV?$string_output_adapter@_W@__crt_stdio_output@@@2@@__crt_stdio_output@@AEAA_NXZ 0000000140019cc0 f i libucrtd:output.obj
 0001:00018ce0       ?type_case_Z@?$output_processor@DV?$stream_output_adapter@D@__crt_stdio_output@@V?$standard_base@DV?$stream_output_adapter@D@__crt_stdio_output@@@2@@__crt_stdio_output@@AEAA_NXZ 0000000140019ce0 f i libucrtd:output.obj
 0001:00018ce0       ?type_case_Z@?$output_processor@DV?$string_output_adapter@D@__crt_stdio_output@@V?$format_validation_base@DV?$string_output_adapter@D@__crt_stdio_output@@@2@@__crt_stdio_output@@AEAA_NXZ 0000000140019ce0 f i libucrtd:output.obj
 0001:00018e00       ?type_case_Z@?$output_processor@_WV?$string_output_adapter@_W@__crt_stdio_output@@V?$format_validation_base@_WV?$string_output_adapter@_W@__crt_stdio_output@@@2@@__crt_stdio_output@@AEAA_NXZ 0000000140019e00 f i libucrtd:output.obj
 0001:00018f20       ?type_case_a@?$output_processor@DV?$stream_output_adapter@D@__crt_stdio_output@@V?$standard_base@DV?$stream_output_adapter@D@__crt_stdio_output@@@2@@__crt_stdio_output@@AEAA_NXZ 0000000140019f20 f i libucrtd:output.obj
 0001:00018f20       ?type_case_a@?$output_processor@DV?$string_output_adapter@D@__crt_stdio_output@@V?$format_validation_base@DV?$string_output_adapter@D@__crt_stdio_output@@@2@@__crt_stdio_output@@AEAA_NXZ 0000000140019f20 f i libucrtd:output.obj
 0001:00019380       ?type_case_a@?$output_processor@_WV?$string_output_adapter@_W@__crt_stdio_output@@V?$format_validation_base@_WV?$string_output_adapter@_W@__crt_stdio_output@@@2@@__crt_stdio_output@@AEAA_NXZ 000000014001a380 f i libucrtd:output.obj
 0001:000197f0       ?type_case_c@?$output_processor@DV?$stream_output_adapter@D@__crt_stdio_output@@V?$standard_base@DV?$stream_output_adapter@D@__crt_stdio_output@@@2@@__crt_stdio_output@@AEAA_NXZ 000000014001a7f0 f i libucrtd:output.obj
 0001:000197f0       ?type_case_c@?$output_processor@DV?$string_output_adapter@D@__crt_stdio_output@@V?$format_validation_base@DV?$string_output_adapter@D@__crt_stdio_output@@@2@@__crt_stdio_output@@AEAA_NXZ 000000014001a7f0 f i libucrtd:output.obj
 0001:00019810       ?type_case_c@?$output_processor@_WV?$string_output_adapter@_W@__crt_stdio_output@@V?$format_validation_base@_WV?$string_output_adapter@_W@__crt_stdio_output@@@2@@__crt_stdio_output@@AEAA_NXZ 000000014001a810 f i libucrtd:output.obj
 0001:00019830       ?type_case_c_tchar@?$output_processor@DV?$stream_output_adapter@D@__crt_stdio_output@@V?$standard_base@DV?$stream_output_adapter@D@__crt_stdio_output@@@2@@__crt_stdio_output@@AEAA_ND@Z 000000014001a830 f i libucrtd:output.obj
 0001:00019830       ?type_case_c_tchar@?$output_processor@DV?$string_output_adapter@D@__crt_stdio_output@@V?$format_validation_base@DV?$string_output_adapter@D@__crt_stdio_output@@@2@@__crt_stdio_output@@AEAA_ND@Z 000000014001a830 f i libucrtd:output.obj
 0001:000199a0       ?type_case_c_tchar@?$output_processor@_WV?$string_output_adapter@_W@__crt_stdio_output@@V?$format_validation_base@_WV?$string_output_adapter@_W@__crt_stdio_output@@@2@@__crt_stdio_output@@AEAA_N_W@Z 000000014001a9a0 f i libucrtd:output.obj
 0001:00019b00       ?type_case_d@?$output_processor@DV?$stream_output_adapter@D@__crt_stdio_output@@V?$standard_base@DV?$stream_output_adapter@D@__crt_stdio_output@@@2@@__crt_stdio_output@@AEAA_NXZ 000000014001ab00 f i libucrtd:output.obj
 0001:00019b30       ?type_case_d@?$output_processor@DV?$string_output_adapter@D@__crt_stdio_output@@V?$format_validation_base@DV?$string_output_adapter@D@__crt_stdio_output@@@2@@__crt_stdio_output@@AEAA_NXZ 000000014001ab30 f i libucrtd:output.obj
 0001:00019b60       ?type_case_d@?$output_processor@_WV?$string_output_adapter@_W@__crt_stdio_output@@V?$format_validation_base@_WV?$string_output_adapter@_W@__crt_stdio_output@@@2@@__crt_stdio_output@@AEAA_NXZ 000000014001ab60 f i libucrtd:output.obj
 0001:00019b90       ?type_case_n@?$output_processor@DV?$stream_output_adapter@D@__crt_stdio_output@@V?$standard_base@DV?$stream_output_adapter@D@__crt_stdio_output@@@2@@__crt_stdio_output@@AEAA_NXZ 000000014001ab90 f i libucrtd:output.obj
 0001:00019e20       ?type_case_n@?$output_processor@DV?$string_output_adapter@D@__crt_stdio_output@@V?$format_validation_base@DV?$string_output_adapter@D@__crt_stdio_output@@@2@@__crt_stdio_output@@AEAA_NXZ 000000014001ae20 f i libucrtd:output.obj
 0001:0001a0b0       ?type_case_n@?$output_processor@_WV?$string_output_adapter@_W@__crt_stdio_output@@V?$format_validation_base@_WV?$string_output_adapter@_W@__crt_stdio_output@@@2@@__crt_stdio_output@@AEAA_NXZ 000000014001b0b0 f i libucrtd:output.obj
 0001:0001a340       ?type_case_o@?$output_processor@DV?$stream_output_adapter@D@__crt_stdio_output@@V?$standard_base@DV?$stream_output_adapter@D@__crt_stdio_output@@@2@@__crt_stdio_output@@AEAA_NXZ 000000014001b340 f i libucrtd:output.obj
 0001:0001a380       ?type_case_o@?$output_processor@DV?$string_output_adapter@D@__crt_stdio_output@@V?$format_validation_base@DV?$string_output_adapter@D@__crt_stdio_output@@@2@@__crt_stdio_output@@AEAA_NXZ 000000014001b380 f i libucrtd:output.obj
 0001:0001a3c0       ?type_case_o@?$output_processor@_WV?$string_output_adapter@_W@__crt_stdio_output@@V?$format_validation_base@_WV?$string_output_adapter@_W@__crt_stdio_output@@@2@@__crt_stdio_output@@AEAA_NXZ 000000014001b3c0 f i libucrtd:output.obj
 0001:0001a400       ?type_case_p@?$output_processor@DV?$stream_output_adapter@D@__crt_stdio_output@@V?$standard_base@DV?$stream_output_adapter@D@__crt_stdio_output@@@2@@__crt_stdio_output@@AEAA_NXZ 000000014001b400 f i libucrtd:output.obj
 0001:0001a440       ?type_case_p@?$output_processor@DV?$string_output_adapter@D@__crt_stdio_output@@V?$format_validation_base@DV?$string_output_adapter@D@__crt_stdio_output@@@2@@__crt_stdio_output@@AEAA_NXZ 000000014001b440 f i libucrtd:output.obj
 0001:0001a480       ?type_case_p@?$output_processor@_WV?$string_output_adapter@_W@__crt_stdio_output@@V?$format_validation_base@_WV?$string_output_adapter@_W@__crt_stdio_output@@@2@@__crt_stdio_output@@AEAA_NXZ 000000014001b480 f i libucrtd:output.obj
 0001:0001a4c0       ?type_case_s@?$output_processor@DV?$stream_output_adapter@D@__crt_stdio_output@@V?$standard_base@DV?$stream_output_adapter@D@__crt_stdio_output@@@2@@__crt_stdio_output@@AEAA_NXZ 000000014001b4c0 f i libucrtd:output.obj
 0001:0001a4c0       ?type_case_s@?$output_processor@DV?$string_output_adapter@D@__crt_stdio_output@@V?$format_validation_base@DV?$string_output_adapter@D@__crt_stdio_output@@@2@@__crt_stdio_output@@AEAA_NXZ 000000014001b4c0 f i libucrtd:output.obj
 0001:0001a5e0       ?type_case_s@?$output_processor@_WV?$string_output_adapter@_W@__crt_stdio_output@@V?$format_validation_base@_WV?$string_output_adapter@_W@__crt_stdio_output@@@2@@__crt_stdio_output@@AEAA_NXZ 000000014001b5e0 f i libucrtd:output.obj
 0001:0001a700       ?type_case_s_compute_narrow_string_length@?$output_processor@DV?$stream_output_adapter@D@__crt_stdio_output@@V?$standard_base@DV?$stream_output_adapter@D@__crt_stdio_output@@@2@@__crt_stdio_output@@AEAAHHD@Z 000000014001b700 f i libucrtd:output.obj
 0001:0001a700       ?type_case_s_compute_narrow_string_length@?$output_processor@DV?$string_output_adapter@D@__crt_stdio_output@@V?$format_validation_base@DV?$string_output_adapter@D@__crt_stdio_output@@@2@@__crt_stdio_output@@AEAAHHD@Z 000000014001b700 f i libucrtd:output.obj
 0001:0001a730       ?type_case_s_compute_narrow_string_length@?$output_processor@_WV?$string_output_adapter@_W@__crt_stdio_output@@V?$format_validation_base@_WV?$string_output_adapter@_W@__crt_stdio_output@@@2@@__crt_stdio_output@@AEAAHH_W@Z 000000014001b730 f i libucrtd:output.obj
 0001:0001a7d0       ?type_case_u@?$output_processor@DV?$stream_output_adapter@D@__crt_stdio_output@@V?$standard_base@DV?$stream_output_adapter@D@__crt_stdio_output@@@2@@__crt_stdio_output@@AEAA_NXZ 000000014001b7d0 f i libucrtd:output.obj
 0001:0001a7f0       ?type_case_u@?$output_processor@DV?$string_output_adapter@D@__crt_stdio_output@@V?$format_validation_base@DV?$string_output_adapter@D@__crt_stdio_output@@@2@@__crt_stdio_output@@AEAA_NXZ 000000014001b7f0 f i libucrtd:output.obj
 0001:0001a810       ?type_case_u@?$output_processor@_WV?$string_output_adapter@_W@__crt_stdio_output@@V?$format_validation_base@_WV?$string_output_adapter@_W@__crt_stdio_output@@@2@@__crt_stdio_output@@AEAA_NXZ 000000014001b810 f i libucrtd:output.obj
 0001:0001a830       ?type_case_x@?$output_processor@DV?$stream_output_adapter@D@__crt_stdio_output@@V?$standard_base@DV?$stream_output_adapter@D@__crt_stdio_output@@@2@@__crt_stdio_output@@AEAA_NXZ 000000014001b830 f i libucrtd:output.obj
 0001:0001a850       ?type_case_x@?$output_processor@DV?$string_output_adapter@D@__crt_stdio_output@@V?$format_validation_base@DV?$string_output_adapter@D@__crt_stdio_output@@@2@@__crt_stdio_output@@AEAA_NXZ 000000014001b850 f i libucrtd:output.obj
 0001:0001a870       ?type_case_x@?$output_processor@_WV?$string_output_adapter@_W@__crt_stdio_output@@V?$format_validation_base@_WV?$string_output_adapter@_W@__crt_stdio_output@@@2@@__crt_stdio_output@@AEAA_NXZ 000000014001b870 f i libucrtd:output.obj
 0001:0001a890       ?unget@?$c_string_character_source@D@__crt_strtox@@QEAAXD@Z 000000014001b890 f i libucrtd:output.obj
 0001:0001a970       ?unget@?$c_string_character_source@_W@__crt_strtox@@QEAAX_W@Z 000000014001b970 f i libucrtd:output.obj
 0001:0001aa50       ?unset_flag@?$output_processor@DV?$stream_output_adapter@D@__crt_stdio_output@@V?$standard_base@DV?$stream_output_adapter@D@__crt_stdio_output@@@2@@__crt_stdio_output@@AEAAXI@Z 000000014001ba50 f i libucrtd:output.obj
 0001:0001aa50       ?unset_flag@?$output_processor@DV?$string_output_adapter@D@__crt_stdio_output@@V?$format_validation_base@DV?$string_output_adapter@D@__crt_stdio_output@@@2@@__crt_stdio_output@@AEAAXI@Z 000000014001ba50 f i libucrtd:output.obj
 0001:0001aa50       ?unset_flag@?$output_processor@_WV?$string_output_adapter@_W@__crt_stdio_output@@V?$format_validation_base@_WV?$string_output_adapter@_W@__crt_stdio_output@@@2@@__crt_stdio_output@@AEAAXI@Z 000000014001ba50 f i libucrtd:output.obj
 0001:0001aa80       ?update_field_width@?$standard_base@DV?$stream_output_adapter@D@__crt_stdio_output@@@__crt_stdio_output@@IEAA_NXZ 000000014001ba80 f i libucrtd:output.obj
 0001:0001aa80       ?update_field_width@?$standard_base@DV?$string_output_adapter@D@__crt_stdio_output@@@__crt_stdio_output@@IEAA_NXZ 000000014001ba80 f i libucrtd:output.obj
 0001:0001aa80       ?update_field_width@?$standard_base@_WV?$string_output_adapter@_W@__crt_stdio_output@@@__crt_stdio_output@@IEAA_NXZ 000000014001ba80 f i libucrtd:output.obj
 0001:0001aab0       ?update_locale@__crt_cached_ptd_host@@AEAAXXZ 000000014001bab0 f i libucrtd:output.obj
 0001:0001aae0       ?update_locale_slow@__crt_cached_ptd_host@@AEAAXXZ 000000014001bae0 f i libucrtd:output.obj
 0001:0001ab90       ?update_precision@?$standard_base@DV?$stream_output_adapter@D@__crt_stdio_output@@@__crt_stdio_output@@IEAA_NXZ 000000014001bb90 f i libucrtd:output.obj
 0001:0001ab90       ?update_precision@?$standard_base@DV?$string_output_adapter@D@__crt_stdio_output@@@__crt_stdio_output@@IEAA_NXZ 000000014001bb90 f i libucrtd:output.obj
 0001:0001ab90       ?update_precision@?$standard_base@_WV?$string_output_adapter@_W@__crt_stdio_output@@@__crt_stdio_output@@IEAA_NXZ 000000014001bb90 f i libucrtd:output.obj
 0001:0001abc0       ?validate@?$c_string_character_source@D@__crt_strtox@@QEBA_NXZ 000000014001bbc0 f i libucrtd:output.obj
 0001:0001ac80       ?validate@?$c_string_character_source@_W@__crt_strtox@@QEBA_NXZ 000000014001bc80 f i libucrtd:output.obj
 0001:0001ad40       ?validate@?$stream_output_adapter@D@__crt_stdio_output@@QEBA_NAEAV__crt_cached_ptd_host@@@Z 000000014001bd40 f i libucrtd:output.obj
 0001:0001ae40       ?validate@?$string_output_adapter@D@__crt_stdio_output@@QEBA_NAEAV__crt_cached_ptd_host@@@Z 000000014001be40 f i libucrtd:output.obj
 0001:0001af20       ?validate@?$string_output_adapter@_W@__crt_stdio_output@@QEBA_NAEAV__crt_cached_ptd_host@@@Z 000000014001bf20 f i libucrtd:output.obj
 0001:0001b000       ?validate_and_update_state_at_end_of_format_string@?$format_validation_base@DV?$string_output_adapter@D@__crt_stdio_output@@@__crt_stdio_output@@IEAA_NXZ 000000014001c000 f i libucrtd:output.obj
 0001:0001b0f0       ?validate_and_update_state_at_end_of_format_string@?$format_validation_base@_WV?$string_output_adapter@_W@__crt_stdio_output@@@__crt_stdio_output@@IEAA_NXZ 000000014001c0f0 f i libucrtd:output.obj
 0001:0001b1e0       ?validate_stream_is_ansi_if_required@?$__acrt_stdio_char_traits@D@@SA_NQEAU_iobuf@@@Z 000000014001c1e0 f i libucrtd:output.obj
 0001:0001b370       ?wide_character_to_digit@__crt_strtox@@YAH_W@Z 000000014001c370 f i libucrtd:output.obj
 0001:0001b6e0       ?wide_null_string@?$output_processor@DV?$stream_output_adapter@D@__crt_stdio_output@@V?$standard_base@DV?$stream_output_adapter@D@__crt_stdio_output@@@2@@__crt_stdio_output@@CAPEA_WXZ 000000014001c6e0 f i libucrtd:output.obj
 0001:0001b6e0       ?wide_null_string@?$output_processor@DV?$string_output_adapter@D@__crt_stdio_output@@V?$format_validation_base@DV?$string_output_adapter@D@__crt_stdio_output@@@2@@__crt_stdio_output@@CAPEA_WXZ 000000014001c6e0 f i libucrtd:output.obj
 0001:0001b6e0       ?wide_null_string@?$output_processor@_WV?$string_output_adapter@_W@__crt_stdio_output@@V?$format_validation_base@_WV?$string_output_adapter@_W@__crt_stdio_output@@@2@@__crt_stdio_output@@CAPEA_WXZ 000000014001c6e0 f i libucrtd:output.obj
 0001:0001b6f0       ?write_character@?$output_adapter_common@DV?$stream_output_adapter@D@__crt_stdio_output@@@__crt_stdio_output@@QEBAXDQEAHAEAV__crt_cached_ptd_host@@@Z 000000014001c6f0 f i libucrtd:output.obj
 0001:0001b750       ?write_character@?$string_output_adapter@D@__crt_stdio_output@@QEBA_NDQEAHAEAV__crt_cached_ptd_host@@@Z 000000014001c750 f i libucrtd:output.obj
 0001:0001b820       ?write_character@?$string_output_adapter@_W@__crt_stdio_output@@QEBA_N_WQEAHAEAV__crt_cached_ptd_host@@@Z 000000014001c820 f i libucrtd:output.obj
 0001:0001b8f0       ?write_character_without_count_update@?$stream_output_adapter@D@__crt_stdio_output@@QEBA_NDAEAV__crt_cached_ptd_host@@@Z 000000014001c8f0 f i libucrtd:output.obj
 0001:0001b980       ?write_stored_string_tchar@?$output_processor@DV?$stream_output_adapter@D@__crt_stdio_output@@V?$standard_base@DV?$stream_output_adapter@D@__crt_stdio_output@@@2@@__crt_stdio_output@@AEAA_ND@Z 000000014001c980 f i libucrtd:output.obj
 0001:0001bb30       ?write_stored_string_tchar@?$output_processor@DV?$string_output_adapter@D@__crt_stdio_output@@V?$format_validation_base@DV?$string_output_adapter@D@__crt_stdio_output@@@2@@__crt_stdio_output@@AEAA_ND@Z 000000014001cb30 f i libucrtd:output.obj
 0001:0001bce0       ?write_stored_string_tchar@?$output_processor@_WV?$string_output_adapter@_W@__crt_stdio_output@@V?$format_validation_base@_WV?$string_output_adapter@_W@__crt_stdio_output@@@2@@__crt_stdio_output@@AEAA_N_W@Z 000000014001cce0 f i libucrtd:output.obj
 0001:0001be40       ?write_string@?$stream_output_adapter@D@__crt_stdio_output@@QEBAXQEBDHQEAHAEAV__crt_cached_ptd_host@@@Z 000000014001ce40 f i libucrtd:output.obj
 0001:0001bec0       ?write_string@?$string_output_adapter@D@__crt_stdio_output@@QEBAXQEBDHQEAHAEAV__crt_cached_ptd_host@@@Z 000000014001cec0 f i libucrtd:output.obj
 0001:0001c030       ?write_string@?$string_output_adapter@_W@__crt_stdio_output@@QEBAXQEB_WHQEAHAEAV__crt_cached_ptd_host@@@Z 000000014001d030 f i libucrtd:output.obj
 0001:0001c1a0       ?write_string_impl@?$output_adapter_common@DV?$stream_output_adapter@D@__crt_stdio_output@@@__crt_stdio_output@@IEBAXQEBDHQEAHAEAV__crt_cached_ptd_host@@@Z 000000014001d1a0 f i libucrtd:output.obj
 0001:0001c2c0       __acrt_disable_global_locale_sync 000000014001d2c0 f i libucrtd:output.obj
 0001:0001c2f0       __acrt_isleadbyte_l_noupdate 000000014001d2f0 f i libucrtd:output.obj
 0001:0001c320       __acrt_locale_get_ctype_array_value 000000014001d320 f i libucrtd:output.obj
 0001:0001c360       __ascii_iswalpha           000000014001d360 f i libucrtd:output.obj
 0001:0001c3a0       __ascii_toupper            000000014001d3a0 f i libucrtd:output.obj
 0001:0001c3c0       __ascii_towupper           000000014001d3c0 f i libucrtd:output.obj
 0001:0001c3e0       __stdio_common_vfprintf    000000014001d3e0 f   libucrtd:output.obj
 0001:0001c460       __stdio_common_vsnprintf_s 000000014001d460 f   libucrtd:output.obj
 0001:0001c4f0       __stdio_common_vsnwprintf_s 000000014001d4f0 f   libucrtd:output.obj
 0001:0001c580       __stdio_common_vsprintf_s  000000014001d580 f   libucrtd:output.obj
 0001:0001c610       _ctype_fast_check_internal 000000014001d610 f i libucrtd:output.obj
 0001:0001c640       _isdigit_fast_internal     000000014001d640 f i libucrtd:output.obj
 0001:0001c670       _tolower_fast_internal     000000014001d670 f i libucrtd:output.obj
 0001:0001c6a0       free                       000000014001d6a0 f   libucrtd:free.obj
 0001:0001c6d0       malloc                     000000014001d6d0 f   libucrtd:malloc.obj
 0001:0001c770       _seh_filter_exe            000000014001d770 f   libucrtd:exception_filter.obj
 0001:0001cc10       __acrt_report_runtime_error 000000014001dc10 f   libucrtd:report_runtime_error.obj
 0001:0001ce90       _invoke_watson_if_error    000000014001de90 f i libucrtd:report_runtime_error.obj
 0001:0001cee0       _query_app_type            000000014001dee0 f   libucrtd:report_runtime_error.obj
 0001:0001cef0       _set_app_type              000000014001def0 f   libucrtd:report_runtime_error.obj
 0001:0001cf00       ??$__crt_fast_decode_pointer@P6AHPEAU_exception@@@Z@@YAP6AHPEAU_exception@@@ZQ6AH0@Z@Z 000000014001df00 f i libucrtd:matherr.obj
 0001:0001cf00       ??$__crt_fast_decode_pointer@P6AH_K@Z@@YAP6AH_K@ZQ6AH0@Z@Z 000000014001df00 f i libucrtd:new_handler.obj
 0001:0001cf00       ??$__crt_fast_decode_pointer@P6AXH@Z@@YAP6AXH@ZQ6AXH@Z@Z 000000014001df00 f i libucrtd:signal.obj
 0001:0001cf00       ??$__crt_fast_decode_pointer@P6AXPEAXK0@Z@@YAP6AXPEAXK0@ZQ6AX0K0@Z@Z 000000014001df00 f i libucrtd:exit.obj
 0001:0001cf00       ??$__crt_fast_decode_pointer@P6AXPEB_W00I_K@Z@@YAP6AXPEB_W00I_K@ZQ6AX000I1@Z@Z 000000014001df00 f i libucrtd:invalid_parameter.obj
 0001:0001cf00       ??$__crt_fast_decode_pointer@P6AXXZ@@YAP6AXXZQ6AXXZ@Z 000000014001df00 f i libucrtd:onexit.obj
 0001:0001cf00       ??$__crt_fast_decode_pointer@PEAP6AXXZ@@YAPEAP6AXXZQEAP6AXXZ@Z 000000014001df00 f i libucrtd:onexit.obj
 0001:0001cf00       ??$__crt_fast_decode_pointer@PEAX@@YAPEAXQEAX@Z 000000014001df00 f i libucrtd:winapi_thunks.obj
 0001:0001cf40       ??$__crt_fast_encode_pointer@P6AHPEAU_exception@@@Z@@YAP6AHPEAU_exception@@@ZQ6AH0@Z@Z 000000014001df40 f i libucrtd:matherr.obj
 0001:0001cf40       ??$__crt_fast_encode_pointer@P6AHXZ@@YAP6AHXZQ6AHXZ@Z 000000014001df40 f i libucrtd:onexit.obj
 0001:0001cf40       ??$__crt_fast_encode_pointer@P6AXH@Z@@YAP6AXH@ZQ6AXH@Z@Z 000000014001df40 f i libucrtd:signal.obj
 0001:0001cf40       ??$__crt_fast_encode_pointer@P6AXPEAXK0@Z@@YAP6AXPEAXK0@ZQ6AX0K0@Z@Z 000000014001df40 f i libucrtd:exit.obj
 0001:0001cf40       ??$__crt_fast_encode_pointer@P6AXXZ@@YAP6AXXZQ6AXXZ@Z 000000014001df40 f i libucrtd:onexit.obj
 0001:0001cf40       ??$__crt_fast_encode_pointer@PEAP6AXXZ@@YAPEAP6AXXZQEAP6AXXZ@Z 000000014001df40 f i libucrtd:onexit.obj
 0001:0001cf40       ??$__crt_fast_encode_pointer@PEAX@@YAPEAXQEAX@Z 000000014001df40 f i libucrtd:initialization.obj
 0001:0001cf80       ?__crt_rotate_pointer_value@@YA_K_KH@Z 000000014001df80 f i libucrtd:matherr.obj
 0001:0001cfa0       ?initialize@?$dual_state_global@P6AHPEAU_exception@@@Z@__crt_state_management@@QEAAXQ6AHPEAU_exception@@@Z@Z 000000014001dfa0 f i libucrtd:matherr.obj
 0001:0001cfa0       ?initialize@?$dual_state_global@P6AH_K@Z@__crt_state_management@@QEAAXQ6AH_K@Z@Z 000000014001dfa0 f i libucrtd:new_handler.obj
 0001:0001cfa0       ?initialize@?$dual_state_global@P6AXH@Z@__crt_state_management@@QEAAXQ6AXH@Z@Z 000000014001dfa0 f i libucrtd:signal.obj
 0001:0001cfa0       ?initialize@?$dual_state_global@PEAPEAD@__crt_state_management@@QEAAXQEAPEAD@Z 000000014001dfa0 f i libucrtd:environment_initialization.obj
 0001:0001cfa0       ?initialize@?$dual_state_global@PEAU__crt_locale_data@@@__crt_state_management@@QEAAXQEAU__crt_locale_data@@@Z 000000014001dfa0 f i libucrtd:initialization.obj
 0001:0001cfa0       ?initialize@?$dual_state_global@PEAU__crt_multibyte_data@@@__crt_state_management@@QEAAXQEAU__crt_multibyte_data@@@Z 000000014001dfa0 f i libucrtd:mbctype.obj
 0001:0001cff0       ?value@?$dual_state_global@P6AHPEAU_exception@@@Z@__crt_state_management@@QEAAAEAP6AHPEAU_exception@@@ZXZ 000000014001dff0 f i libucrtd:matherr.obj
 0001:0001cff0       ?value@?$dual_state_global@P6AH_K@Z@__crt_state_management@@QEAAAEAP6AH_K@ZXZ 000000014001dff0 f i libucrtd:new_handler.obj
 0001:0001cff0       ?value@?$dual_state_global@P6AXH@Z@__crt_state_management@@QEAAAEAP6AXH@ZXZ 000000014001dff0 f i libucrtd:signal.obj
 0001:0001cff0       ?value@?$dual_state_global@PEAE@__crt_state_management@@QEAAAEAPEAEXZ 000000014001dff0 f i libucrtd:mbctype.obj
 0001:0001cff0       ?value@?$dual_state_global@PEAPEAD@__crt_state_management@@QEAAAEAPEAPEADXZ 000000014001dff0 f i libucrtd:environment_initialization.obj
 0001:0001cff0       ?value@?$dual_state_global@PEAPEA_W@__crt_state_management@@QEAAAEAPEAPEA_WXZ 000000014001dff0 f i libucrtd:environment_initialization.obj
 0001:0001cff0       ?value@?$dual_state_global@PEAU__crt_locale_data@@@__crt_state_management@@QEAAAEAPEAU__crt_locale_data@@XZ 000000014001dff0 f i libucrtd:wsetlocale.obj
 0001:0001cff0       ?value@?$dual_state_global@PEAU__crt_multibyte_data@@@__crt_state_management@@QEAAAEAPEAU__crt_multibyte_data@@XZ 000000014001dff0 f i libucrtd:locale_update.obj
 0001:0001d010       __acrt_has_user_matherr    000000014001e010 f   libucrtd:matherr.obj
 0001:0001d050       __acrt_initialize_user_matherr 000000014001e050 f   libucrtd:matherr.obj
 0001:0001d070       __acrt_invoke_user_matherr 000000014001e070 f   libucrtd:matherr.obj
 0001:0001d0e0       __setusermatherr           000000014001e0e0 f   libucrtd:matherr.obj
 0001:0001d4b0       ??$get_module_file_name@$$TAEAY0BAF@DH@?$__crt_char_traits@D@@SAK$$QEA$$TAEAY0BAF@D$$QEAH@Z 000000014001e4b0 f i libucrtd:argv_parsing.obj
 0001:0001d4b0       ??$get_module_file_name@AEAPEAUHINSTANCE__@@AEAY0BAF@DK@?$__crt_char_traits@D@@SAKAEAPEAUHINSTANCE__@@AEAY0BAF@D$$QEAK@Z 000000014001e4b0 f i libucrtd:dbgrpt.obj
 0001:0001d9c0       ??$set_program_name@PEAD@?$__crt_char_traits@D@@SAX$$QEAPEAD@Z 000000014001e9c0 f i libucrtd:argv_parsing.obj
 0001:0001daf0       __acrt_allocate_buffer_for_argv 000000014001eaf0 f   libucrtd:argv_parsing.obj
 0001:0001dc10       _configure_narrow_argv     000000014001ec10 f   libucrtd:argv_parsing.obj
 0001:0001dc30       _set_pgmptr                000000014001ec30 f i libucrtd:argv_parsing.obj
 0001:0001e110       ??$get_environment_from_os@$$V@?$__crt_char_traits@D@@SAPEADXZ 000000014001f110 f i libucrtd:environment_initialization.obj
 0001:0001e2a0       ??$set_variable_in_environment_nolock@PEADH@?$__crt_char_traits@D@@SAH$$QEAPEAD$$QEAH@Z 000000014001f2a0 f i libucrtd:environment_initialization.obj
 0001:0001e2d0       ??$tcscpy_s@AEAPEADAEB_KAEAPEAD@?$__crt_char_traits@D@@SAHAEAPEADAEB_K0@Z 000000014001f2d0 f i libucrtd:setenv.obj
 0001:0001e2d0       ??$tcscpy_s@AEBQEADAEB_KAEBQEAD@?$__crt_char_traits@D@@SAHAEBQEADAEB_K0@Z 000000014001f2d0 f i libucrtd:setenv.obj
 0001:0001e2d0       ??$tcscpy_s@PEADAEB_KAEAPEAD@?$__crt_char_traits@D@@SAH$$QEAPEADAEB_KAEAPEAD@Z 000000014001f2d0 f i libucrtd:environment_initialization.obj
 0001:0001e310       ??$tcslen@AEAPEAD@?$__crt_char_traits@D@@SA_KAEAPEAD@Z 000000014001f310 f i libucrtd:environment_initialization.obj
 0001:0001e310       ??$tcslen@AEBQEAD@?$__crt_char_traits@D@@SA_KAEBQEAD@Z 000000014001f310 f i libucrtd:setenv.obj
 0001:0001e310       ??$tcslen@AEBQEBD@?$__crt_char_traits@D@@SA_KAEBQEBD@Z 000000014001f310 f i libucrtd:dbgrpt.obj
 0001:0001e330       ??$uninitialize@A6AXAEAPEAPEAD@_E@?$dual_state_global@PEAPEAD@__crt_state_management@@QEAAXA6AXAEAPEAPEAD@_E@Z 000000014001f330 f i libucrtd:environment_initialization.obj
 0001:0001e3b0       ??$uninitialize@A6AXAEAPEAPEA_W@_E@?$dual_state_global@PEAPEA_W@__crt_state_management@@QEAAXA6AXAEAPEAPEA_W@_E@Z 000000014001f3b0 f i libucrtd:environment_initialization.obj
 0001:0001e4b0       ?__crt_compute_required_transform_buffer_count@@YA_KIQEB_W@Z 000000014001f4b0 f i libucrtd:environment_initialization.obj
 0001:0001e500       ?__crt_transform_string@@YA_KIQEB_WQEAD_K@Z 000000014001f500 f i libucrtd:environment_initialization.obj
 0001:0001e5d0       __dcrt_get_or_create_narrow_environment_nolock 000000014001f5d0 f   libucrtd:environment_initialization.obj
 0001:0001e5e0       __dcrt_uninitialize_environments_nolock 000000014001f5e0 f   libucrtd:environment_initialization.obj
 0001:0001e630       _get_initial_narrow_environment 000000014001f630 f   libucrtd:environment_initialization.obj
 0001:0001e640       _initialize_narrow_environment 000000014001f640 f   libucrtd:environment_initialization.obj
 0001:0001e650       _initterm                  000000014001f650 f   libucrtd:initterm.obj
 0001:0001e6c0       _initterm_e                000000014001f6c0 f   libucrtd:initterm.obj
 0001:0001e740       ??$?B$$A6AXH@Z@__crt_fast_encoded_nullptr_t@@QEBAP6AXH@ZXZ 000000014001f740 f i libucrtd:signal.obj
 0001:0001e740       ??$?B$$A6AXPEAXK0@Z@__crt_fast_encoded_nullptr_t@@QEBAP6AXPEAXK0@ZXZ 000000014001f740 f i libucrtd:exit.obj
 0001:0001e740       ??$?B$$A6AXXZ@__crt_fast_encoded_nullptr_t@@QEBAP6AXXZXZ 000000014001f740 f i libucrtd:onexit.obj
 0001:0001e740       ??$?BP6AXXZ@__crt_fast_encoded_nullptr_t@@QEBAPEAP6AXXZXZ 000000014001f740 f i libucrtd:onexit.obj
 0001:0001e740       ??$?BX@__crt_fast_encoded_nullptr_t@@QEBAPEAXXZ 000000014001f740 f i libucrtd:initialization.obj
 0001:0001e800       ??$__crt_get_proc_address@P6AXI@Z@@YAP6AXI@ZQEAUHINSTANCE__@@QEBD@Z 000000014001f800 f i libucrtd:exit.obj
 0001:0001e8a0       ??1?$__crt_unique_handle_t@U__crt_hmodule_traits@@@@QEAA@XZ 000000014001f8a0 f i libucrtd:exit.obj
 0001:0001ea20       ?__acrt_select_exit_lock@@YA?AW4__acrt_lock_id@@XZ 000000014001fa20 f i libucrtd:exit.obj
 0001:0001ea30       ?__crt_fast_encode_pointer@@YA?AU__crt_fast_encoded_nullptr_t@@$$T@Z 000000014001fa30 f i libucrtd:exit.obj
 0001:0001ea70       ?close@?$__crt_unique_handle_t@U__crt_hmodule_traits@@@@QEAAXXZ 000000014001fa70 f i libucrtd:exit.obj
 0001:0001eab0       ?close@__crt_hmodule_traits@@SA_NPEAUHINSTANCE__@@@Z 000000014001fab0 f i libucrtd:exit.obj
 0001:0001eda0       __acrt_initialize_thread_local_exit_callback 000000014001fda0 f   libucrtd:exit.obj
 0001:0001edc0       _c_exit                    000000014001fdc0 f   libucrtd:exit.obj
 0001:0001ede0       _cexit                     000000014001fde0 f   libucrtd:exit.obj
 0001:0001ee00       _exit                      000000014001fe00 f   libucrtd:exit.obj
 0001:0001ee20       _register_thread_local_exe_atexit_callback 000000014001fe20 f   libucrtd:exit.obj
 0001:0001ee70       exit                       000000014001fe70 f   libucrtd:exit.obj
 0001:0001ee90       ?value@?$dual_state_global@H@__crt_state_management@@QEAAAEAHXZ 000000014001fe90 f i libucrtd:setmode.obj
 0001:0001ee90       ?value@?$dual_state_global@J@__crt_state_management@@QEAAAEAJXZ 000000014001fe90 f i libucrtd:new_mode.obj
 0001:0001eeb0       _get_fmode                 000000014001feb0 f   libucrtd:setmode.obj
 0001:0001ef80       _set_fmode                 000000014001ff80 f   libucrtd:setmode.obj
 0001:0001f060       _setmode_nolock            0000000140020060 f   libucrtd:setmode.obj
 0001:0001f320       __acrt_initialize_command_line 0000000140020320 f   libucrtd:argv_data.obj
 0001:0001f350       __acrt_uninitialize_command_line 0000000140020350 f   libucrtd:argv_data.obj
 0001:0001f360       __p___argc                 0000000140020360 f   libucrtd:argv_data.obj
 0001:0001f370       __p___argv                 0000000140020370 f   libucrtd:argv_data.obj
 0001:0001f500       __acrt_set_locale_changed  0000000140020500 f   libucrtd:wsetlocale.obj
 0001:0001f510       __acrt_uninitialize_locale 0000000140020510 f   libucrtd:wsetlocale.obj
 0001:0001f540       __ascii_tolower            0000000140020540 f i libucrtd:wsetlocale.obj
 0001:0001f560       __ascii_towlower           0000000140020560 f i libucrtd:wsetlocale.obj
 0001:0001f580       _configthreadlocale        0000000140020580 f   libucrtd:wsetlocale.obj
 0001:0001f6e0       _query_new_mode            00000001400206e0 f   libucrtd:new_mode.obj
 0001:0001f700       _set_new_mode              0000000140020700 f   libucrtd:new_mode.obj
 0001:0001f7d0       __p__commode               00000001400207d0 f   libucrtd:ncommode.obj
 0001:0001feb0       _crt_atexit                0000000140020eb0 f   libucrtd:onexit.obj
 0001:0001fed0       _execute_onexit_table      0000000140020ed0 f   libucrtd:onexit.obj
 0001:0001ff10       _initialize_onexit_table   0000000140020f10 f   libucrtd:onexit.obj
 0001:0001ff90       _register_onexit_function  0000000140020f90 f   libucrtd:onexit.obj
 0001:00020290       __acrt_initialize          0000000140021290 f   libucrtd:initialization.obj
 0001:000202c0       __acrt_uninitialize        00000001400212c0 f   libucrtd:initialization.obj
 0001:000202f0       terminate                  00000001400212f0 f   libucrtd:terminate.obj
 0001:00020340       ??0_LocaleUpdate@@QEAA@QEAU__crt_locale_pointers@@@Z 0000000140021340 f i libucrtd:debug_heap.obj
 0001:00020460       ??1_LocaleUpdate@@QEAA@XZ  0000000140021460 f i libucrtd:debug_heap.obj
 0001:00020490       ?GetLocaleT@_LocaleUpdate@@QEAAPEAU__crt_locale_pointers@@XZ 0000000140021490 f i libucrtd:debug_heap.obj
 0001:00022840       _CrtCheckMemory            0000000140023840 f   libucrtd:debug_heap.obj
 0001:000229d0       _CrtDumpMemoryLeaks        00000001400239d0 f   libucrtd:debug_heap.obj
 0001:00022a90       _CrtIsValidHeapPointer     0000000140023a90 f   libucrtd:debug_heap.obj
 0001:00022ae0       _CrtIsValidPointer         0000000140023ae0 f   libucrtd:debug_heap.obj
 0001:00022b20       _CrtMemCheckpoint          0000000140023b20 f   libucrtd:debug_heap.obj
 0001:00022da0       _CrtMemDumpAllObjectsSince 0000000140023da0 f   libucrtd:debug_heap.obj
 0001:00022e00       _CrtSetDbgFlag             0000000140023e00 f   libucrtd:debug_heap.obj
 0001:00022f60       _CrtSetDumpClient          0000000140023f60 f   libucrtd:debug_heap.obj
 0001:00022f90       __acrt_get_locale_data_prefix 0000000140023f90 f i libucrtd:debug_heap.obj
 0001:00022fb0       _calloc_dbg                0000000140023fb0 f   libucrtd:debug_heap.obj
 0001:00023050       _chvalidchk_l              0000000140024050 f i libucrtd:debug_heap.obj
 0001:00023080       _free_dbg                  0000000140024080 f   libucrtd:debug_heap.obj
 0001:000230f0       _invoke_watson_if_oneof    00000001400240f0 f i libucrtd:debug_heap.obj
 0001:00023150       _ischartype_l              0000000140024150 f i libucrtd:debug_heap.obj
 0001:000231e0       _malloc_dbg                00000001400241e0 f   libucrtd:debug_heap.obj
 0001:00023220       _msize_dbg                 0000000140024220 f   libucrtd:debug_heap.obj
 0001:000233c0       _realloc_dbg               00000001400243c0 f   libucrtd:debug_heap.obj
 0001:00023430       _recalloc_dbg              0000000140024430 f   libucrtd:debug_heap.obj
 0001:00023a10       strcpy_s                   0000000140024a10 f   libucrtd:strcpy_s.obj
 0001:00023a50       strcmp                     0000000140024a50 f   libucrtd:strcmp.obj
 0001:00023ad0       strlen                     0000000140024ad0 f   libucrtd:strlen.obj
 0001:00023b80       abort                      0000000140024b80 f   libucrtd:abort.obj
 0001:00023c00       ??$initialize_from_array@$$BY00Q6AXPEB_W00I_K@Z@?$dual_state_global@P6AXPEB_W00I_K@Z@__crt_state_management@@QEAAXAEAY00Q6AXPEB_W00I_K@Z@Z 0000000140024c00 f i libucrtd:invalid_parameter.obj
 0001:00023c60       ?check_synchronize_global_state_index@__crt_cached_ptd_host@@AEAA_KXZ 0000000140024c60 f i libucrtd:invalid_parameter.obj
 0001:00023cc0       ?get_current_global_state_index@__crt_cached_ptd_host@@QEAA_KXZ 0000000140024cc0 f i libucrtd:invalid_parameter.obj
 0001:00023ce0       ?get_raw_ptd_noexit@__crt_cached_ptd_host@@QEAAPEAU__acrt_ptd@@XZ 0000000140024ce0 f i libucrtd:invalid_parameter.obj
 0001:00023d00       ?try_synchronize_per_thread_data@__crt_cached_ptd_host@@AEAAPEAU__acrt_ptd@@XZ 0000000140024d00 f i libucrtd:invalid_parameter.obj
 0001:00023d30       ?value@?$dual_state_global@P6AXPEB_W00I_K@Z@__crt_state_management@@QEAAAEAP6AXPEB_W00I_K@ZAEAV__crt_cached_ptd_host@@@Z 0000000140024d30 f i libucrtd:invalid_parameter.obj
 0001:00023d60       __acrt_call_reportfault    0000000140024d60 f   libucrtd:invalid_parameter.obj
 0001:00023e90       __acrt_initialize_invalid_parameter_handler 0000000140024e90 f   libucrtd:invalid_parameter.obj
 0001:00023ec0       _invalid_parameter         0000000140024ec0 f   libucrtd:invalid_parameter.obj
 0001:00023f30       _invalid_parameter_internal 0000000140024f30 f   libucrtd:invalid_parameter.obj
 0001:00024080       _invalid_parameter_noinfo  0000000140025080 f   libucrtd:invalid_parameter.obj
 0001:000240b0       _invoke_watson             00000001400250b0 f   libucrtd:invalid_parameter.obj
 0001:00024ec0       ??$get_module_file_name@AEAPEAUHINSTANCE__@@AEAY0BAF@_WK@?$__crt_char_traits@_W@@SAKAEAPEAUHINSTANCE__@@AEAY0BAF@_W$$QEAK@Z 0000000140025ec0 f i libucrtd:dbgrpt.obj
 0001:00024f00       ??$tcscpy_s@AEAY0BAF@D_KPEBD@?$__crt_char_traits@D@@SAHAEAY0BAF@D$$QEA_K$$QEAPEBD@Z 0000000140025f00 f i libucrtd:dbgrpt.obj
 0001:00024f40       ??$tcscpy_s@AEAY0BAF@_W_KPEB_W@?$__crt_char_traits@_W@@SAHAEAY0BAF@_W$$QEA_K$$QEAPEB_W@Z 0000000140025f40 f i libucrtd:dbgrpt.obj
 0001:00024f80       ??$tcslen@AEAY0BAF@D@?$__crt_char_traits@D@@SA_KAEAY0BAF@D@Z 0000000140025f80 f i libucrtd:dbgrpt.obj
 0001:00024fa0       ??$tcslen@AEAY0BAF@_W@?$__crt_char_traits@_W@@SA_KAEAY0BAF@_W@Z 0000000140025fa0 f i libucrtd:dbgrpt.obj
 0001:00024fc0       ??$tcslen@AEBQEB_W@?$__crt_char_traits@_W@@SA_KAEBQEB_W@Z 0000000140025fc0 f i libucrtd:dbgrpt.obj
 0001:00025020       _CrtDbgReport              0000000140026020 f   libucrtd:dbgrpt.obj
 0001:000250a0       _CrtDbgReportW             00000001400260a0 f   libucrtd:dbgrpt.obj
 0001:00025120       __acrt_MessageWindowA      0000000140026120 f   libucrtd:dbgrpt.obj
 0001:00025170       __acrt_MessageWindowW      0000000140026170 f   libucrtd:dbgrpt.obj
 0001:000251c0       _snwprintf_s               00000001400261c0 f i libucrtd:dbgrpt.obj
 0001:00025230       _vsnwprintf_s_l            0000000140026230 f i libucrtd:dbgrpt.obj
 0001:000252c0       strncmp                    00000001400262c0 f   libucrtd:strncmp.obj
 0001:00025340       wcsncmp                    0000000140026340 f   libucrtd:wcsncmp.obj
 0001:000253d0       ?get_doserrno@__crt_cached_ptd_host@@QEAAAEAU?$cached@K@1@XZ 00000001400263d0 f i libucrtd:errno.obj
 0001:000253e0       __acrt_errno_from_os_error 00000001400263e0 f   libucrtd:errno.obj
 0001:00025470       __acrt_errno_map_os_error  0000000140026470 f   libucrtd:errno.obj
 0001:000254a0       __acrt_errno_map_os_error_ptd 00000001400264a0 f   libucrtd:errno.obj
 0001:00025500       __doserrno                 0000000140026500 f   libucrtd:errno.obj
 0001:00025530       _errno                     0000000140026530 f   libucrtd:errno.obj
 0001:00025c40       GetCurrentThreadEffectiveToken 0000000140026c40 f i libucrtd:winapi_thunks.obj
 0001:00025c50       __acrt_AppPolicyGetProcessTerminationMethodInternal 0000000140026c50 f   libucrtd:winapi_thunks.obj
 0001:00025cb0       __acrt_AppPolicyGetShowDeveloperDiagnosticInternal 0000000140026cb0 f   libucrtd:winapi_thunks.obj
 0001:00025d10       __acrt_AppPolicyGetWindowingModelInternal 0000000140026d10 f   libucrtd:winapi_thunks.obj
 0001:00025d70       __acrt_AreFileApisANSI     0000000140026d70 f   libucrtd:winapi_thunks.obj
 0001:00025dc0       __acrt_CompareStringEx     0000000140026dc0 f   libucrtd:winapi_thunks.obj
 0001:00025ee0       __acrt_FlsAlloc            0000000140026ee0 f   libucrtd:winapi_thunks.obj
 0001:00025f00       __acrt_FlsFree             0000000140026f00 f   libucrtd:winapi_thunks.obj
 0001:00025f20       __acrt_FlsGetValue         0000000140026f20 f   libucrtd:winapi_thunks.obj
 0001:00025f40       __acrt_FlsSetValue         0000000140026f40 f   libucrtd:winapi_thunks.obj
 0001:00025f70       __acrt_InitializeCriticalSectionEx 0000000140026f70 f   libucrtd:winapi_thunks.obj
 0001:00025ff0       __acrt_LCMapStringEx       0000000140026ff0 f   libucrtd:winapi_thunks.obj
 0001:00026100       __acrt_LocaleNameToLCID    0000000140027100 f   libucrtd:winapi_thunks.obj
 0001:00026170       __acrt_MessageBoxW         0000000140027170 f   libucrtd:winapi_thunks.obj
 0001:000261f0       __acrt_can_show_message_box 00000001400271f0 f   libucrtd:winapi_thunks.obj
 0001:00026230       __acrt_get_parent_window   0000000140027230 f   libucrtd:winapi_thunks.obj
 0001:000262d0       __acrt_initialize_winapi_thunks 00000001400272d0 f   libucrtd:winapi_thunks.obj
 0001:00026350       __acrt_is_interactive      0000000140027350 f   libucrtd:winapi_thunks.obj
 0001:00026460       __acrt_uninitialize_winapi_thunks 0000000140027460 f   libucrtd:winapi_thunks.obj
 0001:00026500       _fcloseall                 0000000140027500 f   libucrtd:closeall.obj
 0001:00026b70       __acrt_stdio_flush_nolock  0000000140027b70 f   libucrtd:fflush.obj
 0001:00026c90       _fflush_nolock             0000000140027c90 f   libucrtd:fflush.obj
 0001:00026cd0       _flushall                  0000000140027cd0 f   libucrtd:fflush.obj
 0001:00026ce0       __acrt_stdio_free_buffer_nolock 0000000140027ce0 f   libucrtd:_freebuf.obj
 0001:00027160       __acrt_initialize_lowio    0000000140028160 f   libucrtd:ioinit.obj
 0001:000271b0       __acrt_uninitialize_lowio  00000001400281b0 f   libucrtd:ioinit.obj
 0001:00027230       _fileno                    0000000140028230 f   libucrtd:fileno.obj
 0001:000275b0       _close_internal            00000001400285b0 f   libucrtd:close.obj
 0001:00027870       _close_nolock              0000000140028870 f   libucrtd:close.obj
 0001:000278b0       _close_nolock_internal     00000001400288b0 f   libucrtd:close.obj
 0001:00027920       ??0__crt_stdio_stream@@QEAA@XZ 0000000140028920 f i libucrtd:stream.obj
 0001:00027940       ?__acrt_stdio_allocate_stream@@YA?AV__crt_stdio_stream@@XZ 0000000140028940 f   libucrtd:stream.obj
 0001:00027a00       ?__acrt_stdio_free_stream@@YAXV__crt_stdio_stream@@@Z 0000000140028a00 f   libucrtd:stream.obj
 0001:00027aa0       ?deallocate@__crt_stdio_stream@@QEAAXXZ 0000000140028aa0 f i libucrtd:stream.obj
 0001:00027c70       ?lock@__crt_stdio_stream@@QEBAXXZ 0000000140028c70 f i libucrtd:stream.obj
 0001:00027c90       ?try_allocate@__crt_stdio_stream@@QEAA_NXZ 0000000140028c90 f i libucrtd:stream.obj
 0001:00028640       __acrt_getptd              0000000140029640 f   libucrtd:per_thread_data.obj
 0001:00028670       __acrt_getptd_head         0000000140029670 f   libucrtd:per_thread_data.obj
 0001:000286a0       __acrt_getptd_noexit       00000001400296a0 f   libucrtd:per_thread_data.obj
 0001:000286b0       __acrt_getptd_noexit_explicit 00000001400296b0 f   libucrtd:per_thread_data.obj
 0001:000286e0       __acrt_initialize_ptd      00000001400296e0 f   libucrtd:per_thread_data.obj
 0001:00028720       __acrt_uninitialize_ptd    0000000140029720 f   libucrtd:per_thread_data.obj
 0001:00028750       ??$__acrt_stdio_parse_mode@D@@YA?AU__acrt_stdio_stream_mode@@QEBD@Z 0000000140029750 f i libucrtd:openfile.obj
 0001:000294b0       ??$tcsncmp@AEAPEBDAEAY02$$CBD_K@?$__crt_char_traits@D@@SAHAEAPEBDAEAY02$$CBD$$QEA_K@Z 000000014002a4b0 f i libucrtd:openfile.obj
 0001:000294f0       ??$tcsnicmp@AEAPEBDAEAY04$$CBD_K@?$__crt_char_traits@D@@SAHAEAPEBDAEAY04$$CBD$$QEA_K@Z 000000014002a4f0 f i libucrtd:openfile.obj
 0001:000294f0       ??$tcsnicmp@AEAPEBDAEAY06$$CBD_K@?$__crt_char_traits@D@@SAHAEAPEBDAEAY06$$CBD$$QEA_K@Z 000000014002a4f0 f i libucrtd:openfile.obj
 0001:000294f0       ??$tcsnicmp@AEAPEBDAEAY07$$CBD_K@?$__crt_char_traits@D@@SAHAEAPEBDAEAY07$$CBD$$QEA_K@Z 000000014002a4f0 f i libucrtd:openfile.obj
 0001:00029530       ??$tsopen_s@PEAHAEBQEBDAEBHAEBHH@?$__crt_char_traits@D@@SAH$$QEAPEAHAEBQEBDAEBH2$$QEAH@Z 000000014002a530 f i libucrtd:openfile.obj
 0001:00029580       ?__acrt_stdio_parse_mode_D@@YA_NAEAU__acrt_stdio_stream_mode@@@Z 000000014002a580 f i libucrtd:openfile.obj
 0001:000295b0       ?__acrt_stdio_parse_mode_N@@YA_NAEAU__acrt_stdio_stream_mode@@@Z 000000014002a5b0 f i libucrtd:openfile.obj
 0001:000295d0       ?__acrt_stdio_parse_mode_R@@YA_NAEAU__acrt_stdio_stream_mode@@AEA_N@Z 000000014002a5d0 f i libucrtd:openfile.obj
 0001:00029610       ?__acrt_stdio_parse_mode_S@@YA_NAEAU__acrt_stdio_stream_mode@@AEA_N@Z 000000014002a610 f i libucrtd:openfile.obj
 0001:00029650       ?__acrt_stdio_parse_mode_T@@YA_NAEAU__acrt_stdio_stream_mode@@@Z 000000014002a650 f i libucrtd:openfile.obj
 0001:00029680       ?__acrt_stdio_parse_mode_b@@YA_NAEAU__acrt_stdio_stream_mode@@@Z 000000014002a680 f i libucrtd:openfile.obj
 0001:000296b0       ?__acrt_stdio_parse_mode_c@@YA_NAEAU__acrt_stdio_stream_mode@@AEA_N@Z 000000014002a6b0 f i libucrtd:openfile.obj
 0001:000296f0       ?__acrt_stdio_parse_mode_n@@YA_NAEAU__acrt_stdio_stream_mode@@AEA_N@Z 000000014002a6f0 f i libucrtd:openfile.obj
 0001:00029730       ?__acrt_stdio_parse_mode_plus@@YA_NAEAU__acrt_stdio_stream_mode@@AEA_N@Z 000000014002a730 f i libucrtd:openfile.obj
 0001:000297b0       ?__acrt_stdio_parse_mode_t@@YA_NAEAU__acrt_stdio_stream_mode@@@Z 000000014002a7b0 f i libucrtd:openfile.obj
 0001:000297e0       ?__acrt_stdio_parse_mode_x@@YA_NAEAU__acrt_stdio_stream_mode@@@Z 000000014002a7e0 f i libucrtd:openfile.obj
 0001:00029810       _openfile                  000000014002a810 f   libucrtd:openfile.obj
 0001:0002a720       _read                      000000014002b720 f   libucrtd:read.obj
 0001:0002aa70       _read_nolock               000000014002ba70 f   libucrtd:read.obj
 0001:0002bcd0       __acrt_stdio_refill_and_read_narrow_nolock 000000014002ccd0 f   libucrtd:_filbuf.obj
 0001:0002c240       _lseeki64                  000000014002d240 f   libucrtd:lseek.obj
 0001:0002c2a0       _lseeki64_internal         000000014002d2a0 f   libucrtd:lseek.obj
 0001:0002c2e0       _lseeki64_nolock           000000014002d2e0 f   libucrtd:lseek.obj
 0001:0002c340       _lseeki64_nolock_internal  000000014002d340 f   libucrtd:lseek.obj
 0001:0002db90       _isleadbyte_fast_internal  000000014002eb90 f i libucrtd:write.obj
 0001:0002dbc0       _write                     000000014002ebc0 f   libucrtd:write.obj
 0001:0002dc20       _write_internal            000000014002ec20 f   libucrtd:write.obj
 0001:0002dfc0       _write_nolock              000000014002efc0 f   libucrtd:write.obj
 0001:0002ecb0       __acrt_stdio_flush_and_write_narrow_nolock 000000014002fcb0 f   libucrtd:_flsbuf.obj
 0001:0002ecf0       ?has_temporary_buffer@__crt_stdio_stream@@QEBA_NXZ 000000014002fcf0 f i libucrtd:_sftbuf.obj
 0001:0002ed10       __acrt_should_use_temporary_buffer 000000014002fd10 f   libucrtd:_sftbuf.obj
 0001:0002ed60       __acrt_stdio_begin_temporary_buffering_nolock 000000014002fd60 f   libucrtd:_sftbuf.obj
 0001:0002efc0       __acrt_stdio_end_temporary_buffering_nolock 000000014002ffc0 f   libucrtd:_sftbuf.obj
 0001:0002f060       __sys_errlist              0000000140030060 f   libucrtd:syserr.obj
 0001:0002f070       __sys_nerr                 0000000140030070 f   libucrtd:syserr.obj
 0001:0002f080       __acrt_lowio_create_handle_array 0000000140030080 f   libucrtd:osfinfo.obj
 0001:0002f240       __acrt_lowio_destroy_handle_array 0000000140030240 f   libucrtd:osfinfo.obj
 0001:0002f2c0       __acrt_lowio_ensure_fh_exists 00000001400302c0 f   libucrtd:osfinfo.obj
 0001:0002f420       __acrt_lowio_lock_fh       0000000140030420 f   libucrtd:osfinfo.obj
 0001:0002f460       __acrt_lowio_set_os_handle 0000000140030460 f   libucrtd:osfinfo.obj
 0001:0002f570       __acrt_lowio_unlock_fh     0000000140030570 f   libucrtd:osfinfo.obj
 0001:0002f5b0       _alloc_osfhnd              00000001400305b0 f   libucrtd:osfinfo.obj
 0001:0002f7c0       _free_osfhnd               00000001400307c0 f   libucrtd:osfinfo.obj
 0001:0002f8f0       _get_osfhandle             00000001400308f0 f   libucrtd:osfinfo.obj
 0001:0002faf0       _CrtGetDebugFillThreshold  0000000140030af0 f   libucrtd:debug_fill_threshold.obj
 0001:00030e60       ??1?$__crt_simd_cleanup_guard@$00@@QEAA@XZ 0000000140031e60 f i libucrtd:strnlen.obj
 0001:00030e70       ?compare_equals@?$__crt_simd_traits@$00E@@SA?AT__m256i@@T2@0@Z 0000000140031e70 f i libucrtd:strnlen.obj
 0001:00030eb0       ?compare_equals@?$__crt_simd_traits@$00G@@SA?AT__m256i@@T2@0@Z 0000000140031eb0 f i libucrtd:strnlen.obj
 0001:00030ef0       ?compare_equals@?$__crt_simd_traits@$0A@E@@SA?AT__m128i@@T2@0@Z 0000000140031ef0 f i libucrtd:strnlen.obj
 0001:00030f20       ?compare_equals@?$__crt_simd_traits@$0A@G@@SA?AT__m128i@@T2@0@Z 0000000140031f20 f i libucrtd:strnlen.obj
 0001:00030f50       ?compute_byte_mask@?$__crt_simd_pack_traits@$00@@SAHT__m256i@@@Z 0000000140031f50 f i libucrtd:strnlen.obj
 0001:00030f70       ?compute_byte_mask@?$__crt_simd_pack_traits@$0A@@@SAHT__m128i@@@Z 0000000140031f70 f i libucrtd:strnlen.obj
 0001:00030f90       ?get_zero_pack@?$__crt_simd_pack_traits@$00@@SA?AT__m256i@@XZ 0000000140031f90 f i libucrtd:strnlen.obj
 0001:00030fc0       ?get_zero_pack@?$__crt_simd_pack_traits@$0A@@@SA?AT__m128i@@XZ 0000000140031fc0 f i libucrtd:strnlen.obj
 0001:00030fe0       strnlen                    0000000140031fe0 f   libucrtd:strnlen.obj
 0001:00031010       wcslen                     0000000140032010 f   libucrtd:strnlen.obj
 0001:00031030       wcsnlen                    0000000140032030 f   libucrtd:strnlen.obj
 0001:00031060       ?value_explicit@?$dual_state_global@PEAU__crt_locale_data@@@__crt_state_management@@QEAAAEAPEAU__crt_locale_data@@_K@Z 0000000140032060 f i libucrtd:locale_update.obj
 0001:00031060       ?value_explicit@?$dual_state_global@PEAU__crt_multibyte_data@@@__crt_state_management@@QEAAAEAPEAU__crt_multibyte_data@@_K@Z 0000000140032060 f i libucrtd:locale_update.obj
 0001:00031080       __acrt_should_sync_with_global_locale 0000000140032080 f i libucrtd:locale_update.obj
 0001:000310c0       __acrt_update_locale_info  00000001400320c0 f   libucrtd:locale_update.obj
 0001:00031110       __acrt_update_locale_info_explicit 0000000140032110 f   libucrtd:locale_update.obj
 0001:00031170       __acrt_update_multibyte_info 0000000140032170 f   libucrtd:locale_update.obj
 0001:000311c0       __acrt_update_multibyte_info_explicit 00000001400321c0 f   libucrtd:locale_update.obj
 0001:00031220       ?__acrt_fp_classify@@YA?AW4__acrt_fp_class@@AEBN@Z 0000000140032220 f i libucrtd:cvt.obj
 0001:00031320       ?__acrt_fp_is_negative@@YA_NAEBN@Z 0000000140032320 f i libucrtd:cvt.obj
 0001:00032c40       ?strrchr@@YAPEADQEADH@Z    0000000140033c40 f i libucrtd:cvt.obj
 0001:00032c60       __acrt_fp_format           0000000140033c60 f   libucrtd:cvt.obj
 0001:00033320       ?value_or@?$cached@H@__crt_cached_ptd_host@@QEBAHH@Z 0000000140034320 f i libucrtd:wctomb.obj
 0001:00033350       _wctomb_internal           0000000140034350 f   libucrtd:wctomb.obj
 0001:000338b0       _mbtowc_internal           00000001400348b0 f   libucrtd:mbtowc.obj
 0001:00033c40       _get_printf_count_output   0000000140034c40 f   libucrtd:printf_count_output.obj
 0001:00033c70       _fputc_nolock_internal     0000000140034c70 f   libucrtd:fputc.obj
 0001:00033d30       _set_error_mode            0000000140034d30 f   libucrtd:set_error_mode.obj
 0001:000344c0       wcscat_s                   00000001400354c0 f   libucrtd:wcscat_s.obj
 0001:000349f0       wcscpy_s                   00000001400359f0 f   libucrtd:wcscpy_s.obj
 0001:000350d0       wcsncpy_s                  00000001400360d0 f   libucrtd:wcsncpy_s.obj
 0001:00035250       ??$message_box@$$TAEBQEB_WAEBQEB_WK@?$__crt_char_traits@_W@@SAH$$QEA$$TAEBQEB_W1$$QEAK@Z 0000000140036250 f i libucrtd:crtmbox.obj
 0001:00035250       ??$message_box@PEAUHWND__@@AEBQEB_WAEBQEB_WAEBI@?$__crt_char_traits@_W@@SAH$$QEAPEAUHWND__@@AEBQEB_W1AEBI@Z 0000000140036250 f i libucrtd:crtmbox.obj
 0001:000352a0       ??$output_debug_string@AEBQEB_W@?$__crt_char_traits@_W@@SAXAEBQEB_W@Z 00000001400362a0 f i libucrtd:crtmbox.obj
 0001:000352c0       __acrt_show_wide_message_box 00000001400362c0 f   libucrtd:crtmbox.obj
 0001:00035320       ??$__acrt_convert_wcs_mbs_cp@D_WV<lambda_7c9dea7b4ca7285d2cdb541a38da6275>@@U__crt_win32_buffer_internal_dynamic_resizing@@@@YAHQEBDAEAV?$__crt_win32_buffer@_WU__crt_win32_buffer_internal_dynamic_resizing@@@@AEBV<lambda_7c9dea7b4ca7285d2cdb541a38da6275>@@I@Z 0000000140036320 f i libucrtd:argv_wildcards.obj
 0001:000354d0       ??$__acrt_convert_wcs_mbs_cp@_WDV<lambda_d8593a27d1aa8c02be35c86a17d324c4>@@U__crt_win32_buffer_internal_dynamic_resizing@@@@YAHQEB_WAEAV?$__crt_win32_buffer@DU__crt_win32_buffer_internal_dynamic_resizing@@@@AEBV<lambda_d8593a27d1aa8c02be35c86a17d324c4>@@I@Z 00000001400364d0 f i libucrtd:argv_wildcards.obj
 0001:00035680       ??$__acrt_mbs_to_wcs_cp@U__crt_win32_buffer_internal_dynamic_resizing@@@@YAHQEBDAEAV?$__crt_win32_buffer@_WU__crt_win32_buffer_internal_dynamic_resizing@@@@I@Z 0000000140036680 f i libucrtd:argv_wildcards.obj
 0001:000356d0       ??$__acrt_wcs_to_mbs_cp@U__crt_win32_buffer_internal_dynamic_resizing@@@@YAHQEB_WAEAV?$__crt_win32_buffer@DU__crt_win32_buffer_internal_dynamic_resizing@@@@I@Z 00000001400366d0 f i libucrtd:argv_wildcards.obj
 0001:00036110       ??$tcsncpy_s@AEAPEAD_KAEAPEADAEB_K@?$__crt_char_traits@D@@SAHAEAPEAD$$QEA_K0AEB_K@Z 0000000140037110 f i libucrtd:argv_wildcards.obj
 0001:00036110       ??$tcsncpy_s@PEADAEB_KAEBQEBDAEB_K@?$__crt_char_traits@D@@SAH$$QEAPEADAEB_KAEBQEBD1@Z 0000000140037110 f i libucrtd:argv_wildcards.obj
 0001:00036110       ??$tcsncpy_s@PEAD_KAEBQEBDAEB_K@?$__crt_char_traits@D@@SAH$$QEAPEAD$$QEA_KAEBQEBDAEB_K@Z 0000000140037110 f i libucrtd:argv_wildcards.obj
 0001:00036160       ??$tcspbrk@AEAPEADAEAY02$$CBD@?$__crt_char_traits@D@@SAPEADAEAPEADAEAY02$$CBD@Z 0000000140037160 f i libucrtd:argv_wildcards.obj
 0001:00036190       ??0?$__crt_win32_buffer@DU__crt_win32_buffer_internal_dynamic_resizing@@@@QEAA@XZ 0000000140037190 f i libucrtd:argv_wildcards.obj
 0001:00036190       ??0?$__crt_win32_buffer@_WU__crt_win32_buffer_internal_dynamic_resizing@@@@QEAA@XZ 0000000140037190 f i libucrtd:argv_wildcards.obj
 0001:00036230       ??1?$__crt_unique_handle_t@U__crt_findfile_traits@@@@QEAA@XZ 0000000140037230 f i libucrtd:argv_wildcards.obj
 0001:00036250       ??1?$__crt_win32_buffer@DU__crt_win32_buffer_internal_dynamic_resizing@@@@QEAA@XZ 0000000140037250 f i libucrtd:argv_wildcards.obj
 0001:00036250       ??1?$__crt_win32_buffer@_WU__crt_win32_buffer_internal_dynamic_resizing@@@@QEAA@XZ 0000000140037250 f i libucrtd:argv_wildcards.obj
 0001:00036300       ??R<lambda_7c9dea7b4ca7285d2cdb541a38da6275>@@QEBAHIQEBDQEA_W_K@Z 0000000140037300 f i libucrtd:argv_wildcards.obj
 0001:000363e0       ??R<lambda_d8593a27d1aa8c02be35c86a17d324c4>@@QEBAHIQEB_WQEAD_K@Z 00000001400373e0 f i libucrtd:argv_wildcards.obj
 0001:000363e0       ??R<lambda_f788ae46380686e8b737efdd8c720d07>@@QEBAHIQEB_WQEAD_K@Z 00000001400373e0 f i libucrtd:getmodulefilenamea.obj
 0001:00036440       ?__acrt_get_utf8_acp_compatibility_codepage@@YAIXZ 0000000140037440 f i libucrtd:argv_wildcards.obj
 0001:000364e0       ?_deallocate@?$__crt_win32_buffer@DU__crt_win32_buffer_internal_dynamic_resizing@@@@AEAAXXZ 00000001400374e0 f i libucrtd:argv_wildcards.obj
 0001:000364e0       ?_deallocate@?$__crt_win32_buffer@_WU__crt_win32_buffer_internal_dynamic_resizing@@@@AEAAXXZ 00000001400374e0 f i libucrtd:argv_wildcards.obj
 0001:00036530       ?allocate@?$__crt_win32_buffer@DU__crt_win32_buffer_internal_dynamic_resizing@@@@QEAAH_K@Z 0000000140037530 f i libucrtd:argv_wildcards.obj
 0001:000365b0       ?allocate@?$__crt_win32_buffer@_WU__crt_win32_buffer_internal_dynamic_resizing@@@@QEAAH_K@Z 00000001400375b0 f i libucrtd:argv_wildcards.obj
 0001:00036640       ?allocate@__crt_win32_buffer_internal_dynamic_resizing@@SAHQEAPEAX_KAEBV__crt_win32_buffer_empty_debug_info@@@Z 0000000140037640 f i libucrtd:argv_wildcards.obj
 0001:00036710       ?capacity@?$__crt_win32_buffer@DU__crt_win32_buffer_internal_dynamic_resizing@@@@QEBA_KXZ 0000000140037710 f i libucrtd:argv_wildcards.obj
 0001:00036710       ?capacity@?$__crt_win32_buffer@DU__crt_win32_buffer_no_resizing@@@@QEBA_KXZ 0000000140037710 f i libucrtd:getmodulefilenamea.obj
 0001:00036710       ?capacity@?$__crt_win32_buffer@_WU__crt_win32_buffer_internal_dynamic_resizing@@@@QEBA_KXZ 0000000140037710 f i libucrtd:argv_wildcards.obj
 0001:00036720       ?close@?$__crt_unique_handle_t@U__crt_findfile_traits@@@@QEAAXXZ 0000000140037720 f i libucrtd:argv_wildcards.obj
 0001:00036760       ?close@__crt_findfile_traits@@SA_NPEAX@Z 0000000140037760 f i libucrtd:argv_wildcards.obj
 0001:000367a0       ?data@?$__crt_win32_buffer@DU__crt_win32_buffer_internal_dynamic_resizing@@@@QEAAPEADXZ 00000001400377a0 f i libucrtd:argv_wildcards.obj
 0001:000367a0       ?data@?$__crt_win32_buffer@DU__crt_win32_buffer_no_resizing@@@@QEAAPEADXZ 00000001400377a0 f i libucrtd:getmodulefilenamea.obj
 0001:000367a0       ?data@?$__crt_win32_buffer@_WU__crt_win32_buffer_internal_dynamic_resizing@@@@QEAAPEA_WXZ 00000001400377a0 f i libucrtd:argv_wildcards.obj
 0001:000367b0       ?deallocate@__crt_win32_buffer_internal_dynamic_resizing@@SAXQEAXAEBV__crt_win32_buffer_empty_debug_info@@@Z 00000001400377b0 f i libucrtd:argv_wildcards.obj
 0001:00036aa0       ?set_to_nullptr@?$__crt_win32_buffer@DU__crt_win32_buffer_internal_dynamic_resizing@@@@QEAAXXZ 0000000140037aa0 f i libucrtd:argv_wildcards.obj
 0001:00036aa0       ?set_to_nullptr@?$__crt_win32_buffer@_WU__crt_win32_buffer_internal_dynamic_resizing@@@@QEAAXXZ 0000000140037aa0 f i libucrtd:argv_wildcards.obj
 0001:00036ae0       ?size@?$__crt_win32_buffer@DU__crt_win32_buffer_internal_dynamic_resizing@@@@QEAAX_K@Z 0000000140037ae0 f i libucrtd:argv_wildcards.obj
 0001:00036ae0       ?size@?$__crt_win32_buffer@DU__crt_win32_buffer_no_resizing@@@@QEAAX_K@Z 0000000140037ae0 f i libucrtd:getmodulefilenamea.obj
 0001:00036ae0       ?size@?$__crt_win32_buffer@_WU__crt_win32_buffer_internal_dynamic_resizing@@@@QEAAX_K@Z 0000000140037ae0 f i libucrtd:argv_wildcards.obj
 0001:00036b20       ?strpbrk@@YAPEADQEADQEBD@Z 0000000140037b20 f i libucrtd:argv_wildcards.obj
 0001:00036b50       __acrt_expand_narrow_argv_wildcards 0000000140037b50 f   libucrtd:argv_wildcards.obj
 0001:00036b80       ??$__acrt_convert_wcs_mbs_cp@_WDV<lambda_f788ae46380686e8b737efdd8c720d07>@@U__crt_win32_buffer_no_resizing@@@@YAHQEB_WAEAV?$__crt_win32_buffer@DU__crt_win32_buffer_no_resizing@@@@AEBV<lambda_f788ae46380686e8b737efdd8c720d07>@@I@Z 0000000140037b80 f i libucrtd:getmodulefilenamea.obj
 0001:00036d30       ??$__acrt_wcs_to_mbs_cp@U__crt_win32_buffer_no_resizing@@@@YAHQEB_WAEAV?$__crt_win32_buffer@DU__crt_win32_buffer_no_resizing@@@@I@Z 0000000140037d30 f i libucrtd:getmodulefilenamea.obj
 0001:00036d80       ??0?$__crt_win32_buffer@DU__crt_win32_buffer_no_resizing@@@@QEAA@QEAD_K@Z 0000000140037d80 f i libucrtd:getmodulefilenamea.obj
 0001:00036df0       ??1?$__crt_win32_buffer@DU__crt_win32_buffer_no_resizing@@@@QEAA@XZ 0000000140037df0 f i libucrtd:getmodulefilenamea.obj
 0001:00036e20       ?_deallocate@?$__crt_win32_buffer@DU__crt_win32_buffer_no_resizing@@@@AEAAXXZ 0000000140037e20 f i libucrtd:getmodulefilenamea.obj
 0001:00036e70       ?allocate@?$__crt_win32_buffer@DU__crt_win32_buffer_no_resizing@@@@QEAAH_K@Z 0000000140037e70 f i libucrtd:getmodulefilenamea.obj
 0001:00036ef0       ?allocate@__crt_win32_buffer_no_resizing@@SAHQEAPEAX_KAEBV__crt_win32_buffer_empty_debug_info@@@Z 0000000140037ef0 f i libucrtd:getmodulefilenamea.obj
 0001:00036f20       ?deallocate@__crt_win32_buffer_no_resizing@@SAXQEAXAEBV__crt_win32_buffer_empty_debug_info@@@Z 0000000140037f20 f i libucrtd:getmodulefilenamea.obj
 0001:00036f30       ?set_to_nullptr@?$__crt_win32_buffer@DU__crt_win32_buffer_no_resizing@@@@QEAAXXZ 0000000140037f30 f i libucrtd:getmodulefilenamea.obj
 0001:00036f70       ?size@?$__crt_win32_buffer@DU__crt_win32_buffer_no_resizing@@@@QEBA_KXZ 0000000140037f70 f i libucrtd:getmodulefilenamea.obj
 0001:00036f80       __acrt_GetModuleFileNameA  0000000140037f80 f   libucrtd:getmodulefilenamea.obj
 0001:00037100       ??$initialize_from_array@$$BY10BAA@E@?$dual_state_global@PEAE@__crt_state_management@@QEAAXAEAY10BAA@E@Z 0000000140038100 f i libucrtd:mbctype.obj
 0001:00037170       ??$initialize_from_array@$$BY10BAB@E@?$dual_state_global@PEAE@__crt_state_management@@QEAAXAEAY10BAB@E@Z 0000000140038170 f i libucrtd:mbctype.obj
 0001:00037d10       __acrt_initialize_multibyte 0000000140038d10 f   libucrtd:mbctype.obj
 0001:00037de0       __acrt_update_thread_multibyte_data 0000000140038de0 f   libucrtd:mbctype.obj
 0001:00037e20       _setmbcp_nolock            0000000140038e20 f   libucrtd:mbctype.obj
 0001:000383d0       _ismbblead                 00000001400393d0 f   libucrtd:ismbbyte.obj
 0001:000384a0       __acrt_MultiByteToWideChar 00000001400394a0 f   libucrtd:multibytetowidechar.obj
 0001:000385a0       __acrt_WideCharToMultiByte 00000001400395a0 f   libucrtd:widechartomultibyte.obj
 0001:000387e0       __dcrt_get_narrow_environment_from_os 00000001400397e0 f   libucrtd:get_environment_from_os.obj
 0001:00039580       ??$get_or_create_environment_nolock@$$V@?$__crt_char_traits@D@@SAPEAPEADXZ 000000014003a580 f i libucrtd:setenv.obj
 0001:00039590       ??$set_environment_variable@AEBQEADQEAD@?$__crt_char_traits@D@@SAHAEBQEAD$$QEBQEAD@Z 000000014003a590 f i libucrtd:setenv.obj
 0001:000395c0       ??$tcschr@AEBQEADD@?$__crt_char_traits@D@@SAPEADAEBQEAD$$QEAD@Z 000000014003a5c0 f i libucrtd:setenv.obj
 0001:00039600       ??$tcsnicoll@AEBQEBDAEAPEADAEB_K@?$__crt_char_traits@D@@SAHAEBQEBDAEAPEADAEB_K@Z 000000014003a600 f i libucrtd:setenv.obj
 0001:00039640       ??$tcsnlen@PEADH@?$__crt_char_traits@D@@SA_K$$QEAPEAD$$QEAH@Z 000000014003a640 f i libucrtd:setenv.obj
 0001:00039690       ?strchr@@YAPEADQEADH@Z     000000014003a690 f i libucrtd:setenv.obj
 0001:000396b0       __dcrt_set_variable_in_narrow_environment_nolock 000000014003a6b0 f   libucrtd:setenv.obj
 0001:000396d0       __acrt_initialize_locks    000000014003a6d0 f   libucrtd:locks.obj
 0001:00039740       __acrt_lock                000000014003a740 f   libucrtd:locks.obj
 0001:00039770       __acrt_uninitialize_locks  000000014003a770 f   libucrtd:locks.obj
 0001:000397d0       __acrt_unlock              000000014003a7d0 f   libucrtd:locks.obj
 0001:00039ae0       __acrt_get_developer_information_policy 000000014003aae0 f   libucrtd:win_policies.obj
 0001:00039b00       __acrt_get_process_end_policy 000000014003ab00 f   libucrtd:win_policies.obj
 0001:00039b10       __acrt_get_windowing_model_policy 000000014003ab10 f   libucrtd:win_policies.obj
 0001:00039b30       __acrt_initialize_fmode    000000014003ab30 f   libucrtd:txtmode.obj
 0001:00039b90       __acrt_locale_free_monetary 000000014003ab90 f   libucrtd:initmon.obj
 0001:00039da0       __acrt_locale_free_numeric 000000014003ada0 f   libucrtd:initnum.obj
 0001:00039f40       __acrt_locale_free_time    000000014003af40 f   libucrtd:inittime.obj
 0001:0003a0b0       _chvalidator_l             000000014003b0b0 f   libucrtd:isctype.obj
 0001:0003a160       _isctype_l                 000000014003b160 f   libucrtd:isctype.obj
 0001:0003a390       ??1?$__crt_scoped_stack_ptr@_W@@QEAA@XZ 000000014003b390 f i libucrtd:getstringtypea.obj
 0001:0003a3b0       _MallocaComputeSize        000000014003b3b0 f i libucrtd:getstringtypea.obj
 0001:0003a3f0       _MarkAllocaS               000000014003b3f0 f i libucrtd:getstringtypea.obj
 0001:0003a420       __acrt_GetStringTypeA      000000014003b420 f   libucrtd:getstringtypea.obj
 0001:0003a680       _freea_crt                 000000014003b680 f i libucrtd:getstringtypea.obj
 0001:0003a720       __acrt_add_locale_ref      000000014003b720 f   libucrtd:locale_refcounting.obj
 0001:0003a880       __acrt_free_locale         000000014003b880 f   libucrtd:locale_refcounting.obj
 0001:0003ac00       __acrt_locale_add_lc_time_reference 000000014003bc00 f   libucrtd:locale_refcounting.obj
 0001:0003ac40       __acrt_locale_free_lc_time_if_unreferenced 000000014003bc40 f   libucrtd:locale_refcounting.obj
 0001:0003aca0       __acrt_locale_release_lc_time_reference 000000014003bca0 f   libucrtd:locale_refcounting.obj
 0001:0003ace0       __acrt_release_locale_ref  000000014003bce0 f   libucrtd:locale_refcounting.obj
 0001:0003ae50       __acrt_update_thread_locale_data 000000014003be50 f   libucrtd:locale_refcounting.obj
 0001:0003aef0       _updatetlocinfoEx_nolock   000000014003bef0 f   libucrtd:locale_refcounting.obj
 0001:0003af90       __acrt_initialize_heap     000000014003bf90 f   libucrtd:heap_handle.obj
 0001:0003afc0       __acrt_uninitialize_heap   000000014003bfc0 f   libucrtd:heap_handle.obj
 0001:0003afe0       __acrt_execute_initializers 000000014003bfe0 f   libucrtd:shared_initialization.obj
 0001:0003b0e0       __acrt_execute_uninitializers 000000014003c0e0 f   libucrtd:shared_initialization.obj
 0001:0003b170       __acrt_initialize_new_handler 000000014003c170 f   libucrtd:new_handler.obj
 0001:0003b190       _callnewh                  000000014003c190 f   libucrtd:new_handler.obj
 0001:0003b1f0       _query_new_handler         000000014003c1f0 f   libucrtd:new_handler.obj
 0001:0003b400       __acrt_get_sigabrt_handler 000000014003c400 f   libucrtd:signal.obj
 0001:0003b430       __acrt_initialize_signal_handlers 000000014003c430 f   libucrtd:signal.obj
 0001:0003b490       __fpecode                  000000014003c490 f   libucrtd:signal.obj
 0001:0003b4b0       raise                      000000014003c4b0 f   libucrtd:signal.obj
 0001:0003b9b0       _free_base                 000000014003c9b0 f   libucrtd:free_base.obj
 0001:0003ba10       _realloc_base              000000014003ca10 f   libucrtd:realloc_base.obj
 0001:0003bb30       _expand_base               000000014003cb30 f   libucrtd:expand.obj
 0001:0003bcc0       _CrtDefaultAllocHook       000000014003ccc0 f   libucrtd:debug_heap_hook.obj
 0001:0003bce0       _VCrtDbgReportA            000000014003cce0 f   libucrtd:dbgrptt.obj
 0001:0003c720       _VCrtDbgReportW            000000014003d720 f   libucrtd:dbgrptt.obj
 0001:0003d330       _snprintf_s                000000014003e330 f i libucrtd:dbgrptt.obj
 0001:0003d3a0       _vsnprintf_s               000000014003e3a0 f i libucrtd:dbgrptt.obj
 0001:0003d3f0       _vsnprintf_s_l             000000014003e3f0 f i libucrtd:dbgrptt.obj
 0001:0003d520       __acrt_DownlevelLocaleNameToLCID 000000014003e520 f   libucrtd:lcidtoname_downlevel.obj
 0001:0003d700       _commit                    000000014003e700 f   libucrtd:commit.obj
 0001:0003d8e0       __ascii_wcsnicmp           000000014003e8e0 f   libucrtd:wcsnicmp.obj
 0001:0003d9b0       __ascii_strnicmp           000000014003e9b0 f   libucrtd:strnicmp.obj
 0001:0003da80       _strnicmp                  000000014003ea80 f   libucrtd:strnicmp.obj
 0001:0003dcd0       _strnicmp_l                000000014003ecd0 f   libucrtd:strnicmp.obj
 0001:0003e390       ??$tsopen_nolock@PEAHAEBQEAHAEBQEBDAEBHAEBHAEBHAEBH@?$__crt_char_traits@D@@SAH$$QEAPEAHAEBQEAHAEBQEBDAEBH333@Z 000000014003f390 f i libucrtd:open.obj
 0001:0003f0e0       _sopen_dispatch            00000001400400e0 f   libucrtd:open.obj
 0001:0003f130       _sopen_nolock              0000000140040130 f   libucrtd:open.obj
 0001:0003f200       _sopen_s                   0000000140040200 f   libucrtd:open.obj
 0001:0003f250       _wsopen_nolock             0000000140040250 f   libucrtd:open.obj
 0001:0003f9c0       _isatty                    00000001400409c0 f   libucrtd:isatty.obj
 0001:0003fad0       __acrt_stdio_allocate_buffer_nolock 0000000140040ad0 f   libucrtd:_getbuf.obj
 0001:0003fcc0       ?__mbrtowc_utf8@__crt_mbstring@@YA_KPEA_WPEBD_KPEAU_Mbstatet@@AEAV__crt_cached_ptd_host@@@Z 0000000140040cc0 f   libucrtd:mbrtowc.obj
 0001:0003fd40       ?__mbsrtowcs_utf8@__crt_mbstring@@YA_KPEA_WPEAPEBD_KPEAU_Mbstatet@@AEAV__crt_cached_ptd_host@@@Z 0000000140040d40 f   libucrtd:mbrtowc.obj
 0001:00040090       _putwch_nolock             0000000140041090 f   libucrtd:putwch.obj
 0001:00040290       __acrt_fp_strflt_to_string 0000000140041290 f   libucrtd:_fptostr.obj
 0001:00040e50       ??0big_integer@__crt_strtox@@QEAA@AEBU01@@Z 0000000140041e50 f i libucrtd:cfout.obj
 0001:00040e50       ??4big_integer@__crt_strtox@@QEAAAEAU01@AEBU01@@Z 0000000140041e50 f i libucrtd:cfout.obj
 0001:00040eb0       ??0big_integer@__crt_strtox@@QEAA@XZ 0000000140041eb0 f i libucrtd:cfout.obj
 0001:00040f70       ??8__crt_strtox@@YA_NAEBUbig_integer@0@0@Z 0000000140041f70 f i libucrtd:cfout.obj
 0001:00040fe0       ??9__crt_strtox@@YA_NAEBUbig_integer@0@0@Z 0000000140041fe0 f i libucrtd:cfout.obj
 0001:00041020       ?add_carry@__crt_strtox@@YAIAEAIII@Z 0000000140042020 f i libucrtd:cfout.obj
 0001:00041070       ?add_multiply_carry@__crt_strtox@@YAIAEAIIII@Z 0000000140042070 f i libucrtd:cfout.obj
 0001:000410d0       ?bit_scan_reverse@__crt_strtox@@YAII@Z 00000001400420d0 f i libucrtd:cfout.obj
 0001:00041110       ?count_sequential_high_zeroes@__crt_strtox@@YAII@Z 0000000140042110 f i libucrtd:cfout.obj
 0001:00041150       ?divide@__crt_strtox@@YA_KAEAUbig_integer@1@AEBU21@@Z 0000000140042150 f i libucrtd:cfout.obj
 0001:00041b20       ?is_zero@__crt_strtox@@YA_NAEBUbig_integer@1@@Z 0000000140042b20 f i libucrtd:cfout.obj
 0001:00041b50       ?make_big_integer@__crt_strtox@@YA?AUbig_integer@1@_K@Z 0000000140042b50 f i libucrtd:cfout.obj
 0001:00041c20       ?make_big_integer_power_of_two@__crt_strtox@@YA?AUbig_integer@1@I@Z 0000000140042c20 f i libucrtd:cfout.obj
 0001:00041cf0       ?multiply@__crt_strtox@@YA_NAEAUbig_integer@1@AEBU21@@Z 0000000140042cf0 f i libucrtd:cfout.obj
 0001:00042070       ?multiply@__crt_strtox@@YA_NAEAUbig_integer@1@I@Z 0000000140043070 f i libucrtd:cfout.obj
 0001:00042190       ?multiply_64_32@__crt_strtox@@YA_K_KI@Z 0000000140043190 f i libucrtd:cfout.obj
 0001:000421b0       ?multiply_by_power_of_ten@__crt_strtox@@YA_NAEAUbig_integer@1@I@Z 00000001400431b0 f i libucrtd:cfout.obj
 0001:00042360       ?multiply_core@__crt_strtox@@YAIQEAIII@Z 0000000140043360 f i libucrtd:cfout.obj
 0001:000423e0       ?shift_left@__crt_strtox@@YA_NAEAUbig_integer@1@I@Z 00000001400433e0 f i libucrtd:cfout.obj
 0001:000426c0       __acrt_fltout              00000001400436c0 f   libucrtd:cfout.obj
 0001:00042a80       fegetround                 0000000140043a80 f   libucrtd:fegetround.obj
 0001:00042aa0       ?__c32rtomb_utf8@__crt_mbstring@@YA_KPEAD_UPEAU_Mbstatet@@AEAV__crt_cached_ptd_host@@@Z 0000000140043aa0 f   libucrtd:c32rtomb.obj
 0001:00042d40       __acrt_OutputDebugStringA  0000000140043d40 f   libucrtd:outputdebugstringa.obj
 0001:00042f90       qsort                      0000000140043f90 f   libucrtd:qsort.obj
 0001:00043e00       strncpy_s                  0000000140044e00 f   libucrtd:strncpy_s.obj
 0001:00043f70       strpbrk                    0000000140044f70 f   libucrtd:strpbrk.obj
 0001:00044860       _mbsdec                    0000000140045860 f   libucrtd:mbsdec.obj
 0001:00044890       _mbsdec_l                  0000000140045890 f   libucrtd:mbsdec.obj
 0001:00045120       __acrt_LCMapStringA        0000000140046120 f   libucrtd:lcmapstringa.obj
 0001:00045200       _strnicoll                 0000000140046200 f   libucrtd:strnicol.obj
 0001:00045260       _strnicoll_l               0000000140046260 f   libucrtd:strnicol.obj
 0001:00045660       __acrt_SetEnvironmentVariableA 0000000140046660 f   libucrtd:setenvironmentvariablea.obj
 0001:00046360       _itoa_s                    0000000140047360 f   libucrtd:xtoa.obj
 0001:000463c0       _itow_s                    00000001400473c0 f   libucrtd:xtoa.obj
 0001:00046420       _malloc_base               0000000140047420 f   libucrtd:malloc_base.obj
 0001:00046fd0       mbstowcs_s                 0000000140047fd0 f   libucrtd:mbstowcs.obj
 0001:00047e40       wcstombs_s                 0000000140048e40 f   libucrtd:wcstombs.obj
 0001:00048530       strcat_s                   0000000140049530 f   libucrtd:strcat_s.obj
 0001:00048560       ??0__crt_seek_guard@@QEAA@H_J@Z 0000000140049560 f i libucrtd:chsize.obj
 0001:000485e0       ??1__crt_seek_guard@@QEAA@XZ 00000001400495e0 f i libucrtd:chsize.obj
 0001:00048610       _chsize_nolock             0000000140049610 f   libucrtd:chsize.obj
 0001:00048660       _chsize_nolock_internal    0000000140049660 f   libucrtd:chsize.obj
 0001:000489d0       ?__mbrtoc32_utf8@__crt_mbstring@@YA_KPEA_UPEBD_KPEAU_Mbstatet@@AEAV__crt_cached_ptd_host@@@Z 00000001400499d0 f   libucrtd:mbrtoc32.obj
 0001:00048f10       __dcrt_lowio_ensure_console_output_initialized 0000000140049f10 f   libucrtd:initcon.obj
 0001:00048f40       __dcrt_terminate_console_output 0000000140049f40 f   libucrtd:initcon.obj
 0001:00048f70       __dcrt_write_console       0000000140049f70 f   libucrtd:initcon.obj
 0001:00048fb0       log10                      0000000140049fb0 f   libucrtd:log10.obj
 0001:00049560       ceil                       000000014004a560 f   libucrtd:ceil.obj
 0001:00049730       _controlfp_s               000000014004a730 f   libucrtd:contrlfp.obj
 0001:00049860       fegetenv                   000000014004a860 f   libucrtd:fegetenv.obj
 0001:00049890       fesetenv                   000000014004a890 f   libucrtd:fesetenv.obj
 0001:00049910       feholdexcept               000000014004a910 f   libucrtd:feholdexcept.obj
 0001:00049980       ??$__acrt_fenv_shift_bits@W4__acrt_fenv_abstract_control@@@@YA?AW4__acrt_fenv_abstract_control@@W40@0I@Z 000000014004a980 f i libucrtd:_fenvutils.obj
 0001:00049980       ??$__acrt_fenv_shift_bits@W4__acrt_fenv_abstract_status@@@@YA?AW4__acrt_fenv_abstract_status@@W40@0I@Z 000000014004a980 f i libucrtd:_fenvutils.obj
 0001:000499b0       ??$__acrt_fenv_translate_bit@W4__acrt_fenv_abstract_control@@W4__acrt_fenv_machine_sse_control@@@@YA?AW4__acrt_fenv_abstract_control@@W4__acrt_fenv_machine_sse_control@@0W40@1@Z 000000014004a9b0 f i libucrtd:_fenvutils.obj
 0001:00049a10       ??$__acrt_fenv_translate_bit@W4__acrt_fenv_abstract_status@@W4__acrt_fenv_machine_sse_status@@@@YA?AW4__acrt_fenv_abstract_status@@W4__acrt_fenv_machine_sse_status@@0W40@1@Z 000000014004aa10 f i libucrtd:_fenvutils.obj
 0001:00049a10       ??$__acrt_fenv_translate_bit@W4__acrt_fenv_machine_sse_status@@W4__acrt_fenv_abstract_status@@@@YA?AW4__acrt_fenv_machine_sse_status@@W4__acrt_fenv_abstract_status@@0W40@1@Z 000000014004aa10 f i libucrtd:_fenvutils.obj
 0001:00049a60       ??$__acrt_fenv_translate_bit@W4__acrt_fenv_machine_sse_control@@W4__acrt_fenv_abstract_control@@@@YA?AW4__acrt_fenv_machine_sse_control@@W4__acrt_fenv_abstract_control@@0W40@1@Z 000000014004aa60 f i libucrtd:_fenvutils.obj
 0001:00049ac0       ??$__acrt_fenv_unshift_bits@W4__acrt_fenv_abstract_control@@@@YA?AW4__acrt_fenv_abstract_control@@W40@0I@Z 000000014004aac0 f i libucrtd:_fenvutils.obj
 0001:00049ac0       ??$__acrt_fenv_unshift_bits@W4__acrt_fenv_abstract_status@@@@YA?AW4__acrt_fenv_abstract_status@@W40@0I@Z 000000014004aac0 f i libucrtd:_fenvutils.obj
 0001:00049fb0       ??I@YA?AW4__acrt_fenv_abstract_control@@W40@0@Z 000000014004afb0 f i libucrtd:_fenvutils.obj
 0001:00049fb0       ??I@YA?AW4__acrt_fenv_abstract_status@@W40@0@Z 000000014004afb0 f i libucrtd:_fenvutils.obj
 0001:00049fb0       ??I@YA?AW4__acrt_fenv_machine_sse_status@@W40@0@Z 000000014004afb0 f i libucrtd:_fenvutils.obj
 0001:00049fd0       ??I@YA?AW4__acrt_fenv_machine_sse_control@@W40@0@Z 000000014004afd0 f i libucrtd:_fenvutils.obj
 0001:00049ff0       ??U@YA?AW4__acrt_fenv_abstract_control@@W40@0@Z 000000014004aff0 f i libucrtd:_fenvutils.obj
 0001:00049ff0       ??U@YA?AW4__acrt_fenv_abstract_status@@W40@0@Z 000000014004aff0 f i libucrtd:_fenvutils.obj
 0001:0004a010       ??U@YA?AW4__acrt_fenv_machine_sse_control@@W40@0@Z 000000014004b010 f i libucrtd:_fenvutils.obj
 0001:0004a030       ??_5@YAAEAW4__acrt_fenv_abstract_control@@AEAW40@W40@@Z 000000014004b030 f i libucrtd:_fenvutils.obj
 0001:0004a030       ??_5@YAAEAW4__acrt_fenv_abstract_status@@AEAW40@W40@@Z 000000014004b030 f i libucrtd:_fenvutils.obj
 0001:0004a030       ??_5@YAAEAW4__acrt_fenv_machine_sse_status@@AEAW40@W40@@Z 000000014004b030 f i libucrtd:_fenvutils.obj
 0001:0004a060       ??_5@YAAEAW4__acrt_fenv_machine_sse_control@@AEAW40@W40@@Z 000000014004b060 f i libucrtd:_fenvutils.obj
 0001:0004a090       ?__acrt_fenv_shift_abstract_sse_control@@YA?AW4__acrt_fenv_abstract_control@@W41@@Z 000000014004b090 f i libucrtd:_fenvutils.obj
 0001:0004a0e0       ?__acrt_fenv_shift_abstract_sse_status@@YA?AW4__acrt_fenv_abstract_status@@W41@@Z 000000014004b0e0 f i libucrtd:_fenvutils.obj
 0001:0004a110       ?__acrt_fenv_unshift_abstract_sse_control@@YA?AW4__acrt_fenv_abstract_control@@W41@@Z 000000014004b110 f i libucrtd:_fenvutils.obj
 0001:0004a160       ?__acrt_fenv_unshift_abstract_sse_status@@YA?AW4__acrt_fenv_abstract_status@@W41@@Z 000000014004b160 f i libucrtd:_fenvutils.obj
 0001:0004a450       __acrt_fenv_get_common_round_control 000000014004b450 f   libucrtd:_fenvutils.obj
 0001:0004a470       __acrt_fenv_get_control    000000014004b470 f   libucrtd:_fenvutils.obj
 0001:0004a4a0       __acrt_fenv_get_status     000000014004b4a0 f   libucrtd:_fenvutils.obj
 0001:0004a4d0       __acrt_fenv_set_control    000000014004b4d0 f   libucrtd:_fenvutils.obj
 0001:0004a4f0       __acrt_fenv_set_status     000000014004b4f0 f   libucrtd:_fenvutils.obj
 0001:0004a510       ?reset_and_return@__crt_mbstring@@YA_K_KPEAU_Mbstatet@@@Z 000000014004b510 f   libucrtd:common_utf8.obj
 0001:0004a550       ?return_illegal_sequence@__crt_mbstring@@YA_KPEAU_Mbstatet@@AEAV__crt_cached_ptd_host@@@Z 000000014004b550 f   libucrtd:common_utf8.obj
 0001:0004a5b0       __strncnt                  000000014004b5b0 f   libucrtd:strncnt.obj
 0001:0004acc0       __acrt_CompareStringA      000000014004bcc0 f   libucrtd:comparestringa.obj
 0001:0004ad60       ?__wcsrtombs_utf8@__crt_mbstring@@YA_KPEADPEAPEB_W_KPEAU_Mbstatet@@AEAV__crt_cached_ptd_host@@@Z 000000014004bd60 f   libucrtd:wcrtomb.obj
 0001:0004afe0       __acrt_initialize_fma3     000000014004bfe0 f   libucrtd:fma3_available.obj
 0001:0004b090       _log10_special             000000014004c090 f   libucrtd:log_special.obj
 0001:0004b3d0       _handle_error              000000014004c3d0 f   libucrtd:libm_error.obj
 0001:0004b560       _handle_nan                000000014004c560 f   libucrtd:libm_error.obj
 0001:0004b7a0       _clearfp                   000000014004c7a0 f   libucrtd:ieee.obj
 0001:0004b7c0       _control87                 000000014004c7c0 f   libucrtd:ieee.obj
 0001:0004ba50       ?__c16rtomb_utf8@__crt_mbstring@@YA_KPEAD_SPEAU_Mbstatet@@AEAV__crt_cached_ptd_host@@@Z 000000014004ca50 f   libucrtd:c16rtomb.obj
 0001:0004bc90       _raise_exc                 000000014004cc90 f   libucrtd:fpexcept.obj
 0001:0004bcf0       _raise_exc_ex              000000014004ccf0 f   libucrtd:fpexcept.obj
 0001:0004c370       _set_errno_from_matherr    000000014004d370 f   libucrtd:fpexcept.obj
 0001:0004c3c0       _clrfp                     000000014004d3c0 f   libucrtd:fpctrl.obj
 0001:0004c3f0       _ctrlfp                    000000014004d3f0 f   libucrtd:fpctrl.obj
 0001:0004c4a0       _set_statfp                000000014004d4a0 f   libucrtd:fpctrl.obj
 0001:0004c4e0       _statfp                    000000014004d4e0 f   libucrtd:fpctrl.obj
 0001:0004c520       _get_fpsr                  000000014004d520 f   libucrtd:fpsr.obj
 0001:0004c530       _set_fpsr                  000000014004d530 f   libucrtd:fpsr.obj
 0001:0004c53a       _fclrf                     000000014004d53a f   libucrtd:fpsr.obj
 0001:0004c54e       _frnd                      000000014004d54e f   libucrtd:fpsr.obj
 0001:0004c570       _FindPESection             000000014004d570 f   LIBCMTD:pesect.obj
 0001:0004c620       _IsNonwritableInCurrentImage 000000014004d620 f   LIBCMTD:pesect.obj
 0001:0004c6b0       _ValidateImageBase         000000014004d6b0 f   LIBCMTD:pesect.obj
 0001:0004c730       ??1type_info@@UEAA@XZ      000000014004d730 f   LIBCMTD:std_type_info_static.obj
 0001:0004c750       ??_Etype_info@@UEAAPEAXI@Z 000000014004d750 f i LIBCMTD:std_type_info_static.obj
 0001:0004c750       ??_Gtype_info@@UEAAPEAXI@Z 000000014004d750 f i LIBCMTD:std_type_info_static.obj
 0001:0004c790       ??3@YAXPEAX_K@Z            000000014004d790 f   LIBCMTD:delete_scalar_size.obj
 0001:0004c7b0       __GSHandlerCheck_SEH       000000014004d7b0 f   LIBCMTD:gshandlerseh.obj
 0001:0004c880       __chkstk                   000000014004d880 f   LIBCMTD:chkstk.obj
 0001:0004c880       _alloca_probe              000000014004d880 f   LIBCMTD:chkstk.obj
 0001:0004c8d0       __GSHandlerCheck_EH        000000014004d8d0 f   LIBCMTD:gshandlereh.obj
 0001:0004c980       ??3@YAXPEAX@Z              000000014004d980 f   LIBCMTD:delete_scalar.obj
 0001:0004c9a0       __C_specific_handler_noexcept 000000014004d9a0 f   libvcruntimed:chandler_noexcept.obj
 0001:0004ca40       memcmp                     000000014004da40 f   libvcruntimed:memcmp.obj
 0001:0004cb10       strrchr                    000000014004db10 f   libvcruntimed:strrchr.obj
 0001:0004cf30       strchr                     000000014004df30 f   libvcruntimed:strchr.obj
 0001:0004d0d0       _guard_dispatch_icall_nop  000000014004e0d0 f   LIBCMTD:guard_dispatch.obj
 0001:0004d0f0       _guard_xfg_dispatch_icall_nop 000000014004e0f0 f   LIBCMTD:guard_xfg_dispatch.obj
 0002:00000000       __imp_RtlCaptureContext    000000014004f000     kernel32:KERNEL32.dll
 0002:00000008       __imp_RtlLookupFunctionEntry 000000014004f008     kernel32:KERNEL32.dll
 0002:00000010       __imp_RtlVirtualUnwind     000000014004f010     kernel32:KERNEL32.dll
 0002:00000018       __imp_UnhandledExceptionFilter 000000014004f018     kernel32:KERNEL32.dll
 0002:00000020       __imp_SetUnhandledExceptionFilter 000000014004f020     kernel32:KERNEL32.dll
 0002:00000028       __imp_GetCurrentProcess    000000014004f028     kernel32:KERNEL32.dll
 0002:00000030       __imp_TerminateProcess     000000014004f030     kernel32:KERNEL32.dll
 0002:00000038       __imp_IsProcessorFeaturePresent 000000014004f038     kernel32:KERNEL32.dll
 0002:00000040       __imp_QueryPerformanceCounter 000000014004f040     kernel32:KERNEL32.dll
 0002:00000048       __imp_GetCurrentProcessId  000000014004f048     kernel32:KERNEL32.dll
 0002:00000050       __imp_GetCurrentThreadId   000000014004f050     kernel32:KERNEL32.dll
 0002:00000058       __imp_GetSystemTimeAsFileTime 000000014004f058     kernel32:KERNEL32.dll
 0002:00000060       __imp_InitializeSListHead  000000014004f060     kernel32:KERNEL32.dll
 0002:00000068       __imp_IsDebuggerPresent    000000014004f068     kernel32:KERNEL32.dll
 0002:00000070       __imp_GetStartupInfoW      000000014004f070     kernel32:KERNEL32.dll
 0002:00000078       __imp_GetModuleHandleW     000000014004f078     kernel32:KERNEL32.dll
 0002:00000080       __imp_CreateFileW          000000014004f080     kernel32:KERNEL32.dll
 0002:00000088       __imp_RtlUnwindEx          000000014004f088     kernel32:KERNEL32.dll
 0002:00000090       __imp_GetLastError         000000014004f090     kernel32:KERNEL32.dll
 0002:00000098       __imp_SetLastError         000000014004f098     kernel32:KERNEL32.dll
 0002:000000a0       __imp_EnterCriticalSection 000000014004f0a0     kernel32:KERNEL32.dll
 0002:000000a8       __imp_LeaveCriticalSection 000000014004f0a8     kernel32:KERNEL32.dll
 0002:000000b0       __imp_DeleteCriticalSection 000000014004f0b0     kernel32:KERNEL32.dll
 0002:000000b8       __imp_InitializeCriticalSectionAndSpinCount 000000014004f0b8     kernel32:KERNEL32.dll
 0002:000000c0       __imp_TlsAlloc             000000014004f0c0     kernel32:KERNEL32.dll
 0002:000000c8       __imp_TlsGetValue          000000014004f0c8     kernel32:KERNEL32.dll
 0002:000000d0       __imp_TlsSetValue          000000014004f0d0     kernel32:KERNEL32.dll
 0002:000000d8       __imp_TlsFree              000000014004f0d8     kernel32:KERNEL32.dll
 0002:000000e0       __imp_FreeLibrary          000000014004f0e0     kernel32:KERNEL32.dll
 0002:000000e8       __imp_GetProcAddress       000000014004f0e8     kernel32:KERNEL32.dll
 0002:000000f0       __imp_LoadLibraryExW       000000014004f0f0     kernel32:KERNEL32.dll
 0002:000000f8       __imp_EncodePointer        000000014004f0f8     kernel32:KERNEL32.dll
 0002:00000100       __imp_RaiseException       000000014004f100     kernel32:KERNEL32.dll
 0002:00000108       __imp_RtlPcToFileHeader    000000014004f108     kernel32:KERNEL32.dll
 0002:00000110       __imp_ReadFile             000000014004f110     kernel32:KERNEL32.dll
 0002:00000118       __imp_GetStdHandle         000000014004f118     kernel32:KERNEL32.dll
 0002:00000120       __imp_WriteFile            000000014004f120     kernel32:KERNEL32.dll
 0002:00000128       __imp_GetModuleFileNameW   000000014004f128     kernel32:KERNEL32.dll
 0002:00000130       __imp_ExitProcess          000000014004f130     kernel32:KERNEL32.dll
 0002:00000138       __imp_GetModuleHandleExW   000000014004f138     kernel32:KERNEL32.dll
 0002:00000140       __imp_GetCommandLineA      000000014004f140     kernel32:KERNEL32.dll
 0002:00000148       __imp_GetCommandLineW      000000014004f148     kernel32:KERNEL32.dll
 0002:00000150       __imp_HeapAlloc            000000014004f150     kernel32:KERNEL32.dll
 0002:00000158       __imp_HeapSize             000000014004f158     kernel32:KERNEL32.dll
 0002:00000160       __imp_HeapValidate         000000014004f160     kernel32:KERNEL32.dll
 0002:00000168       __imp_GetSystemInfo        000000014004f168     kernel32:KERNEL32.dll
 0002:00000170       __imp_FlsAlloc             000000014004f170     kernel32:KERNEL32.dll
 0002:00000178       __imp_FlsGetValue          000000014004f178     kernel32:KERNEL32.dll
 0002:00000180       __imp_FlsSetValue          000000014004f180     kernel32:KERNEL32.dll
 0002:00000188       __imp_FlsFree              000000014004f188     kernel32:KERNEL32.dll
 0002:00000190       __imp_CompareStringW       000000014004f190     kernel32:KERNEL32.dll
 0002:00000198       __imp_LCMapStringW         000000014004f198     kernel32:KERNEL32.dll
 0002:000001a0       __imp_GetFileType          000000014004f1a0     kernel32:KERNEL32.dll
 0002:000001a8       __imp_CloseHandle          000000014004f1a8     kernel32:KERNEL32.dll
 0002:000001b0       __imp_GetConsoleMode       000000014004f1b0     kernel32:KERNEL32.dll
 0002:000001b8       __imp_ReadConsoleW         000000014004f1b8     kernel32:KERNEL32.dll
 0002:000001c0       __imp_SetFilePointerEx     000000014004f1c0     kernel32:KERNEL32.dll
 0002:000001c8       __imp_GetConsoleOutputCP   000000014004f1c8     kernel32:KERNEL32.dll
 0002:000001d0       __imp_GetFileSizeEx        000000014004f1d0     kernel32:KERNEL32.dll
 0002:000001d8       __imp_SetStdHandle         000000014004f1d8     kernel32:KERNEL32.dll
 0002:000001e0       __imp_OutputDebugStringW   000000014004f1e0     kernel32:KERNEL32.dll
 0002:000001e8       __imp_FindClose            000000014004f1e8     kernel32:KERNEL32.dll
 0002:000001f0       __imp_FindFirstFileExW     000000014004f1f0     kernel32:KERNEL32.dll
 0002:000001f8       __imp_FindNextFileW        000000014004f1f8     kernel32:KERNEL32.dll
 0002:00000200       __imp_IsValidCodePage      000000014004f200     kernel32:KERNEL32.dll
 0002:00000208       __imp_GetACP               000000014004f208     kernel32:KERNEL32.dll
 0002:00000210       __imp_GetOEMCP             000000014004f210     kernel32:KERNEL32.dll
 0002:00000218       __imp_GetCPInfo            000000014004f218     kernel32:KERNEL32.dll
 0002:00000220       __imp_MultiByteToWideChar  000000014004f220     kernel32:KERNEL32.dll
 0002:00000228       __imp_WideCharToMultiByte  000000014004f228     kernel32:KERNEL32.dll
 0002:00000230       __imp_GetEnvironmentStringsW 000000014004f230     kernel32:KERNEL32.dll
 0002:00000238       __imp_FreeEnvironmentStringsW 000000014004f238     kernel32:KERNEL32.dll
 0002:00000240       __imp_SetEnvironmentVariableW 000000014004f240     kernel32:KERNEL32.dll
 0002:00000248       __imp_GetStringTypeW       000000014004f248     kernel32:KERNEL32.dll
 0002:00000250       __imp_GetProcessHeap       000000014004f250     kernel32:KERNEL32.dll
 0002:00000258       __imp_HeapFree             000000014004f258     kernel32:KERNEL32.dll
 0002:00000260       __imp_HeapReAlloc          000000014004f260     kernel32:KERNEL32.dll
 0002:00000268       __imp_HeapQueryInformation 000000014004f268     kernel32:KERNEL32.dll
 0002:00000270       __imp_WriteConsoleW        000000014004f270     kernel32:KERNEL32.dll
 0002:00000278       __imp_FlushFileBuffers     000000014004f278     kernel32:KERNEL32.dll
 0002:00000280       __imp_SetEndOfFile         000000014004f280     kernel32:KERNEL32.dll
 0002:00000288       \177KERNEL32_NULL_THUNK_DATA 000000014004f288     kernel32:KERNEL32.dll
 0002:00000290       __guard_check_icall_fptr   000000014004f290     LIBCMTD:guard_support.obj
 0002:00000298       __guard_xfg_check_icall_fptr 000000014004f298     LIBCMTD:guard_support.obj
 0002:000002a0       __guard_dispatch_icall_fptr 000000014004f2a0     LIBCMTD:guard_support.obj
 0002:000002a8       __guard_xfg_dispatch_icall_fptr 000000014004f2a8     LIBCMTD:guard_support.obj
 0002:000002b0       __guard_xfg_table_dispatch_icall_fptr 000000014004f2b0     LIBCMTD:guard_support.obj
 0002:000002b8       __castguard_check_failure_os_handled_fptr 000000014004f2b8     LIBCMTD:guard_support.obj
 0002:000002c0       __guard_memcpy_fptr        000000014004f2c0     libvcruntimed:softmemtag.obj
 0002:000002c8       __xc_a                     000000014004f2c8     LIBCMTD:initializers.obj
 0002:000002d8       __xc_z                     000000014004f2d8     LIBCMTD:initializers.obj
 0002:000002e0       __xi_a                     000000014004f2e0     LIBCMTD:initializers.obj
 0002:000002f8       __acrt_stdio_initializer   000000014004f2f8     libucrtd:stdio_initializer.obj
 0002:00000300       __acrt_multibyte_initializer 000000014004f300     libucrtd:multibyte_initializer.obj
 0002:00000308       __acrt_fmode_initializer   000000014004f308     libucrtd:fmode_initializer.obj
 0002:00000310       __acrt_tran_fma3_initializer 000000014004f310     libucrtd:fma3_initializer.obj
 0002:00000318       __xi_z                     000000014004f318     LIBCMTD:initializers.obj
 0002:00000320       __xp_a                     000000014004f320     LIBCMTD:initializers.obj
 0002:00000328       __acrt_locale_terminator   000000014004f328     libucrtd:locale_initializer.obj
 0002:00000330       __dcrt_console_output_terminator 000000014004f330     libucrtd:console_output_initializer.obj
 0002:00000338       __acrt_stdio_terminator    000000014004f338     libucrtd:stdio_initializer.obj
 0002:00000340       __xp_z                     000000014004f340     LIBCMTD:initializers.obj
 0002:00000348       __xt_a                     000000014004f348     LIBCMTD:initializers.obj
 0002:00000350       __xt_z                     000000014004f350     LIBCMTD:initializers.obj
 0002:000004c8       _pDestructExceptionObject  000000014004f4c8     libvcruntimed:ehhelpers.obj
 0002:000004d0       ??_C@_0EK@HNOIOKGA@D?3?2a?2_work?21?2s?2src?2vctools?2crt?2@ 000000014004f4d0     libvcruntimed:per_thread_data.obj
 0002:00000c30       ??_C@_08EHJDFFNH@__based?$CI@ 000000014004fc30     libvcruntimed:undname.obj
 0002:00000c40       ??_C@_07KOLFKCDI@__cdecl@  000000014004fc40     libvcruntimed:undname.obj
 0002:00000c48       ??_C@_08GHMPAG@__pascal@   000000014004fc48     libvcruntimed:undname.obj
 0002:00000c58       ??_C@_09IFJBGAPI@__stdcall@ 000000014004fc58     libvcruntimed:undname.obj
 0002:00000c68       ??_C@_0L@NPHFGOKO@__thiscall@ 000000014004fc68     libvcruntimed:undname.obj
 0002:00000c78       ??_C@_0L@JMKHOMEK@__fastcall@ 000000014004fc78     libvcruntimed:undname.obj
 0002:00000c88       ??_C@_0N@BCKKPABJ@__vectorcall@ 000000014004fc88     libvcruntimed:undname.obj
 0002:00000c98       ??_C@_09HIJEGCPM@__clrcall@ 000000014004fc98     libvcruntimed:undname.obj
 0002:00000ca4       ??_C@_06GHPCKEAG@__eabi@   000000014004fca4     libvcruntimed:undname.obj
 0002:00000cb0       ??_C@_09IOPIDJLG@__swift_1@ 000000014004fcb0     libvcruntimed:undname.obj
 0002:00000cc0       ??_C@_09KFNFGKHF@__swift_2@ 000000014004fcc0     libvcruntimed:undname.obj
 0002:00000cd0       ??_C@_09LMMOFLDE@__swift_3@ 000000014004fcd0     libvcruntimed:undname.obj
 0002:00000ce0       ??_C@_07JOMMBBKO@__ptr64@  000000014004fce0     libvcruntimed:undname.obj
 0002:00000ce8       ??_C@_0L@PILCLIHE@__restrict@ 000000014004fce8     libvcruntimed:undname.obj
 0002:00000cf8       ??_C@_0M@GFIIJFMG@__unaligned@ 000000014004fcf8     libvcruntimed:undname.obj
 0002:00000d08       ??_C@_09DHDLOLLB@restrict?$CI@ 000000014004fd08     libvcruntimed:undname.obj
 0002:00000d12       ??_C@_00CNPNBAHC@@         000000014004fd12     libvcruntimed:undname.obj
 0002:00000d14       ??_C@_04NIHEBCM@?5new@     000000014004fd14     libvcruntimed:undname.obj
 0002:00000d20       ??_C@_07FPCDHGMM@?5delete@ 000000014004fd20     libvcruntimed:undname.obj
 0002:00000d28       ??_C@_01NEMOKFLO@?$DN@     000000014004fd28     libvcruntimed:undname.obj
 0002:00000d2c       ??_C@_02GPIOPFAK@?$DO?$DO@ 000000014004fd2c     libvcruntimed:undname.obj
 0002:00000d30       ??_C@_02FODMEDOG@?$DM?$DM@ 000000014004fd30     libvcruntimed:undname.obj
 0002:00000d34       ??_C@_01DCLJPIOD@?$CB@     000000014004fd34     libvcruntimed:undname.obj
 0002:00000d38       ??_C@_02EGOFBIJA@?$DN?$DN@ 000000014004fd38     libvcruntimed:undname.obj
 0002:00000d3c       ??_C@_02FDNJECIE@?$CB?$DN@ 000000014004fd3c     libvcruntimed:undname.obj
 0002:00000d40       ??_C@_02GPECMEKF@?$FL?$FN@ 000000014004fd40     libvcruntimed:undname.obj
 0002:00000d48       ??_C@_08LHJFAFGD@operator@ 000000014004fd48     libvcruntimed:undname.obj
 0002:00000d54       ??_C@_02HBOOOICD@?9?$DO@   000000014004fd54     libvcruntimed:undname.obj
 0002:00000d58       ??_C@_01NBENCBCI@?$CK@     000000014004fd58     libvcruntimed:undname.obj
 0002:00000d5c       ??_C@_02ECNGHCIF@?$CL?$CL@ 000000014004fd5c     libvcruntimed:undname.obj
 0002:00000d60       ??_C@_02BAABKJLB@?9?9@     000000014004fd60     libvcruntimed:undname.obj
 0002:00000d64       ??_C@_01JOAMLHOP@?9@       000000014004fd64     libvcruntimed:undname.obj
 0002:00000d68       ??_C@_01MIFGBAGJ@?$CL@     000000014004fd68     libvcruntimed:undname.obj
 0002:00000d6c       ??_C@_01HNPIGOCE@?$CG@     000000014004fd6c     libvcruntimed:undname.obj
 0002:00000d70       ??_C@_03MNHNFDLC@?9?$DO?$CK@ 000000014004fd70     libvcruntimed:undname.obj
 0002:00000d74       ??_C@_01KMDKNFGN@?1@       000000014004fd74     libvcruntimed:undname.obj
 0002:00000d78       ??_C@_01FGNFDNOH@?$CF@     000000014004fd78     libvcruntimed:undname.obj
 0002:00000d7c       ??_C@_01MNNFJEPP@?$DM@     000000014004fd7c     libvcruntimed:undname.obj
 0002:00000d80       ??_C@_02EHCHHCKH@?$DM?$DN@ 000000014004fd80     libvcruntimed:undname.obj
 0002:00000d84       ??_C@_01PPODPGHN@?$DO@     000000014004fd84     libvcruntimed:undname.obj
 0002:00000d88       ??_C@_02EEKDKGMJ@?$DO?$DN@ 000000014004fd88     libvcruntimed:undname.obj
 0002:00000d8c       ??_C@_01IHBHIGKO@?0@       000000014004fd8c     libvcruntimed:undname.obj
 0002:00000d90       ??_C@_02HCKGKOFO@?$CI?$CJ@ 000000014004fd90     libvcruntimed:undname.obj
 0002:00000d94       ??_C@_01PJKLJHI@?$HO@      000000014004fd94     libvcruntimed:undname.obj
 0002:00000d98       ??_C@_01JKBOJNNK@?$FO@     000000014004fd98     libvcruntimed:undname.obj
 0002:00000d9c       ??_C@_01DNKMNLPK@?$HM@     000000014004fd9c     libvcruntimed:undname.obj
 0002:00000da0       ??_C@_02PPKAJPJL@?$CG?$CG@ 000000014004fda0     libvcruntimed:undname.obj
 0002:00000da4       ??_C@_02NONPIBCD@?$HM?$HM@ 000000014004fda4     libvcruntimed:undname.obj
 0002:00000da8       ??_C@_02FPIMKNGF@?$CK?$DN@ 000000014004fda8     libvcruntimed:undname.obj
 0002:00000dac       ??_C@_02FOEOMHFC@?$CL?$DN@ 000000014004fdac     libvcruntimed:undname.obj
 0002:00000db0       ??_C@_02FKMDLLOA@?9?$DN@   000000014004fdb0     libvcruntimed:undname.obj
 0002:00000db4       ??_C@_02FJEHGPIO@?1?$DN@   000000014004fdb4     libvcruntimed:undname.obj
 0002:00000db8       ??_C@_02FENAOKFI@?$CF?$DN@ 000000014004fdb8     libvcruntimed:undname.obj
 0002:00000dbc       ??_C@_03IKFCCPFF@?$DO?$DO?$DN@ 000000014004fdbc     libvcruntimed:undname.obj
 0002:00000dc0       ??_C@_03CDNPDDLA@?$DM?$DM?$DN@ 000000014004fdc0     libvcruntimed:undname.obj
 0002:00000dc4       ??_C@_02FGJGFEAB@?$CG?$DN@ 000000014004fdc4     libvcruntimed:undname.obj
 0002:00000dc8       ??_C@_02DHLNPPGH@?$HM?$DN@ 000000014004fdc8     libvcruntimed:undname.obj
 0002:00000dcc       ??_C@_02MHEGNOJ@?$FO?$DN@  000000014004fdcc     libvcruntimed:undname.obj
 0002:00000dd0       ??_C@_09IFPLHPGF@?$GAvftable?8@ 000000014004fdd0     libvcruntimed:undname.obj
 0002:00000de0       ??_C@_09BLBHBJP@?$GAvbtable?8@ 000000014004fde0     libvcruntimed:undname.obj
 0002:00000df0       ??_C@_07FEEIOKP@?$GAvcall?8@ 000000014004fdf0     libvcruntimed:undname.obj
 0002:00000df8       ??_C@_08LLFFHHDJ@?$GAtypeof?8@ 000000014004fdf8     libvcruntimed:undname.obj
 0002:00000e08       ??_C@_0BF@KDPPACIK@?$GAlocal?5static?5guard?8@ 000000014004fe08     libvcruntimed:undname.obj
 0002:00000e20       ??_C@_08OBABFOLI@?$GAstring?8@ 000000014004fe20     libvcruntimed:undname.obj
 0002:00000e30       ??_C@_0BD@JDLKDPAB@?$GAvbase?5destructor?8@ 000000014004fe30     libvcruntimed:undname.obj
 0002:00000e48       ??_C@_0BN@DEGPLNFK@?$GAvector?5deleting?5destructor?8@ 000000014004fe48     libvcruntimed:undname.obj
 0002:00000e68       ??_C@_0BO@OBMKPJIG@?$GAdefault?5constructor?5closure?8@ 000000014004fe68     libvcruntimed:undname.obj
 0002:00000e88       ??_C@_0BN@IMDCHIKM@?$GAscalar?5deleting?5destructor?8@ 000000014004fe88     libvcruntimed:undname.obj
 0002:00000ea8       ??_C@_0BO@PFGOCPJJ@?$GAvector?5constructor?5iterator?8@ 000000014004fea8     libvcruntimed:undname.obj
 0002:00000ec8       ??_C@_0BN@LFPFMEDL@?$GAvector?5destructor?5iterator?8@ 000000014004fec8     libvcruntimed:undname.obj
 0002:00000ee8       ??_C@_0CE@IKBNEHA@?$GAvector?5vbase?5constructor?5itera@ 000000014004fee8     libvcruntimed:undname.obj
 0002:00000f10       ??_C@_0BL@NILFHHPC@?$GAvirtual?5displacement?5map?8@ 000000014004ff10     libvcruntimed:undname.obj
 0002:00000f30       ??_C@_0CB@JONCMFFK@?$GAeh?5vector?5constructor?5iterator@ 000000014004ff30     libvcruntimed:undname.obj
 0002:00000f58       ??_C@_0CA@GCEOPDGL@?$GAeh?5vector?5destructor?5iterator?8@ 000000014004ff58     libvcruntimed:undname.obj
 0002:00000f78       ??_C@_0CH@OOJPLCPH@?$GAeh?5vector?5vbase?5constructor?5it@ 000000014004ff78     libvcruntimed:undname.obj
 0002:00000fa0       ??_C@_0BL@LLKPOHJI@?$GAcopy?5constructor?5closure?8@ 000000014004ffa0     libvcruntimed:undname.obj
 0002:00000fc0       ??_C@_0BA@KBCDOMBN@?$GAudt?5returning?8@ 000000014004ffc0     libvcruntimed:undname.obj
 0002:00000fd0       ??_C@_03KLGMFNMG@?$GAEH@   000000014004ffd0     libvcruntimed:undname.obj
 0002:00000fd4       ??_C@_05KHLCHHI@?$GARTTI@  000000014004ffd4     libvcruntimed:undname.obj
 0002:00000fe0       ??_C@_0BA@KKLDJDLB@?$GAlocal?5vftable?8@ 000000014004ffe0     libvcruntimed:undname.obj
 0002:00000ff0       ??_C@_0CE@IIHCMGGL@?$GAlocal?5vftable?5constructor?5clos@ 000000014004fff0     libvcruntimed:undname.obj
 0002:00001014       ??_C@_06FHBGPFGH@?5new?$FL?$FN@ 0000000140050014     libvcruntimed:undname.obj
 0002:00001020       ??_C@_09LBNFPBCA@?5delete?$FL?$FN@ 0000000140050020     libvcruntimed:undname.obj
 0002:00001030       ??_C@_0P@HJKNJFNN@?$GAomni?5callsig?8@ 0000000140050030     libvcruntimed:undname.obj
 0002:00001040       ??_C@_0BL@CNOONJFP@?$GAplacement?5delete?5closure?8@ 0000000140050040     libvcruntimed:undname.obj
 0002:00001060       ??_C@_0BN@CKNJLHMB@?$GAplacement?5delete?$FL?$FN?5closure?8@ 0000000140050060     libvcruntimed:undname.obj
 0002:00001080       ??_C@_0CG@CFDHKGGD@?$GAmanaged?5vector?5constructor?5ite@ 0000000140050080     libvcruntimed:undname.obj
 0002:000010a8       ??_C@_0CF@IMGKMJNO@?$GAmanaged?5vector?5destructor?5iter@ 00000001400500a8     libvcruntimed:undname.obj
 0002:000010d0       ??_C@_0CG@HLDDJMAG@?$GAeh?5vector?5copy?5constructor?5ite@ 00000001400500d0     libvcruntimed:undname.obj
 0002:000010f8       ??_C@_0CM@FCBBDIGB@?$GAeh?5vector?5vbase?5copy?5construct@ 00000001400500f8     libvcruntimed:undname.obj
 0002:00001128       ??_C@_0BL@CLIPGLGB@?$GAdynamic?5initializer?5for?5?8@ 0000000140050128     libvcruntimed:undname.obj
 0002:00001148       ??_C@_0CB@PDBIFEP@?$GAdynamic?5atexit?5destructor?5for?5@ 0000000140050148     libvcruntimed:undname.obj
 0002:00001170       ??_C@_0CD@CGAJBKEJ@?$GAvector?5copy?5constructor?5iterat@ 0000000140050170     libvcruntimed:undname.obj
 0002:00001198       ??_C@_0CJ@GJELGAMM@?$GAvector?5vbase?5copy?5constructor?5@ 0000000140050198     libvcruntimed:undname.obj
 0002:000011c8       ??_C@_0CL@FGIJHLCE@?$GAmanaged?5vector?5copy?5constructo@ 00000001400501c8     libvcruntimed:undname.obj
 0002:000011f8       ??_C@_0BM@PMGGMLDN@?$GAlocal?5static?5thread?5guard?8@ 00000001400501f8     libvcruntimed:undname.obj
 0002:00001218       ??_C@_0N@BDNMDMOL@operator?5?$CC?$CC?5@ 0000000140050218     libvcruntimed:undname.obj
 0002:00001228       ??_C@_0BC@GGEBGALA@operator?5co_await@ 0000000140050228     libvcruntimed:undname.obj
 0002:00001240       ??_C@_0M@GAAIMMOH@operator?$DM?$DN?$DO@ 0000000140050240     libvcruntimed:undname.obj
 0002:00001250       ??_C@_0BC@DAFEJGAK@?5Type?5Descriptor?8@ 0000000140050250     libvcruntimed:undname.obj
 0002:00001268       ??_C@_0BM@LDKODKLH@?5Base?5Class?5Descriptor?5at?5?$CI@ 0000000140050268     libvcruntimed:undname.obj
 0002:00001288       ??_C@_0BD@LGICGFMM@?5Base?5Class?5Array?8@ 0000000140050288     libvcruntimed:undname.obj
 0002:000012a0       ??_C@_0BN@MECKDCOJ@?5Class?5Hierarchy?5Descriptor?8@ 00000001400502a0     libvcruntimed:undname.obj
 0002:000012c0       ??_C@_0BK@CFCOFLF@?5Complete?5Object?5Locator?8@ 00000001400502c0     libvcruntimed:undname.obj
 0002:000012e0       ??_C@_0BG@JNJLAMPM@?$GAanonymous?5namespace?8@ 00000001400502e0     libvcruntimed:undname.obj
 0002:000012f8       ??_C@_02DKCKIIND@?$CFs@    00000001400502f8     libvcruntimed:undname.obj
 0002:000012fc       ??_C@_11LOCGONAA@@         00000001400502fc     libvcruntimed:undname.obj
 0002:00001318       ??_C@_1DM@KHCHBNEB@?$AAa?$AAp?$AAi?$AA?9?$AAm?$AAs?$AA?9?$AAw?$AAi?$AAn?$AA?9?$AAc?$AAo?$AAr?$AAe@ 0000000140050318     libvcruntimed:winapi_downlevel.obj
 0002:00001358       ??_C@_1DK@LPPGFMPP@?$AAa?$AAp?$AAi?$AA?9?$AAm?$AAs?$AA?9?$AAw?$AAi?$AAn?$AA?9?$AAc?$AAo?$AAr?$AAe@ 0000000140050358     libvcruntimed:winapi_downlevel.obj
 0002:00001398       ??_C@_1BC@GDMECMAK@?$AAk?$AAe?$AAr?$AAn?$AAe?$AAl?$AA3?$AA2@ 0000000140050398     libvcruntimed:winapi_downlevel.obj
 0002:000013b0       ??_C@_17CNPHIMPH@?$AA?$CF?$AAl?$AAs@ 00000001400503b0     libvcruntimed:winapi_downlevel.obj
 0002:000013b8       ??_C@_1BA@PFFKHIOG@?$AAa?$AAp?$AAi?$AA?9?$AAm?$AAs?$AA?9@ 00000001400503b8     libvcruntimed:winapi_downlevel.obj
 0002:000013d0       ??_C@_1EM@LBIFGLGH@?$AAc?$AAa?$AAc?$AAh?$AAe?$AAd?$AA_?$AAh?$AAa?$AAn?$AAd?$AAl?$AAe?$AA?5?$AA?$DN@ 00000001400503d0     libvcruntimed:winapi_downlevel.obj
 0002:00001420       ??_C@_1JG@EAIBPIGC@?$AAD?$AA?3?$AA?2?$AAa?$AA?2?$AA_?$AAw?$AAo?$AAr?$AAk?$AA?2?$AA1?$AA?2?$AAs?$AA?2@ 0000000140050420     libvcruntimed:winapi_downlevel.obj
 0002:000014b8       ??_C@_1DI@MAHEDLDB@?$AAc?$AAa?$AAc?$AAh?$AAe?$AAd?$AA_?$AAh?$AAa?$AAn?$AAd?$AAl?$AAe?$AA?5?$AA?$DN@ 00000001400504b8     libvcruntimed:winapi_downlevel.obj
 0002:000014f0       ??_C@_1FC@IBNCGNKL@?$AAc?$AAa?$AAc?$AAh?$AAe?$AAd?$AA_?$AAf?$AAp?$AA?5?$AA?$DN?$AA?$DN?$AA?5?$AAi?$AAn@ 00000001400504f0     libvcruntimed:winapi_downlevel.obj
 0002:00001548       ??_C@_1CI@GDJBAGLP@?$AAc?$AAa?$AAc?$AAh?$AAe?$AAd?$AA_?$AAf?$AAp?$AA?5?$AA?$DN?$AA?$DN?$AA?5?$AAn?$AAe@ 0000000140050548     libvcruntimed:winapi_downlevel.obj
 0002:00001578       ??_C@_08KNHFBNJ@FlsAlloc@  0000000140050578     libvcruntimed:winapi_downlevel.obj
 0002:00001590       ??_C@_07PEJMOBNF@FlsFree@  0000000140050590     libvcruntimed:winapi_downlevel.obj
 0002:000015a0       ??_C@_0M@GDNOONDI@FlsGetValue@ 00000001400505a0     libvcruntimed:winapi_downlevel.obj
 0002:000015b8       ??_C@_0M@JCPCPOEF@FlsSetValue@ 00000001400505b8     libvcruntimed:winapi_downlevel.obj
 0002:000015d0       ??_C@_0BM@HCFOFFN@InitializeCriticalSectionEx@ 00000001400505d0     libvcruntimed:winapi_downlevel.obj
 0002:00001690       ??_7exception@std@@6B@     0000000140050690     libvcruntimed:frame.obj
 0002:000016a0       ??_C@_0BC@EOODALEL@Unknown?5exception@ 00000001400506a0     libvcruntimed:frame.obj
 0002:000016c0       ??_7bad_exception@std@@6B@ 00000001400506c0     libvcruntimed:frame.obj
 0002:000016d0       ??_C@_0O@DPKOEFFH@bad?5exception@ 00000001400506d0     libvcruntimed:frame.obj
 0002:000016e0       ??_C@_1FK@OACNEHHA@?$AAt?$AAo?$AA?9?$AA?$DO?$AA_?$AAW?$AAh?$AAa?$AAt?$AA?5?$AA?$DN?$AA?$DN?$AA?5?$AAn?$AAu@ 00000001400506e0     libvcruntimed:std_exception.obj
 0002:00001740       ??_C@_1IE@BLOAAGCK@?$AAD?$AA?3?$AA?2?$AAa?$AA?2?$AA_?$AAw?$AAo?$AAr?$AAk?$AA?2?$AA1?$AA?2?$AAs?$AA?2@ 0000000140050740     libvcruntimed:std_exception.obj
 0002:000017c8       ??_C@_0CP@GDJHIDC@minkernel?2crts?2ucrt?2src?2appcrt?2@ 00000001400507c8     libucrtd:_file.obj
 0002:000017f8       ??_C@_1DC@OGOLMDEL@?$AAp?$AAu?$AAb?$AAl?$AAi?$AAc?$AA_?$AAs?$AAt?$AAr?$AAe?$AAa?$AAm?$AA?5?$AA?$CB@ 00000001400507f8     libucrtd:_file.obj
 0002:00001830       ??_C@_1BO@MHPFFFJJ@?$AAs?$AAt?$AAr?$AAe?$AAa?$AAm?$AA?4?$AAv?$AAa?$AAl?$AAi?$AAd?$AA?$CI?$AA?$CJ@ 0000000140050830     libucrtd:fclose.obj
 0002:00001850       ??_C@_1GA@DKNOMDCL@?$AAm?$AAi?$AAn?$AAk?$AAe?$AAr?$AAn?$AAe?$AAl?$AA?2?$AAc?$AAr?$AAt?$AAs?$AA?2@ 0000000140050850     libucrtd:fclose.obj
 0002:000018b0       ??_C@_1DA@IHIKPHIN@?$AA_?$AAf?$AAc?$AAl?$AAo?$AAs?$AAe?$AA_?$AAn?$AAo?$AAl?$AAo?$AAc?$AAk?$AA_@ 00000001400508b0     libucrtd:fclose.obj
 0002:000018e0       ??_C@_1CC@LPELGHFC@?$AA_?$AAf?$AAc?$AAl?$AAo?$AAs?$AAe?$AA_?$AAi?$AAn?$AAt?$AAe?$AAr?$AAn?$AAa@ 00000001400508e0     libucrtd:fclose.obj
 0002:00001910       ??_C@_1GC@CMLBJHAF@?$AAm?$AAi?$AAn?$AAk?$AAe?$AAr?$AAn?$AAe?$AAl?$AA?2?$AAc?$AAr?$AAt?$AAs?$AA?2@ 0000000140050910     libucrtd:feoferr.obj
 0002:00001978       ??_C@_1O@MOPHEPGP@?$AAf?$AAe?$AAr?$AAr?$AAo?$AAr@ 0000000140050978     libucrtd:feoferr.obj
 0002:00001988       ??_C@_1CK@LLOEFJJG@?$AAf?$AAi?$AAl?$AAe?$AA_?$AAn?$AAa?$AAm?$AAe?$AA?5?$AA?$CB?$AA?$DN?$AA?5?$AAn?$AAu@ 0000000140050988     libucrtd:fopen.obj
 0002:000019c0       ??_C@_1FO@JKHHBFCN@?$AAm?$AAi?$AAn?$AAk?$AAe?$AAr?$AAn?$AAe?$AAl?$AA?2?$AAc?$AAr?$AAt?$AAs?$AA?2@ 00000001400509c0     libucrtd:fopen.obj
 0002:00001a20       ??_C@_1BM@HBDCPLIA@?$AAc?$AAo?$AAm?$AAm?$AAo?$AAn?$AA_?$AAf?$AAs?$AAo?$AAp?$AAe?$AAn@ 0000000140050a20     libucrtd:fopen.obj
 0002:00001a40       ??_C@_1CA@HJKPLBCC@?$AAm?$AAo?$AAd?$AAe?$AA?5?$AA?$CB?$AA?$DN?$AA?5?$AAn?$AAu?$AAl?$AAl?$AAp?$AAt?$AAr@ 0000000140050a40     libucrtd:fopen.obj
 0002:00001a60       ??_C@_1BG@HEFEIBLN@?$AA?$CK?$AAm?$AAo?$AAd?$AAe?$AA?5?$AA?$CB?$AA?$DN?$AA?5?$AA0@ 0000000140050a60     libucrtd:fopen.obj
 0002:00001a78       ??_C@_1CE@JMFACANE@?$AAr?$AAe?$AAs?$AAu?$AAl?$AAt?$AA?5?$AA?$CB?$AA?$DN?$AA?5?$AAn?$AAu?$AAl?$AAl?$AAp@ 0000000140050a78     libucrtd:fopen.obj
 0002:00001aa0       ??_C@_1CE@JLIJLEKO@?$AAs?$AAt?$AAr?$AAe?$AAa?$AAm?$AA?5?$AA?$CB?$AA?$DN?$AA?5?$AAn?$AAu?$AAl?$AAl?$AAp@ 0000000140050aa0     libucrtd:fread.obj
 0002:00001ad0       ??_C@_1FO@CIJKACCM@?$AAm?$AAi?$AAn?$AAk?$AAe?$AAr?$AAn?$AAe?$AAl?$AA?2?$AAc?$AAr?$AAt?$AAs?$AA?2@ 0000000140050ad0     libucrtd:fread.obj
 0002:00001b30       ??_C@_1BA@CMLCEIGG@?$AAf?$AAr?$AAe?$AAa?$AAd?$AA_?$AAs@ 0000000140050b30     libucrtd:fread.obj
 0002:00001b40       ??_C@_1CE@MCCHPLBM@?$AAb?$AAu?$AAf?$AAf?$AAe?$AAr?$AA?5?$AA?$CB?$AA?$DN?$AA?5?$AAn?$AAu?$AAl?$AAl?$AAp@ 0000000140050b40     libucrtd:fread.obj
 0002:00001b68       ??_C@_1CA@IDPOGFL@?$AA_?$AAf?$AAr?$AAe?$AAa?$AAd?$AA_?$AAn?$AAo?$AAl?$AAo?$AAc?$AAk?$AA_?$AAs@ 0000000140050b68     libucrtd:fread.obj
 0002:00001b90       ??_C@_1FG@KLKDPCLL@?$AAe?$AAl?$AAe?$AAm?$AAe?$AAn?$AAt?$AA_?$AAc?$AAo?$AAu?$AAn?$AAt?$AA?5?$AA?$DM@ 0000000140050b90     libucrtd:fread.obj
 0002:00001bf0       ??_C@_1LG@DCNDJCHK@?$AA?$CI?$AA?$CC?$AAI?$AAn?$AAc?$AAo?$AAn?$AAs?$AAi?$AAs?$AAt?$AAe?$AAn?$AAt?$AA?5@ 0000000140050bf0     libucrtd:fread.obj
 0002:00001ca8       ??_C@_1DA@DKEFLDMG@?$AA?$CI?$AA?$CC?$AAb?$AAu?$AAf?$AAf?$AAe?$AAr?$AA?5?$AAt?$AAo?$AAo?$AA?5?$AAs?$AAm@ 0000000140050ca8     libucrtd:fread.obj
 0002:00001d00       ??_C@_1FO@KMPAKEKH@?$AAm?$AAi?$AAn?$AAk?$AAe?$AAr?$AAn?$AAe?$AAl?$AA?2?$AAc?$AAr?$AAt?$AAs?$AA?2@ 0000000140050d00     libucrtd:fseek.obj
 0002:00001d60       ??_C@_1BK@HEPGDNON@?$AAc?$AAo?$AAm?$AAm?$AAo?$AAn?$AA_?$AAf?$AAs?$AAe?$AAe?$AAk@ 0000000140050d60     libucrtd:fseek.obj
 0002:00001d80       ??_C@_1HO@BJGCGJL@?$AAw?$AAh?$AAe?$AAn?$AAc?$AAe?$AA?5?$AA?$DN?$AA?$DN?$AA?5?$AAS?$AAE?$AAE?$AAK?$AA_@ 0000000140050d80     libucrtd:fseek.obj
 0002:00001e00       ??_C@_1CO@LBNDLIPC@?$AAs?$AAt?$AAr?$AAe?$AAa?$AAm?$AA?4?$AAp?$AAu?$AAb?$AAl?$AAi?$AAc?$AA_?$AAs@ 0000000140050e00     libucrtd:ftell.obj
 0002:00001e30       ??_C@_1FO@JHBALIAM@?$AAm?$AAi?$AAn?$AAk?$AAe?$AAr?$AAn?$AAe?$AAl?$AA?2?$AAc?$AAr?$AAt?$AAs?$AA?2@ 0000000140050e30     libucrtd:ftell.obj
 0002:00001e90       ??_C@_1CI@MOKEPKDC@?$AAc?$AAo?$AAm?$AAm?$AAo?$AAn?$AA_?$AAf?$AAt?$AAe?$AAl?$AAl?$AA_?$AAn?$AAo@ 0000000140050e90     libucrtd:ftell.obj
 0002:00001ec0       ??_C@_1GM@EDHJGDLB@?$AA?$CI?$AAb?$AAu?$AAf?$AAf?$AAe?$AAr?$AA_?$AAl?$AAa?$AAs?$AAt?$AA?5?$AA?9?$AA?5@ 0000000140050ec0     libucrtd:ftell.obj
 0002:00001f30       ??_C@_1BK@CMPCEPOF@?$AAc?$AAo?$AAm?$AAm?$AAo?$AAn?$AA_?$AAf?$AAt?$AAe?$AAl?$AAl@ 0000000140050f30     libucrtd:ftell.obj
 0002:00001f80       ??_C@_1GA@JFCHAOOC@?$AAm?$AAi?$AAn?$AAk?$AAe?$AAr?$AAn?$AAe?$AAl?$AA?2?$AAc?$AAr?$AAt?$AAs?$AA?2@ 0000000140050f80     libucrtd:fwrite.obj
 0002:00001fe0       ??_C@_1CC@CDKOAKMA@?$AA_?$AAf?$AAw?$AAr?$AAi?$AAt?$AAe?$AA_?$AAi?$AAn?$AAt?$AAe?$AAr?$AAn?$AAa@ 0000000140050fe0     libucrtd:fwrite.obj
 0002:00002008       ??_C@_1DA@MJMBENOF@?$AA_?$AAf?$AAw?$AAr?$AAi?$AAt?$AAe?$AA_?$AAn?$AAo?$AAl?$AAo?$AAc?$AAk?$AA_@ 0000000140051008     libucrtd:fwrite.obj
 0002:00002040       ??_C@_1JG@PCJFJNAC@?$AA?$CI?$AA?$CC?$AAF?$AAl?$AAu?$AAs?$AAh?$AA?5?$AAb?$AAe?$AAt?$AAw?$AAe?$AAe?$AAn@ 0000000140051040     libucrtd:fwrite.obj
 0002:000020d8       ??_C@_02LMMGGCAJ@?3?5@     00000001400510d8     libucrtd:perror.obj
 0002:000020dc       ??_C@_01EEMJAFIK@?6@       00000001400510dc     libucrtd:perror.obj
 0002:000020e0       ?standard_lookup_table_spectre@__crt_stdio_output@@3V?$spectre_mitigated_lookup_table@Ustate_transition_pair@__crt_stdio_output@@$0IA@@1@B 00000001400510e0     libucrtd:output.obj
 0002:000021e0       ?format_validation_lookup_table_spectre@__crt_stdio_output@@3V?$spectre_mitigated_lookup_table@Ustate_transition_pair@__crt_stdio_output@@$0IA@@1@B 00000001400511e0     libucrtd:output.obj
 0002:00002400       ??_C@_1BDG@MKBKGHOH@?$AA?$CI?$AA?5?$AA?$CI?$AA_?$AAS?$AAt?$AAr?$AAe?$AAa?$AAm?$AA?4?$AAi?$AAs?$AA_?$AAs@ 0000000140051400     libucrtd:output.obj
 0002:00002540       ??_C@_1GC@LCDLABEA@?$AAm?$AAi?$AAn?$AAk?$AAe?$AAr?$AAn?$AAe?$AAl?$AA?2?$AAc?$AAr?$AAt?$AAs?$AA?2@ 0000000140051540     libucrtd:output.obj
 0002:000025b0       ??_C@_1II@DIIMCJOK@?$AA_?$AA_?$AAa?$AAc?$AAr?$AAt?$AA_?$AAs?$AAt?$AAd?$AAi?$AAo?$AA_?$AAc?$AAh@ 00000001400515b0     libucrtd:output.obj
 0002:00002640       ??_C@_1GE@DPGDJKLM@?$AAm?$AAi?$AAn?$AAk?$AAe?$AAr?$AAn?$AAe?$AAl?$AA?2?$AAc?$AAr?$AAt?$AAs?$AA?2@ 0000000140051640     libucrtd:output.obj
 0002:000026b0       ??_C@_1GA@MOBAPGIO@?$AAm?$AAi?$AAn?$AAk?$AAe?$AAr?$AAn?$AAe?$AAl?$AA?2?$AAc?$AAr?$AAt?$AAs?$AA?2@ 00000001400516b0     libucrtd:output.obj
 0002:00002710       ??_C@_1CA@GELIJBMC@?$AAc?$AAo?$AAm?$AAm?$AAo?$AAn?$AA_?$AAv?$AAf?$AAp?$AAr?$AAi?$AAn?$AAt?$AAf@ 0000000140051710     libucrtd:output.obj
 0002:00002730       ??_C@_1CE@EAKLPBKK@?$AAf?$AAo?$AAr?$AAm?$AAa?$AAt?$AA?5?$AA?$CB?$AA?$DN?$AA?5?$AAn?$AAu?$AAl?$AAl?$AAp@ 0000000140051730     libucrtd:output.obj
 0002:00002758       ??_C@_1CA@PIMGHCEK@?$AAc?$AAo?$AAm?$AAm?$AAo?$AAn?$AA_?$AAv?$AAs?$AAp?$AAr?$AAi?$AAn?$AAt?$AAf@ 0000000140051758     libucrtd:output.obj
 0002:00002780       ??_C@_1EO@EGEEFEFM@?$AAb?$AAu?$AAf?$AAf?$AAe?$AAr?$AA_?$AAc?$AAo?$AAu?$AAn?$AAt?$AA?5?$AA?$DN?$AA?$DN@ 0000000140051780     libucrtd:output.obj
 0002:000027d0       ??_C@_1CE@JEILLNB@?$AAc?$AAo?$AAm?$AAm?$AAo?$AAn?$AA_?$AAv?$AAs?$AAp?$AAr?$AAi?$AAn?$AAt?$AAf@ 00000001400517d0     libucrtd:output.obj
 0002:00002800       ??_C@_1EM@OAFHAOLH@?$AAb?$AAu?$AAf?$AAf?$AAe?$AAr?$AA?5?$AA?$CB?$AA?$DN?$AA?5?$AAn?$AAu?$AAl?$AAl?$AAp@ 0000000140051800     libucrtd:output.obj
 0002:00002850       ??_C@_1DA@HPBFKMEB@?$AA?$CI?$AA?$CC?$AAB?$AAu?$AAf?$AAf?$AAe?$AAr?$AA?5?$AAt?$AAo?$AAo?$AA?5?$AAs?$AAm@ 0000000140051850     libucrtd:output.obj
 0002:00002880       ??_C@_1CG@LHFJHFBB@?$AAc?$AAo?$AAm?$AAm?$AAo?$AAn?$AA_?$AAv?$AAs?$AAn?$AAp?$AAr?$AAi?$AAn?$AAt@ 0000000140051880     libucrtd:output.obj
 0002:000028a8       ??_C@_1CM@JOIJBMEM@?$AA_?$AAf?$AAo?$AAr?$AAm?$AAa?$AAt?$AA_?$AAi?$AAt?$AA?5?$AA?$CB?$AA?$DN?$AA?5?$AAn@ 00000001400518a8     libucrtd:output.obj
 0002:000028e0       ??_C@_1HA@DMAAKIJP@?$AAm?$AAi?$AAn?$AAk?$AAe?$AAr?$AAn?$AAe?$AAl?$AA?2?$AAc?$AAr?$AAt?$AAs?$AA?2@ 00000001400518e0     libucrtd:output.obj
 0002:00002950       ??_C@_1EE@DMAIGNBG@?$AA?$CI?$AA?$CC?$AAI?$AAn?$AAc?$AAo?$AAr?$AAr?$AAe?$AAc?$AAt?$AA?5?$AAf?$AAo?$AAr@ 0000000140051950     libucrtd:output.obj
 0002:000029a0       ??_C@_1BKA@IIAAOGBO@?$AA_?$AA_?$AAc?$AAr?$AAt?$AA_?$AAs?$AAt?$AAd?$AAi?$AAo?$AA_?$AAo?$AAu?$AAt@ 00000001400519a0     libucrtd:output.obj
 0002:00002b40       ??_C@_1FG@OBJBDPAC@?$AA?$CI?$AA?$CC?$AAN?$AA?5?$AAl?$AAe?$AAn?$AAg?$AAt?$AAh?$AA?5?$AAm?$AAo?$AAd?$AAi@ 0000000140051b40     libucrtd:output.obj
 0002:00002ba0       ??_C@_1EC@GJPNJDCN@?$AA_?$AAl?$AAe?$AAn?$AAg?$AAt?$AAh?$AA?5?$AA?$DN?$AA?$DN?$AA?5?$AAl?$AAe?$AAn?$AAg@ 0000000140051ba0     libucrtd:output.obj
 0002:00002be8       ??_C@_1DG@CEJKFDMO@?$AAs?$AAt?$AAa?$AAt?$AAe?$AA_?$AAc?$AAa?$AAs?$AAe?$AA_?$AAn?$AAo?$AAr?$AAm@ 0000000140051be8     libucrtd:output.obj
 0002:00002c20       ??_C@_1CI@DDKMNCPP@?$AA_?$AAc?$AAo?$AAn?$AAt?$AAe?$AAx?$AAt?$AA?5?$AA?$CB?$AA?$DN?$AA?5?$AAn?$AAu?$AAl@ 0000000140051c20     libucrtd:output.obj
 0002:00002c50       ??_C@_1HK@IIPGOADH@?$AA_?$AA_?$AAc?$AAr?$AAt?$AA_?$AAs?$AAt?$AAd?$AAi?$AAo?$AA_?$AAo?$AAu?$AAt@ 0000000140051c50     libucrtd:output.obj
 0002:00002cd0       ??_C@_1HE@IACOMEJF@?$AA_?$AA_?$AAc?$AAr?$AAt?$AA_?$AAs?$AAt?$AAd?$AAi?$AAo?$AA_?$AAo?$AAu?$AAt@ 0000000140051cd0     libucrtd:output.obj
 0002:00002d50       ??_C@_1GC@BNMHNGKM@?$AA_?$AAs?$AAt?$AAa?$AAt?$AAe?$AA?5?$AA?$DN?$AA?$DN?$AA?5?$AAs?$AAt?$AAa?$AAt?$AAe@ 0000000140051d50     libucrtd:output.obj
 0002:00002db8       ??_C@_1CA@ONEGMNAN@?$AA_?$AAs?$AAt?$AAr?$AAe?$AAa?$AAm?$AA?4?$AAv?$AAa?$AAl?$AAi?$AAd?$AA?$CI?$AA?$CJ@ 0000000140051db8     libucrtd:output.obj
 0002:00002de0       ??_C@_1BLA@GJNGKGIK@?$AA_?$AA_?$AAc?$AAr?$AAt?$AA_?$AAs?$AAt?$AAd?$AAi?$AAo?$AA_?$AAo?$AAu?$AAt@ 0000000140051de0     libucrtd:output.obj
 0002:00002f90       ??_C@_1BLE@PAACOKDK@?$AA_?$AA_?$AAc?$AAr?$AAt?$AA_?$AAs?$AAt?$AAd?$AAi?$AAo?$AA_?$AAo?$AAu?$AAt@ 0000000140051f90     libucrtd:output.obj
 0002:00003150       ??_C@_1HE@FGKHNBNL@?$AA_?$AA_?$AAc?$AAr?$AAt?$AA_?$AAs?$AAt?$AAd?$AAi?$AAo?$AA_?$AAo?$AAu?$AAt@ 0000000140052150     libucrtd:output.obj
 0002:000031d0       ??_C@_1EK@PNGFDECN@?$AA?$CI?$AA?$CC?$AA?8?$AAn?$AA?8?$AA?5?$AAf?$AAo?$AAr?$AAm?$AAa?$AAt?$AA?5?$AAs?$AAp@ 00000001400521d0     libucrtd:output.obj
 0002:00003220       ??_C@_1EO@GHKFGFKL@?$AA?$CI?$AA?$CC?$AAI?$AAn?$AAv?$AAa?$AAl?$AAi?$AAd?$AA?5?$AAi?$AAn?$AAt?$AAe?$AAg@ 0000000140052220     libucrtd:output.obj
 0002:00003270       ??_C@_1BEC@NDOOKIMC@?$AA_?$AA_?$AAc?$AAr?$AAt?$AA_?$AAs?$AAt?$AAd?$AAi?$AAo?$AA_?$AAo?$AAu?$AAt@ 0000000140052270     libucrtd:output.obj
 0002:000033c0       ??_C@_1BDG@KOLEFKPF@?$AA_?$AA_?$AAc?$AAr?$AAt?$AA_?$AAs?$AAt?$AAd?$AAi?$AAo?$AA_?$AAo?$AAu?$AAt@ 00000001400523c0     libucrtd:output.obj
 0002:00003500       ??_C@_1BKI@NDKBCDGP@?$AA_?$AA_?$AAc?$AAr?$AAt?$AA_?$AAs?$AAt?$AAd?$AAi?$AAo?$AA_?$AAo?$AAu?$AAt@ 0000000140052500     libucrtd:output.obj
 0002:000036a8       ??_C@_1O@CEDCILHN@?$AA?$CI?$AAn?$AAu?$AAl?$AAl?$AA?$CJ@ 00000001400526a8     libucrtd:output.obj
 0002:000036b8       ??_C@_06OJHGLDPL@?$CInull?$CJ@ 00000001400526b8     libucrtd:output.obj
 0002:000036c0       ??_C@_1CK@LGDCECDH@?$AA_?$AAf?$AAo?$AAr?$AAm?$AAa?$AAt?$AA_?$AAc?$AAh?$AAa?$AAr?$AA?5?$AA?$CB?$AA?$DN@ 00000001400526c0     libucrtd:output.obj
 0002:000036f0       ??_C@_1BMA@MEBEEDJE@?$AA_?$AA_?$AAc?$AAr?$AAt?$AA_?$AAs?$AAt?$AAd?$AAi?$AAo?$AA_?$AAo?$AAu?$AAt@ 00000001400526f0     libucrtd:output.obj
 0002:000038b0       ??_C@_0DI@KIFBHMNO@minkernel?2crts?2ucrt?2inc?2corecrt@ 00000001400528b0     libucrtd:output.obj
 0002:000038f0       ??_C@_1BLE@MHLEAOID@?$AA_?$AA_?$AAc?$AAr?$AAt?$AA_?$AAs?$AAt?$AAd?$AAi?$AAo?$AA_?$AAo?$AAu?$AAt@ 00000001400528f0     libucrtd:output.obj
 0002:00003ab0       ??_C@_1BMK@JGIBNIA@?$AA_?$AA_?$AAc?$AAr?$AAt?$AA_?$AAs?$AAt?$AAd?$AAi?$AAo?$AA_?$AAo?$AAu?$AAt@ 0000000140052ab0     libucrtd:output.obj
 0002:00003c80       ??_C@_1BLC@INKIGOCN@?$AA_?$AA_?$AAc?$AAr?$AAt?$AA_?$AAs?$AAt?$AAd?$AAi?$AAo?$AA_?$AAo?$AAu?$AAt@ 0000000140052c80     libucrtd:output.obj
 0002:00003e40       ??_C@_1BNK@KHNJGCCP@?$AA_?$AA_?$AAc?$AAr?$AAt?$AA_?$AAs?$AAt?$AAd?$AAi?$AAo?$AA_?$AAo?$AAu?$AAt@ 0000000140052e40     libucrtd:output.obj
 0002:00004020       ??_C@_1BNO@OHFFMOOJ@?$AA_?$AA_?$AAc?$AAr?$AAt?$AA_?$AAs?$AAt?$AAd?$AAi?$AAo?$AA_?$AAo?$AAu?$AAt@ 0000000140053020     libucrtd:output.obj
 0002:00004200       ??_C@_1BMC@FAGJFBLI@?$AA_?$AA_?$AAc?$AAr?$AAt?$AA_?$AAs?$AAt?$AAd?$AAi?$AAo?$AA_?$AAo?$AAu?$AAt@ 0000000140053200     libucrtd:output.obj
 0002:000043d0       ??_C@_1BMG@CGPDIFDK@?$AA_?$AA_?$AAc?$AAr?$AAt?$AA_?$AAs?$AAt?$AAd?$AAi?$AAo?$AA_?$AAo?$AAu?$AAt@ 00000001400533d0     libucrtd:output.obj
 0002:000045a0       ??_C@_1BNC@OHPDPPJK@?$AA_?$AA_?$AAc?$AAr?$AAt?$AA_?$AAs?$AAt?$AAd?$AAi?$AAo?$AA_?$AAo?$AAu?$AAt@ 00000001400535a0     libucrtd:output.obj
 0002:00004780       ??_C@_1BLK@FOLFMPJH@?$AA_?$AA_?$AAc?$AAr?$AAt?$AA_?$AAs?$AAt?$AAd?$AAi?$AAo?$AA_?$AAo?$AAu?$AAt@ 0000000140053780     libucrtd:output.obj
 0002:00004940       ??_C@_1BNC@JPKLPOHO@?$AA_?$AA_?$AAc?$AAr?$AAt?$AA_?$AAs?$AAt?$AAd?$AAi?$AAo?$AA_?$AAo?$AAu?$AAt@ 0000000140053940     libucrtd:output.obj
 0002:00004b20       ??_C@_1EO@MLJCKPIB@?$AAb?$AAa?$AAs?$AAe?$AA?5?$AA?$DN?$AA?$DN?$AA?5?$AA0?$AA?5?$AA?$HM?$AA?$HM?$AA?5?$AA?$CI?$AA2@ 0000000140053b20     libucrtd:output.obj
 0002:00004b70       ??_C@_1DI@BANODKFL@?$AA_?$AA_?$AAc?$AAr?$AAt?$AA_?$AAs?$AAt?$AAr?$AAt?$AAo?$AAx?$AA?3?$AA?3?$AAp@ 0000000140053b70     libucrtd:output.obj
 0002:00004bb0       ??_C@_1BNO@NAODCKFA@?$AA_?$AA_?$AAc?$AAr?$AAt?$AA_?$AAs?$AAt?$AAd?$AAi?$AAo?$AA_?$AAo?$AAu?$AAt@ 0000000140053bb0     libucrtd:output.obj
 0002:00004d90       ??_C@_1BMG@BBEFGBID@?$AA_?$AA_?$AAc?$AAr?$AAt?$AA_?$AAs?$AAt?$AAd?$AAi?$AAo?$AA_?$AAo?$AAu?$AAt@ 0000000140053d90     libucrtd:output.obj
 0002:00004f58       ??_C@_1CM@GJENOOEJ@?$AAc?$AA?5?$AA?$DN?$AA?$DN?$AA?5?$AA?8?$AA?2?$AA0?$AA?8?$AA?5?$AA?$HM?$AA?$HM?$AA?5?$AA?$CK?$AA_@ 0000000140053f58     libucrtd:output.obj
 0002:00004f90       ??_C@_1GK@MNHIDABG@?$AA_?$AA_?$AAc?$AAr?$AAt?$AA_?$AAs?$AAt?$AAr?$AAt?$AAo?$AAx?$AA?3?$AA?3?$AAc@ 0000000140053f90     libucrtd:output.obj
 0002:00005000       ??_C@_1BM@PNEBBBDO@?$AA_?$AAp?$AA?5?$AA?$CB?$AA?$DN?$AA?5?$AAn?$AAu?$AAl?$AAl?$AAp?$AAt?$AAr@ 0000000140054000     libucrtd:output.obj
 0002:00005020       ??_C@_1HA@MKKIHBHP@?$AA_?$AA_?$AAc?$AAr?$AAt?$AA_?$AAs?$AAt?$AAr?$AAt?$AAo?$AAx?$AA?3?$AA?3?$AAc@ 0000000140054020     libucrtd:output.obj
 0002:00005090       ??_C@_1HA@CONLANFI@?$AA_?$AA_?$AAc?$AAr?$AAt?$AA_?$AAs?$AAt?$AAr?$AAt?$AAo?$AAx?$AA?3?$AA?3?$AAc@ 0000000140054090     libucrtd:output.obj
 0002:00005100       ??_C@_1HG@FCDBLOEG@?$AA_?$AA_?$AAc?$AAr?$AAt?$AA_?$AAs?$AAt?$AAr?$AAt?$AAo?$AAx?$AA?3?$AA?3?$AAc@ 0000000140054100     libucrtd:output.obj
 0002:00005180       __acrt_exception_action_table 0000000140054180     libucrtd:exception_filter.obj
 0002:00005240       __acrt_signal_action_table_count 0000000140054240     libucrtd:exception_filter.obj
 0002:00005248       __acrt_signal_action_first_fpe_index 0000000140054248     libucrtd:exception_filter.obj
 0002:00005250       __acrt_signal_action_fpe_count 0000000140054250     libucrtd:exception_filter.obj
 0002:00005260       ??_C@_1IC@DCNEKBE@?$AAm?$AAi?$AAn?$AAk?$AAe?$AAr?$AAn?$AAe?$AAl?$AA?2?$AAc?$AAr?$AAt?$AAs?$AA?2@ 0000000140054260     libucrtd:report_runtime_error.obj
 0002:000052e8       ??_C@_1DI@BLFJHKKP@?$AA_?$AA_?$AAa?$AAc?$AAr?$AAt?$AA_?$AAr?$AAe?$AAp?$AAo?$AAr?$AAt?$AA_?$AAr@ 00000001400542e8     libucrtd:report_runtime_error.obj
 0002:00005320       ??_C@_1LE@MHPGJGKE@?$AAw?$AAc?$AAs?$AAc?$AAp?$AAy?$AA_?$AAs?$AA?$CI?$AAo?$AAu?$AAt?$AAm?$AAs?$AAg@ 0000000140054320     libucrtd:report_runtime_error.obj
 0002:000053d8       ??_C@_1DE@JNGNBFGO@?$AAR?$AAu?$AAn?$AAt?$AAi?$AAm?$AAe?$AA?5?$AAE?$AAr?$AAr?$AAo?$AAr?$AA?$CB?$AA?6@ 00000001400543d8     libucrtd:report_runtime_error.obj
 0002:00005410       ??_C@_1HK@FJJNAABO@?$AAw?$AAc?$AAs?$AAc?$AAp?$AAy?$AA_?$AAs?$AA?$CI?$AAp?$AAr?$AAo?$AAg?$AAn?$AAa@ 0000000140054410     libucrtd:report_runtime_error.obj
 0002:00005490       ??_C@_1CO@EAEJAADC@?$AA?$DM?$AAp?$AAr?$AAo?$AAg?$AAr?$AAa?$AAm?$AA?5?$AAn?$AAa?$AAm?$AAe?$AA?5?$AAu@ 0000000140054490     libucrtd:report_runtime_error.obj
 0002:000054c0       ??_C@_1HI@FLHKGEBE@?$AAw?$AAc?$AAs?$AAn?$AAc?$AAp?$AAy?$AA_?$AAs?$AA?$CI?$AAp?$AAc?$AAh?$AA?0?$AA?5@ 00000001400544c0     libucrtd:report_runtime_error.obj
 0002:00005538       ??_C@_17LGKOMLJ@?$AA?4?$AA?4?$AA?4@ 0000000140054538     libucrtd:report_runtime_error.obj
 0002:00005540       ??_C@_1IG@MNNKBLBI@?$AAw?$AAc?$AAs?$AAc?$AAa?$AAt?$AA_?$AAs?$AA?$CI?$AAo?$AAu?$AAt?$AAm?$AAs?$AAg@ 0000000140054540     libucrtd:report_runtime_error.obj
 0002:000055c8       ??_C@_15IABLJNFO@?$AA?6?$AA?6@ 00000001400545c8     libucrtd:report_runtime_error.obj
 0002:000055d0       ??_C@_1IG@DFBBBDAN@?$AAw?$AAc?$AAs?$AAc?$AAa?$AAt?$AA_?$AAs?$AA?$CI?$AAo?$AAu?$AAt?$AAm?$AAs?$AAg@ 00000001400545d0     libucrtd:report_runtime_error.obj
 0002:00005660       ??_C@_1EK@MBDPDCGA@?$AAM?$AAi?$AAc?$AAr?$AAo?$AAs?$AAo?$AAf?$AAt?$AA?5?$AAV?$AAi?$AAs?$AAu?$AAa@ 0000000140054660     libucrtd:report_runtime_error.obj
 0002:000056d8       ??_C@_0DI@KNDIGDEP@minkernel?2crts?2ucrt?2src?2appcrt?2@ 00000001400546d8     libucrtd:argv_parsing.obj
 0002:00005710       ??_C@_1JO@PGBIJBAM@?$AAm?$AAo?$AAd?$AAe?$AA?5?$AA?$DN?$AA?$DN?$AA?5?$AA_?$AAc?$AAr?$AAt?$AA_?$AAa?$AAr@ 0000000140054710     libucrtd:argv_parsing.obj
 0002:000057b0       ??_C@_1HA@JMLCANEE@?$AAm?$AAi?$AAn?$AAk?$AAe?$AAr?$AAn?$AAe?$AAl?$AA?2?$AAc?$AAr?$AAt?$AAs?$AA?2@ 00000001400547b0     libucrtd:argv_parsing.obj
 0002:00005820       ??_C@_1CM@LHOJELIC@?$AAc?$AAo?$AAm?$AAm?$AAo?$AAn?$AA_?$AAc?$AAo?$AAn?$AAf?$AAi?$AAg?$AAu?$AAr@ 0000000140054820     libucrtd:argv_parsing.obj
 0002:000058d0       ??_C@_0EG@LEHKHOEH@minkernel?2crts?2ucrt?2src?2desktop@ 00000001400548d0     libucrtd:environment_initialization.obj
 0002:00005920       ??_C@_1IM@IMOFFPLG@?$AAm?$AAi?$AAn?$AAk?$AAe?$AAr?$AAn?$AAe?$AAl?$AA?2?$AAc?$AAr?$AAt?$AAs?$AA?2@ 0000000140054920     libucrtd:environment_initialization.obj
 0002:000059b0       ??_C@_1CG@MNNNBNAK@?$AAc?$AAr?$AAe?$AAa?$AAt?$AAe?$AA_?$AAe?$AAn?$AAv?$AAi?$AAr?$AAo?$AAn?$AAm@ 00000001400549b0     libucrtd:environment_initialization.obj
 0002:000059e0       ??_C@_1HI@OOPIFFGA@?$AAt?$AAr?$AAa?$AAi?$AAt?$AAs?$AA?3?$AA?3?$AAt?$AAc?$AAs?$AAc?$AAp?$AAy?$AA_@ 00000001400549e0     libucrtd:environment_initialization.obj
 0002:00005ad0       ??_C@_1BI@BGOHAHKC@?$AAm?$AAs?$AAc?$AAo?$AAr?$AAe?$AAe?$AA?4?$AAd?$AAl?$AAl@ 0000000140054ad0     libucrtd:exit.obj
 0002:00005ae8       ??_C@_0P@MIGLKIOC@CorExitProcess@ 0000000140054ae8     libucrtd:exit.obj
 0002:00005b00       ??_C@_1GC@CIJNGKLD@?$AAm?$AAi?$AAn?$AAk?$AAe?$AAr?$AAn?$AAe?$AAl?$AA?2?$AAc?$AAr?$AAt?$AAs?$AA?2@ 0000000140054b00     libucrtd:setmode.obj
 0002:00005b70       ??_C@_1FO@LPCLHKGE@?$AA?$CI?$AAf?$AAh?$AA?5?$AA?$DO?$AA?$DN?$AA?5?$AA0?$AA?5?$AA?$CG?$AA?$CG?$AA?5?$AA?$CI?$AAu?$AAn@ 0000000140054b70     libucrtd:setmode.obj
 0002:00005bd0       ??_C@_1CM@OKGMMMDH@?$AA?$CI?$AA_?$AAo?$AAs?$AAf?$AAi?$AAl?$AAe?$AA?$CI?$AAf?$AAh?$AA?$CJ?$AA?5?$AA?$CG?$AA?5@ 0000000140054bd0     libucrtd:setmode.obj
 0002:00005c00       ??_C@_1JE@ECKHFIFP@?$AA?$CI?$AA?$CC?$AAI?$AAn?$AAv?$AAa?$AAl?$AAi?$AAd?$AA?5?$AAf?$AAi?$AAl?$AAe?$AA?5@ 0000000140054c00     libucrtd:setmode.obj
 0002:00005ca0       ??_C@_1HC@GNDCDMJL@?$AAm?$AAo?$AAd?$AAe?$AA?5?$AA?$DN?$AA?$DN?$AA?5?$AA_?$AAO?$AA_?$AAT?$AAE?$AAX?$AAT@ 0000000140054ca0     libucrtd:setmode.obj
 0002:00005d18       ??_C@_1BG@IEEHLOCL@?$AA_?$AAs?$AAe?$AAt?$AA_?$AAf?$AAm?$AAo?$AAd?$AAe@ 0000000140054d18     libucrtd:setmode.obj
 0002:00005d30       ??_C@_1CC@ODGEBJBO@?$AAp?$AAM?$AAo?$AAd?$AAe?$AA?5?$AA?$CB?$AA?$DN?$AA?5?$AAn?$AAu?$AAl?$AAl?$AAp?$AAt@ 0000000140054d30     libucrtd:setmode.obj
 0002:00005d58       ??_C@_1BG@CKGMPOFH@?$AA_?$AAg?$AAe?$AAt?$AA_?$AAf?$AAm?$AAo?$AAd?$AAe@ 0000000140054d58     libucrtd:setmode.obj
 0002:00005dc0       ??_C@_1GA@LDEGDKD@?$AA?$CI?$AA?$CC?$AAI?$AAn?$AAv?$AAa?$AAl?$AAi?$AAd?$AA?5?$AAp?$AAa?$AAr?$AAa?$AAm@ 0000000140054dc0     libucrtd:wsetlocale.obj
 0002:00005e20       ??_C@_1GK@DPKNLBIE@?$AAm?$AAi?$AAn?$AAk?$AAe?$AAr?$AAn?$AAe?$AAl?$AA?2?$AAc?$AAr?$AAt?$AAs?$AA?2@ 0000000140054e20     libucrtd:wsetlocale.obj
 0002:00005e90       ??_C@_1CI@FGIONOJM@?$AA_?$AAc?$AAo?$AAn?$AAf?$AAi?$AAg?$AAt?$AAh?$AAr?$AAe?$AAa?$AAd?$AAl?$AAo@ 0000000140054e90     libucrtd:wsetlocale.obj
 0002:00005eb8       ??_C@_1CO@JKFLNGDK@?$AAm?$AAo?$AAd?$AAe?$AA?5?$AA?$DN?$AA?$DN?$AA?5?$AA0?$AA?5?$AA?$HM?$AA?$HM?$AA?5?$AAm?$AAo@ 0000000140054eb8     libucrtd:new_mode.obj
 0002:00005ef0       ??_C@_1GC@PJMKBHEK@?$AAm?$AAi?$AAn?$AAk?$AAe?$AAr?$AAn?$AAe?$AAl?$AA?2?$AAc?$AAr?$AAt?$AAs?$AA?2@ 0000000140054ef0     libucrtd:new_mode.obj
 0002:00005f58       ??_C@_1BM@PDPAKJNF@?$AA_?$AAs?$AAe?$AAt?$AA_?$AAn?$AAe?$AAw?$AA_?$AAm?$AAo?$AAd?$AAe@ 0000000140054f58     libucrtd:new_mode.obj
 0002:00005ff0       ??_C@_0DC@NBHMIIKL@minkernel?2crts?2ucrt?2src?2appcrt?2@ 0000000140054ff0     libucrtd:onexit.obj
 0002:00006180       ??_C@_04HJMOFLDF@Free@     0000000140055180     libucrtd:debug_heap.obj
 0002:00006188       ??_C@_06EFAGIKOH@Normal@   0000000140055188     libucrtd:debug_heap.obj
 0002:00006190       ??_C@_03OGPFLFLO@CRT@      0000000140055190     libucrtd:debug_heap.obj
 0002:00006194       ??_C@_06KMEJCCGM@Ignore@   0000000140055194     libucrtd:debug_heap.obj
 0002:0000619c       ??_C@_06PJIGMIJB@Client@   000000014005519c     libucrtd:debug_heap.obj
 0002:00006220       ??_C@_1CE@LJFEPPMP@?$AA_?$AAC?$AAr?$AAt?$AAC?$AAh?$AAe?$AAc?$AAk?$AAM?$AAe?$AAm?$AAo?$AAr?$AAy@ 0000000140055220     libucrtd:debug_heap.obj
 0002:00006250       ??_C@_1GG@OCLHPJPK@?$AAm?$AAi?$AAn?$AAk?$AAe?$AAr?$AAn?$AAe?$AAl?$AA?2?$AAc?$AAr?$AAt?$AAs?$AA?2@ 0000000140055250     libucrtd:debug_heap.obj
 0002:000062b8       ??_C@_0DF@BBEGIFEK@Client?5hook?5allocation?5failure?5@ 00000001400552b8     libucrtd:debug_heap.obj
 0002:000062f0       ??_C@_0CB@CCLOLAHO@Client?5hook?5allocation?5failure?4@ 00000001400552f0     libucrtd:debug_heap.obj
 0002:00006318       ??_C@_0DC@JEMAGEKG@Error?3?5memory?5allocation?3?5bad?5m@ 0000000140055318     libucrtd:debug_heap.obj
 0002:00006350       ??_C@_0DI@KKJPDPGM@Client?5hook?5re?9allocation?5failu@ 0000000140055350     libucrtd:debug_heap.obj
 0002:00006388       ??_C@_0CE@DOFMDOL@Client?5hook?5re?9allocation?5failu@ 0000000140055388     libucrtd:debug_heap.obj
 0002:000063b0       ??_C@_0FA@EFEIGJKG@Error?3?5memory?5allocation?3?5bad?5m@ 00000001400553b0     libucrtd:debug_heap.obj
 0002:00006400       ??_C@_0EM@LGFLMAGJ@The?5Block?5at?50x?$CFp?5was?5allocated@ 0000000140055400     libucrtd:debug_heap.obj
 0002:00006450       ??_C@_1DM@DEDLGNML@?$AA_?$AAC?$AAr?$AAt?$AAI?$AAs?$AAV?$AAa?$AAl?$AAi?$AAd?$AAH?$AAe?$AAa?$AAp@ 0000000140055450     libucrtd:debug_heap.obj
 0002:00006490       ??_C@_1PC@MCGKJLN@?$AAo?$AAl?$AAd?$AA_?$AAh?$AAe?$AAa?$AAd?$AA?9?$AA?$DO?$AA_?$AAl?$AAi?$AAn?$AAe@ 0000000140055490     libucrtd:debug_heap.obj
 0002:00006588       ??_C@_0DA@HFBKENN@Error?3?5possible?5heap?5corruption@ 0000000140055588     libucrtd:debug_heap.obj
 0002:000065c0       ??_C@_1JM@MCMEPJEP@?$AAr?$AAe?$AAa?$AAl?$AAl?$AAo?$AAc?$AAa?$AAt?$AAi?$AAo?$AAn?$AA_?$AAi?$AAs@ 00000001400555c0     libucrtd:debug_heap.obj
 0002:00006660       ??_C@_1DM@LNOPKAIJ@?$AA_?$AA_?$AAa?$AAc?$AAr?$AAt?$AA_?$AAl?$AAa?$AAs?$AAt?$AA_?$AAb?$AAl?$AAo@ 0000000140055660     libucrtd:debug_heap.obj
 0002:000066a0       ??_C@_1DO@HABCJBHO@?$AA_?$AA_?$AAa?$AAc?$AAr?$AAt?$AA_?$AAf?$AAi?$AAr?$AAs?$AAt?$AA_?$AAb?$AAl@ 00000001400556a0     libucrtd:debug_heap.obj
 0002:000066e0       ??_C@_1CC@CKEAHJPH@?$AAb?$AAl?$AAo?$AAc?$AAk?$AA?5?$AA?$CB?$AA?$DN?$AA?5?$AAn?$AAu?$AAl?$AAl?$AAp?$AAt@ 00000001400556e0     libucrtd:debug_heap.obj
 0002:00006710       ??_C@_0EJ@HEIBCIMJ@The?5Block?5at?50x?$CFp?5was?5allocated@ 0000000140055710     libucrtd:debug_heap.obj
 0002:00006760       ??_C@_0BL@KEIPLFAC@Client?5hook?5free?5failure?4?6@ 0000000140055760     libucrtd:debug_heap.obj
 0002:00006780       ??_C@_1FA@KDNEBILF@?$AAi?$AAs?$AA_?$AAb?$AAl?$AAo?$AAc?$AAk?$AA_?$AAt?$AAy?$AAp?$AAe?$AA_?$AAv@ 0000000140055780     libucrtd:debug_heap.obj
 0002:000067d0       ??_C@_0KI@JGFOHMEB@HEAP?5CORRUPTION?5DETECTED?3?5befor@ 00000001400557d0     libucrtd:debug_heap.obj
 0002:00006880       ??_C@_0IK@PJCGLBOB@HEAP?5CORRUPTION?5DETECTED?3?5befor@ 0000000140055880     libucrtd:debug_heap.obj
 0002:00006910       ??_C@_0KE@MBMNHHHN@HEAP?5CORRUPTION?5DETECTED?3?5after@ 0000000140055910     libucrtd:debug_heap.obj
 0002:000069c0       ??_C@_0IG@LEMBDCJK@HEAP?5CORRUPTION?5DETECTED?3?5after@ 00000001400559c0     libucrtd:debug_heap.obj
 0002:00006a50       ??_C@_1OK@GFEOEJAF@?$AAh?$AAe?$AAa?$AAd?$AAe?$AAr?$AA?9?$AA?$DO?$AA_?$AAl?$AAi?$AAn?$AAe?$AA_?$AAn@ 0000000140055a50     libucrtd:debug_heap.obj
 0002:00006b40       ??_C@_1ME@GFALMLNA@?$AAh?$AAe?$AAa?$AAd?$AAe?$AAr?$AA?9?$AA?$DO?$AA_?$AAb?$AAl?$AAo?$AAc?$AAk?$AA_@ 0000000140055b40     libucrtd:debug_heap.obj
 0002:00006c08       ??_C@_1DI@ILNOPEPI@?$AA_?$AA_?$AAa?$AAc?$AAr?$AAt?$AA_?$AAl?$AAa?$AAs?$AAt?$AA_?$AAb?$AAl?$AAo@ 0000000140055c08     libucrtd:debug_heap.obj
 0002:00006c40       ??_C@_1DK@KEHFGDIJ@?$AA_?$AA_?$AAa?$AAc?$AAr?$AAt?$AA_?$AAf?$AAi?$AAr?$AAs?$AAt?$AA_?$AAb?$AAl@ 0000000140055c40     libucrtd:debug_heap.obj
 0002:00006c80       ??_C@_1BG@MBKOGDLD@?$AA_?$AAm?$AAs?$AAi?$AAz?$AAe?$AA_?$AAd?$AAb?$AAg@ 0000000140055c80     libucrtd:debug_heap.obj
 0002:00006c98       ??_C@_07OHKEFPKJ@DAMAGED@  0000000140055c98     libucrtd:debug_heap.obj
 0002:00006ca0       ??_C@_0KA@IHNJJKPL@HEAP?5CORRUPTION?5DETECTED?3?5on?5to@ 0000000140055ca0     libucrtd:debug_heap.obj
 0002:00006d40       ??_C@_0IC@BBJIOOJH@HEAP?5CORRUPTION?5DETECTED?3?5on?5to@ 0000000140055d40     libucrtd:debug_heap.obj
 0002:00006dd0       ??_C@_0EG@DGJMPDBH@?$CFhs?5located?5at?50x?$CFp?5is?5?$CFIu?5byte@ 0000000140055dd0     libucrtd:debug_heap.obj
 0002:00006e18       ??_C@_0CI@JMLBEDHJ@?$CFhs?5located?5at?50x?$CFp?5is?5?$CFIu?5byte@ 0000000140055e18     libucrtd:debug_heap.obj
 0002:00006e40       ??_C@_0EG@GPFHANHO@Cycle?5in?5block?5list?5detected?5wh@ 0000000140055e40     libucrtd:debug_heap.obj
 0002:00006e88       ??_C@_0BJ@ELMAOCAJ@Heap?5validation?5failed?4?6@ 0000000140055e88     libucrtd:debug_heap.obj
 0002:00006eb0       ??_C@_1IE@BBIFDGEB@?$AAn?$AAe?$AAw?$AA_?$AAb?$AAi?$AAt?$AAs?$AA?5?$AA?$DN?$AA?$DN?$AA?5?$AA_?$AAC?$AAR@ 0000000140055eb0     libucrtd:debug_heap.obj
 0002:00006f38       ??_C@_1BO@GJFDNMNF@?$AA_?$AAC?$AAr?$AAt?$AAS?$AAe?$AAt?$AAD?$AAb?$AAg?$AAF?$AAl?$AAa?$AAg@ 0000000140055f38     libucrtd:debug_heap.obj
 0002:00006f58       ??_C@_1CC@BBKMONGA@?$AAs?$AAt?$AAa?$AAt?$AAe?$AA?5?$AA?$CB?$AA?$DN?$AA?5?$AAn?$AAu?$AAl?$AAl?$AAp?$AAt@ 0000000140055f58     libucrtd:debug_heap.obj
 0002:00006f80       ??_C@_1CE@NJJKELF@?$AA_?$AAC?$AAr?$AAt?$AAM?$AAe?$AAm?$AAC?$AAh?$AAe?$AAc?$AAk?$AAp?$AAo?$AAi@ 0000000140055f80     libucrtd:debug_heap.obj
 0002:00006fa8       ??_C@_0DP@LEFMFBOD@Bad?5memory?5block?5found?5at?50x?$CFp?4@ 0000000140055fa8     libucrtd:debug_heap.obj
 0002:00006fe8       ??_C@_0CB@EAAIGELO@Bad?5memory?5block?5found?5at?50x?$CFp?4@ 0000000140055fe8     libucrtd:debug_heap.obj
 0002:0000700c       ??_C@_05MKKEDADM@?$CF?42X?5@ 000000014005600c     libucrtd:debug_heap.obj
 0002:00007018       ??_C@_1CC@DIJAHFFJ@?$AAp?$AAr?$AAi?$AAn?$AAt?$AA_?$AAb?$AAl?$AAo?$AAc?$AAk?$AA_?$AAd?$AAa?$AAt@ 0000000140056018     libucrtd:debug_heap.obj
 0002:00007040       ??_C@_1BI@KALLJECN@?$AA?$CI?$AA?$CK?$AA_?$AAe?$AAr?$AAr?$AAn?$AAo?$AA?$CI?$AA?$CJ?$AA?$CJ@ 0000000140056040     libucrtd:debug_heap.obj
 0002:00007058       ??_C@_0BA@HJBKCELP@?5Data?3?5?$DM?$CFs?$DO?5?$CFs?6@ 0000000140056058     libucrtd:debug_heap.obj
 0002:00007068       ??_C@_0BE@KCIPKCIA@Dumping?5objects?5?9?$DO?6@ 0000000140056068     libucrtd:debug_heap.obj
 0002:00007080       ??_C@_0BE@OIEFNFL@?$CDFile?5Error?$CD?$CI?$CFd?$CJ?5?3?5@ 0000000140056080     libucrtd:debug_heap.obj
 0002:00007098       ??_C@_0L@JMEFFCCJ@?$CFhs?$CI?$CFd?$CJ?5?3?5@ 0000000140056098     libucrtd:debug_heap.obj
 0002:000070a4       ??_C@_06PKLGBFGM@?$HL?$CFld?$HN?5@ 00000001400560a4     libucrtd:debug_heap.obj
 0002:000070b0       ??_C@_0DD@GHNAAKBB@client?5block?5at?50x?$CFp?0?5subtype?5?$CF@ 00000001400560b0     libucrtd:debug_heap.obj
 0002:000070e8       ??_C@_0CH@FAGDDGPN@normal?5block?5at?50x?$CFp?0?5?$CFIu?5bytes@ 00000001400560e8     libucrtd:debug_heap.obj
 0002:00007110       ??_C@_0DA@MDLBNIBM@crt?5block?5at?50x?$CFp?0?5subtype?5?$CFx?0?5@ 0000000140056110     libucrtd:debug_heap.obj
 0002:00007140       ??_C@_0BH@GFGKJDCO@Object?5dump?5complete?4?6@ 0000000140056140     libucrtd:debug_heap.obj
 0002:00007158       ??_C@_0BI@JBFPOEJA@Detected?5memory?5leaks?$CB?6@ 0000000140056158     libucrtd:debug_heap.obj
 0002:00007170       ??_C@_1GI@BBAEIKL@?$AA?$CI?$AA?$CI?$AAd?$AAe?$AAs?$AAt?$AAi?$AAn?$AAa?$AAt?$AAi?$AAo?$AAn?$AA?$CJ?$AA?$CJ@ 0000000140056170     libucrtd:strcpy_s.obj
 0002:000071e0       ??_C@_1HI@PBJPCEBC@?$AAm?$AAi?$AAn?$AAk?$AAe?$AAr?$AAn?$AAe?$AAl?$AA?2?$AAc?$AAr?$AAt?$AAs?$AA?2@ 00000001400561e0     libucrtd:strcpy_s.obj
 0002:00007258       ??_C@_1CA@FHIAGDFH@?$AAc?$AAo?$AAm?$AAm?$AAo?$AAn?$AA_?$AAt?$AAc?$AAs?$AAc?$AAp?$AAy?$AA_?$AAs@ 0000000140056258     libucrtd:strcpy_s.obj
 0002:00007278       ??_C@_1CK@EIOKGPJL@?$AA?$CI?$AA?$CI?$AA?$CI?$AAs?$AAo?$AAu?$AAr?$AAc?$AAe?$AA?$CJ?$AA?$CJ?$AA?$CJ?$AA?5?$AA?$CB?$AA?$DN@ 0000000140056278     libucrtd:strcpy_s.obj
 0002:000072a8       ??_C@_1CI@HCPHDDLE@?$AAB?$AAu?$AAf?$AAf?$AAe?$AAr?$AA?5?$AAi?$AAs?$AA?5?$AAt?$AAo?$AAo?$AA?5?$AAs@ 00000001400562a8     libucrtd:strcpy_s.obj
 0002:000072d0       ??_C@_1DM@MADKGDLO@?$AA?$CI?$AAL?$AA?$CC?$AAB?$AAu?$AAf?$AAf?$AAe?$AAr?$AA?5?$AAi?$AAs?$AA?5?$AAt?$AAo@ 00000001400562d0     libucrtd:strcpy_s.obj
 0002:00007310       ??_C@_1DA@LLLMNMKI@?$AAa?$AAb?$AAo?$AAr?$AAt?$AA?$CI?$AA?$CJ?$AA?5?$AAh?$AAa?$AAs?$AA?5?$AAb?$AAe?$AAe@ 0000000140056310     libucrtd:abort.obj
 0002:00007358       ??_C@_1BA@GLMCNLEM@?$AAW?$AAa?$AAr?$AAn?$AAi?$AAn?$AAg@ 0000000140056358     libucrtd:dbgrpt.obj
 0002:00007368       ??_C@_1M@ILHOPKA@?$AAE?$AAr?$AAr?$AAo?$AAr@ 0000000140056368     libucrtd:dbgrpt.obj
 0002:00007378       ??_C@_1CC@CGHMNGDG@?$AAA?$AAs?$AAs?$AAe?$AAr?$AAt?$AAi?$AAo?$AAn?$AA?5?$AAF?$AAa?$AAi?$AAl?$AAe@ 0000000140056378     libucrtd:dbgrpt.obj
 0002:000073b0       ??_C@_1OG@PMPPFHAF@?$AA?6?$AA?6?$AAF?$AAo?$AAr?$AA?5?$AAi?$AAn?$AAf?$AAo?$AAr?$AAm?$AAa?$AAt?$AAi@ 00000001400563b0     libucrtd:dbgrpt.obj
 0002:000074a0       ??_C@_1MG@LJLILFFD@?$AAD?$AAe?$AAb?$AAu?$AAg?$AA?5?$AA?$CF?$AAl?$AAs?$AA?$CB?$AA?6?$AA?6?$AAP?$AAr?$AAo@ 00000001400564a0     libucrtd:dbgrpt.obj
 0002:00007570       ??_C@_1MG@OODCADGL@?$AAD?$AAe?$AAb?$AAu?$AAg?$AA?5?$AA?$CF?$AAl?$AAs?$AA?$CB?$AA?6?$AA?6?$AAP?$AAr?$AAo@ 0000000140056570     libucrtd:dbgrpt.obj
 0002:00007638       ??_C@_0BH@DNAGHKFM@?$DMprogram?5name?5unknown?$DO@ 0000000140056638     libucrtd:dbgrpt.obj
 0002:00007650       ??_C@_1FO@GMJDLAJD@?$AAm?$AAi?$AAn?$AAk?$AAe?$AAr?$AAn?$AAe?$AAl?$AA?2?$AAc?$AAr?$AAt?$AAs?$AA?2@ 0000000140056650     libucrtd:dbgrpt.obj
 0002:000076b0       ??_C@_1CM@EHMOGBJJ@?$AAc?$AAo?$AAm?$AAm?$AAo?$AAn?$AA_?$AAm?$AAe?$AAs?$AAs?$AAa?$AAg?$AAe?$AA_@ 00000001400566b0     libucrtd:dbgrpt.obj
 0002:000076e0       ??_C@_1PE@ECNALGCA@?$AAt?$AAr?$AAa?$AAi?$AAt?$AAs?$AA?3?$AA?3?$AAt?$AAc?$AAs?$AAc?$AAp?$AAy?$AA_@ 00000001400566e0     libucrtd:dbgrpt.obj
 0002:000077d8       ??_C@_1BK@PEDCIPMA@?$AAE?$AAx?$AAp?$AAr?$AAe?$AAs?$AAs?$AAi?$AAo?$AAn?$AA?3?$AA?5@ 00000001400567d8     libucrtd:dbgrpt.obj
 0002:000077f8       ??_C@_1BA@GLLGCPCK@?$AA?6?$AAL?$AAi?$AAn?$AAe?$AA?3?$AA?5@ 00000001400567f8     libucrtd:dbgrpt.obj
 0002:00007808       ??_C@_1BA@LNHECFIM@?$AA?6?$AAF?$AAi?$AAl?$AAe?$AA?3?$AA?5@ 0000000140056808     libucrtd:dbgrpt.obj
 0002:00007818       ??_C@_1BE@CGCJKGHI@?$AA?6?$AAM?$AAo?$AAd?$AAu?$AAl?$AAe?$AA?3?$AA?5@ 0000000140056818     libucrtd:dbgrpt.obj
 0002:00007830       ??_C@_1JM@IBOIJEOO@?$AAw?$AAc?$AAs?$AAc?$AAp?$AAy?$AA_?$AAs?$AA?$CI?$AAm?$AAe?$AAs?$AAs?$AAa?$AAg@ 0000000140056830     libucrtd:dbgrpt.obj
 0002:000078d0       ??_C@_1FG@BBOLDHGF@?$AA_?$AAC?$AAr?$AAt?$AAD?$AAb?$AAg?$AAR?$AAe?$AAp?$AAo?$AAr?$AAt?$AA?3?$AA?5@ 00000001400568d0     libucrtd:dbgrpt.obj
 0002:00007b40       ??_C@_1EA@JGEFHKEI@?$AAa?$AAp?$AAi?$AA?9?$AAm?$AAs?$AA?9?$AAw?$AAi?$AAn?$AA?9?$AAc?$AAo?$AAr?$AAe@ 0000000140056b40     libucrtd:winapi_thunks.obj
 0002:00007b80       ??_C@_1DI@IJCEHOCB@?$AAa?$AAp?$AAi?$AA?9?$AAm?$AAs?$AA?9?$AAw?$AAi?$AAn?$AA?9?$AAc?$AAo?$AAr?$AAe@ 0000000140056b80     libucrtd:winapi_thunks.obj
 0002:00007bc0       ??_C@_1EI@MPIAOHOC@?$AAa?$AAp?$AAi?$AA?9?$AAm?$AAs?$AA?9?$AAw?$AAi?$AAn?$AA?9?$AAc?$AAo?$AAr?$AAe@ 0000000140056bc0     libucrtd:winapi_thunks.obj
 0002:00007c10       ??_C@_1FK@FPHCKFIE@?$AAa?$AAp?$AAi?$AA?9?$AAm?$AAs?$AA?9?$AAw?$AAi?$AAn?$AA?9?$AAc?$AAo?$AAr?$AAe@ 0000000140056c10     libucrtd:winapi_thunks.obj
 0002:00007c70       ??_C@_1EM@DILCGIIO@?$AAa?$AAp?$AAi?$AA?9?$AAm?$AAs?$AA?9?$AAw?$AAi?$AAn?$AA?9?$AAc?$AAo?$AAr?$AAe@ 0000000140056c70     libucrtd:winapi_thunks.obj
 0002:00007cc0       ??_C@_1DM@LNCGDDPN@?$AAa?$AAp?$AAi?$AA?9?$AAm?$AAs?$AA?9?$AAw?$AAi?$AAn?$AA?9?$AAc?$AAo?$AAr?$AAe@ 0000000140056cc0     libucrtd:winapi_thunks.obj
 0002:00007d00       ??_C@_1DO@FPAPJEMD@?$AAa?$AAp?$AAi?$AA?9?$AAm?$AAs?$AA?9?$AAw?$AAi?$AAn?$AA?9?$AAc?$AAo?$AAr?$AAe@ 0000000140056d00     libucrtd:winapi_thunks.obj
 0002:00007d40       ??_C@_1DK@NDHNAHIO@?$AAa?$AAp?$AAi?$AA?9?$AAm?$AAs?$AA?9?$AAw?$AAi?$AAn?$AA?9?$AAc?$AAo?$AAr?$AAe@ 0000000140056d40     libucrtd:winapi_thunks.obj
 0002:00007d80       ??_C@_1DM@KGHDGBCM@?$AAa?$AAp?$AAi?$AA?9?$AAm?$AAs?$AA?9?$AAw?$AAi?$AAn?$AA?9?$AAc?$AAo?$AAr?$AAe@ 0000000140056d80     libucrtd:winapi_thunks.obj
 0002:00007dc0       ??_C@_1EO@IJIOEFOH@?$AAa?$AAp?$AAi?$AA?9?$AAm?$AAs?$AA?9?$AAw?$AAi?$AAn?$AA?9?$AAr?$AAt?$AAc?$AAo@ 0000000140056dc0     libucrtd:winapi_thunks.obj
 0002:00007e10       ??_C@_1FG@HHGEKANL@?$AAa?$AAp?$AAi?$AA?9?$AAm?$AAs?$AA?9?$AAw?$AAi?$AAn?$AA?9?$AAs?$AAe?$AAc?$AAu@ 0000000140056e10     libucrtd:winapi_thunks.obj
 0002:00007e70       ??_C@_1EG@DBIOJECG@?$AAe?$AAx?$AAt?$AA?9?$AAm?$AAs?$AA?9?$AAw?$AAi?$AAn?$AA?9?$AAn?$AAt?$AAu?$AAs@ 0000000140056e70     libucrtd:winapi_thunks.obj
 0002:00007ec0       ??_C@_1EO@FIHMJCLF@?$AAe?$AAx?$AAt?$AA?9?$AAm?$AAs?$AA?9?$AAw?$AAi?$AAn?$AA?9?$AAn?$AAt?$AAu?$AAs@ 0000000140056ec0     libucrtd:winapi_thunks.obj
 0002:00007f10       ??_C@_1BC@DNHGCMLG@?$AAa?$AAd?$AAv?$AAa?$AAp?$AAi?$AA3?$AA2@ 0000000140056f10     libucrtd:winapi_thunks.obj
 0002:00007f28       ??_C@_1M@OAIMIKLP@?$AAn?$AAt?$AAd?$AAl?$AAl@ 0000000140056f28     libucrtd:winapi_thunks.obj
 0002:00007f40       ??_C@_1EG@DPGNFKGC@?$AAa?$AAp?$AAi?$AA?9?$AAm?$AAs?$AA?9?$AAw?$AAi?$AAn?$AA?9?$AAa?$AAp?$AAp?$AAm@ 0000000140056f40     libucrtd:winapi_thunks.obj
 0002:00007f88       ??_C@_1O@BCCLBEOE@?$AAu?$AAs?$AAe?$AAr?$AA3?$AA2@ 0000000140056f88     libucrtd:winapi_thunks.obj
 0002:00007f98       ??_C@_1BA@IAIFMGEF@?$AAe?$AAx?$AAt?$AA?9?$AAm?$AAs?$AA?9@ 0000000140056f98     libucrtd:winapi_thunks.obj
 0002:00007fb0       ??_C@_1HE@OILMBOBA@?$AAm?$AAi?$AAn?$AAk?$AAe?$AAr?$AAn?$AAe?$AAl?$AA?2?$AAc?$AAr?$AAt?$AAs?$AA?2@ 0000000140056fb0     libucrtd:winapi_thunks.obj
 0002:00008028       ??_C@_0BA@FHFNEAED@AreFileApisANSI@ 0000000140057028     libucrtd:winapi_thunks.obj
 0002:00008040       ??_C@_0BA@IHGNDAEB@CompareStringEx@ 0000000140057040     libucrtd:winapi_thunks.obj
 0002:00008058       ??_C@_0BA@HNOPNCHB@GetActiveWindow@ 0000000140057058     libucrtd:winapi_thunks.obj
 0002:00008070       ??_C@_0BD@HHGDFDBJ@GetLastActivePopup@ 0000000140057070     libucrtd:winapi_thunks.obj
 0002:00008090       ??_C@_0BI@DFKBFLJE@GetProcessWindowStation@ 0000000140057090     libucrtd:winapi_thunks.obj
 0002:000080b0       ??_C@_0BK@DEKFELLI@GetUserObjectInformationW@ 00000001400570b0     libucrtd:winapi_thunks.obj
 0002:000080e0       ??_C@_0O@KKBNKAPF@LCMapStringEx@ 00000001400570e0     libucrtd:winapi_thunks.obj
 0002:000080f8       ??_C@_0BB@HBDEELFH@LocaleNameToLCID@ 00000001400570f8     libucrtd:winapi_thunks.obj
 0002:00008118       ??_C@_0M@CHKKJDAI@MessageBoxA@ 0000000140057118     libucrtd:winapi_thunks.obj
 0002:00008130       ??_C@_0M@DLDCCGNP@MessageBoxW@ 0000000140057130     libucrtd:winapi_thunks.obj
 0002:00008140       ??_C@_0CF@OJOFEIGO@AppPolicyGetProcessTerminationM@ 0000000140057140     libucrtd:winapi_thunks.obj
 0002:00008170       ??_C@_0CE@OICFMIKE@AppPolicyGetShowDeveloperDiagno@ 0000000140057170     libucrtd:winapi_thunks.obj
 0002:00008198       ??_C@_0BL@ODDJNEDA@AppPolicyGetWindowingModel@ 0000000140057198     libucrtd:winapi_thunks.obj
 0002:00008230       ??_C@_1GE@GPOPIOIG@?$AAm?$AAi?$AAn?$AAk?$AAe?$AAr?$AAn?$AAe?$AAl?$AA?2?$AAc?$AAr?$AAt?$AAs?$AA?2@ 0000000140057230     libucrtd:_freebuf.obj
 0002:000082a0       ??_C@_1GA@KCAHHNGP@?$AAm?$AAi?$AAn?$AAk?$AAe?$AAr?$AAn?$AAe?$AAl?$AA?2?$AAc?$AAr?$AAt?$AAs?$AA?2@ 00000001400572a0     libucrtd:fileno.obj
 0002:00008300       ??_C@_1BA@JGHIEKKM@?$AA_?$AAf?$AAi?$AAl?$AAe?$AAn?$AAo@ 0000000140057300     libucrtd:fileno.obj
 0002:00008340       ??_C@_1FO@IPDGALOE@?$AAm?$AAi?$AAn?$AAk?$AAe?$AAr?$AAn?$AAe?$AAl?$AA?2?$AAc?$AAr?$AAt?$AAs?$AA?2@ 0000000140057340     libucrtd:close.obj
 0002:000083a0       ??_C@_1CA@GBJHJLEM@?$AA_?$AAc?$AAl?$AAo?$AAs?$AAe?$AA_?$AAi?$AAn?$AAt?$AAe?$AAr?$AAn?$AAa?$AAl@ 00000001400573a0     libucrtd:close.obj
 0002:000083c0       ??_C@_0DA@OGKFKCBE@minkernel?2crts?2ucrt?2src?2appcrt?2@ 00000001400573c0     libucrtd:stream.obj
 0002:000084e0       ??_C@_0DM@DKIFNNOL@minkernel?2crts?2ucrt?2src?2appcrt?2@ 00000001400574e0     libucrtd:per_thread_data.obj
 0002:00008520       __lc_time_c                0000000140057520     libucrtd:nlsdata.obj
 0002:000087e0       ??_C@_03KOEHGMDN@Sun@      00000001400577e0     libucrtd:nlsdata.obj
 0002:000087e4       ??_C@_03PDAGKDH@Mon@       00000001400577e4     libucrtd:nlsdata.obj
 0002:000087e8       ??_C@_03NAGEINEP@Tue@      00000001400577e8     libucrtd:nlsdata.obj
 0002:000087ec       ??_C@_03MHOMLAJA@Wed@      00000001400577ec     libucrtd:nlsdata.obj
 0002:000087f0       ??_C@_03IOFIKPDN@Thu@      00000001400577f0     libucrtd:nlsdata.obj
 0002:000087f4       ??_C@_03IDIOELNC@Fri@      00000001400577f4     libucrtd:nlsdata.obj
 0002:000087f8       ??_C@_03FEFJNEK@Sat@       00000001400577f8     libucrtd:nlsdata.obj
 0002:000087fc       ??_C@_06OOPIFAJ@Sunday@    00000001400577fc     libucrtd:nlsdata.obj
 0002:00008804       ??_C@_06JLEDEDGH@Monday@   0000000140057804     libucrtd:nlsdata.obj
 0002:00008810       ??_C@_07BAAGCFCM@Tuesday@  0000000140057810     libucrtd:nlsdata.obj
 0002:00008818       ??_C@_09DLIGFAKA@Wednesday@ 0000000140057818     libucrtd:nlsdata.obj
 0002:00008828       ??_C@_08HACCIKIA@Thursday@ 0000000140057828     libucrtd:nlsdata.obj
 0002:00008834       ??_C@_06JECMNKMI@Friday@   0000000140057834     libucrtd:nlsdata.obj
 0002:00008840       ??_C@_08INBOOONO@Saturday@ 0000000140057840     libucrtd:nlsdata.obj
 0002:0000884c       ??_C@_03JIHJHPIE@Jan@      000000014005784c     libucrtd:nlsdata.obj
 0002:00008850       ??_C@_03HJBDCHOM@Feb@      0000000140057850     libucrtd:nlsdata.obj
 0002:00008854       ??_C@_03ODNJBKGA@Mar@      0000000140057854     libucrtd:nlsdata.obj
 0002:00008858       ??_C@_03LEOLGMJP@Apr@      0000000140057858     libucrtd:nlsdata.obj
 0002:0000885c       ??_C@_03CNMDKL@May@        000000014005785c     libucrtd:nlsdata.obj
 0002:00008860       ??_C@_03IDFGHECI@Jun@      0000000140057860     libucrtd:nlsdata.obj
 0002:00008864       ??_C@_03LBGABGKK@Jul@      0000000140057864     libucrtd:nlsdata.obj
 0002:00008868       ??_C@_03IFJFEIGA@Aug@      0000000140057868     libucrtd:nlsdata.obj
 0002:0000886c       ??_C@_03GGCAPAJC@Sep@      000000014005786c     libucrtd:nlsdata.obj
 0002:00008870       ??_C@_03BMAOKBAD@Oct@      0000000140057870     libucrtd:nlsdata.obj
 0002:00008874       ??_C@_03JPJOFNIA@Nov@      0000000140057874     libucrtd:nlsdata.obj
 0002:00008878       ??_C@_03MKABNOCG@Dec@      0000000140057878     libucrtd:nlsdata.obj
 0002:00008880       ??_C@_07CGJPFGJA@January@  0000000140057880     libucrtd:nlsdata.obj
 0002:00008888       ??_C@_08GNJGEPFN@February@ 0000000140057888     libucrtd:nlsdata.obj
 0002:00008894       ??_C@_05HPCKOFNC@March@    0000000140057894     libucrtd:nlsdata.obj
 0002:0000889c       ??_C@_05DMJDNLEJ@April@    000000014005789c     libucrtd:nlsdata.obj
 0002:000088a4       ??_C@_04CNLMGBGM@June@     00000001400578a4     libucrtd:nlsdata.obj
 0002:000088ac       ??_C@_04MIEPOIFP@July@     00000001400578ac     libucrtd:nlsdata.obj
 0002:000088b4       ??_C@_06LBBHFDDG@August@   00000001400578b4     libucrtd:nlsdata.obj
 0002:000088c0       ??_C@_09BHHEALKD@September@ 00000001400578c0     libucrtd:nlsdata.obj
 0002:000088d0       ??_C@_07JJNFCEND@October@  00000001400578d0     libucrtd:nlsdata.obj
 0002:000088d8       ??_C@_08HCHEGEOA@November@ 00000001400578d8     libucrtd:nlsdata.obj
 0002:000088e8       ??_C@_08EDHMEBNP@December@ 00000001400578e8     libucrtd:nlsdata.obj
 0002:000088f4       ??_C@_02DEDBPAFC@AM@       00000001400578f4     libucrtd:nlsdata.obj
 0002:000088f8       ??_C@_02CJNFDJBF@PM@       00000001400578f8     libucrtd:nlsdata.obj
 0002:00008900       ??_C@_08BPBNCDIB@MM?1dd?1yy@ 0000000140057900     libucrtd:nlsdata.obj
 0002:00008910       ??_C@_0BE@CKGJFCPC@dddd?0?5MMMM?5dd?0?5yyyy@ 0000000140057910     libucrtd:nlsdata.obj
 0002:00008928       ??_C@_08JCCMCCIL@HH?3mm?3ss@ 0000000140057928     libucrtd:nlsdata.obj
 0002:00008938       ??_C@_17MBGCMIPB@?$AAS?$AAu?$AAn@ 0000000140057938     libucrtd:nlsdata.obj
 0002:00008940       ??_C@_17KBOMKBF@?$AAM?$AAo?$AAn@ 0000000140057940     libucrtd:nlsdata.obj
 0002:00008948       ??_C@_17BMKGEGOJ@?$AAT?$AAu?$AAe@ 0000000140057948     libucrtd:nlsdata.obj
 0002:00008950       ??_C@_17CJEDCEPE@?$AAW?$AAe?$AAd@ 0000000140057950     libucrtd:nlsdata.obj
 0002:00008958       ??_C@_17PDPHAADD@?$AAT?$AAh?$AAu@ 0000000140057958     libucrtd:nlsdata.obj
 0002:00008960       ??_C@_17HFOLPPLP@?$AAF?$AAr?$AAi@ 0000000140057960     libucrtd:nlsdata.obj
 0002:00008968       ??_C@_17GGIBDPIH@?$AAS?$AAa?$AAt@ 0000000140057968     libucrtd:nlsdata.obj
 0002:00008970       ??_C@_1O@IHNHDHPB@?$AAS?$AAu?$AAn?$AAd?$AAa?$AAy@ 0000000140057970     libucrtd:nlsdata.obj
 0002:00008980       ??_C@_1O@MMNBFLIA@?$AAM?$AAo?$AAn?$AAd?$AAa?$AAy@ 0000000140057980     libucrtd:nlsdata.obj
 0002:00008990       ??_C@_1BA@ENFBFFEK@?$AAT?$AAu?$AAe?$AAs?$AAd?$AAa?$AAy@ 0000000140057990     libucrtd:nlsdata.obj
 0002:000089a0       ??_C@_1BE@EBOGMDOH@?$AAW?$AAe?$AAd?$AAn?$AAe?$AAs?$AAd?$AAa?$AAy@ 00000001400579a0     libucrtd:nlsdata.obj
 0002:000089b8       ??_C@_1BC@HHMNLIHE@?$AAT?$AAh?$AAu?$AAr?$AAs?$AAd?$AAa?$AAy@ 00000001400579b8     libucrtd:nlsdata.obj
 0002:000089d0       ??_C@_1O@PDICJHAG@?$AAF?$AAr?$AAi?$AAd?$AAa?$AAy@ 00000001400579d0     libucrtd:nlsdata.obj
 0002:000089e0       ??_C@_1BC@ENMNNPAJ@?$AAS?$AAa?$AAt?$AAu?$AAr?$AAd?$AAa?$AAy@ 00000001400579e0     libucrtd:nlsdata.obj
 0002:000089f8       ??_C@_17DKNBKCHM@?$AAJ?$AAa?$AAn@ 00000001400579f8     libucrtd:nlsdata.obj
 0002:00008a00       ??_C@_17LMDJEKJN@?$AAF?$AAe?$AAb@ 0000000140057a00     libucrtd:nlsdata.obj
 0002:00008a08       ??_C@_17CKNLEDEC@?$AAM?$AAa?$AAr@ 0000000140057a08     libucrtd:nlsdata.obj
 0002:00008a10       ??_C@_17LFPOIHDD@?$AAA?$AAp?$AAr@ 0000000140057a10     libucrtd:nlsdata.obj
 0002:00008a18       ??_C@_17PNNKMEED@?$AAM?$AAa?$AAy@ 0000000140057a18     libucrtd:nlsdata.obj
 0002:00008a20       ??_C@_17KCJGOCPB@?$AAJ?$AAu?$AAn@ 0000000140057a20     libucrtd:nlsdata.obj
 0002:00008a28       ??_C@_17IJPCKHK@?$AAJ?$AAu?$AAl@ 0000000140057a28     libucrtd:nlsdata.obj
 0002:00008a30       ??_C@_17ICPELBCN@?$AAA?$AAu?$AAg@ 0000000140057a30     libucrtd:nlsdata.obj
 0002:00008a38       ??_C@_17HCHCOKMG@?$AAS?$AAe?$AAp@ 0000000140057a38     libucrtd:nlsdata.obj
 0002:00008a40       ??_C@_17FNLKOI@?$AAO?$AAc?$AAt@ 0000000140057a40     libucrtd:nlsdata.obj
 0002:00008a48       ??_C@_17BBDMLCIG@?$AAN?$AAo?$AAv@ 0000000140057a48     libucrtd:nlsdata.obj
 0002:00008a50       ??_C@_17EGKACKIF@?$AAD?$AAe?$AAc@ 0000000140057a50     libucrtd:nlsdata.obj
 0002:00008a58       ??_C@_1BA@EFMEIEBA@?$AAJ?$AAa?$AAn?$AAu?$AAa?$AAr?$AAy@ 0000000140057a58     libucrtd:nlsdata.obj
 0002:00008a68       ??_C@_1BC@JGDDFFAM@?$AAF?$AAe?$AAb?$AAr?$AAu?$AAa?$AAr?$AAy@ 0000000140057a68     libucrtd:nlsdata.obj
 0002:00008a80       ??_C@_1M@IKEENEDF@?$AAM?$AAa?$AAr?$AAc?$AAh@ 0000000140057a80     libucrtd:nlsdata.obj
 0002:00008a90       ??_C@_1M@GJNLMHFD@?$AAA?$AAp?$AAr?$AAi?$AAl@ 0000000140057a90     libucrtd:nlsdata.obj
 0002:00008aa0       ??_C@_19EPFLPGAP@?$AAJ?$AAu?$AAn?$AAe@ 0000000140057aa0     libucrtd:nlsdata.obj
 0002:00008ab0       ??_C@_19BIFMLPCD@?$AAJ?$AAu?$AAl?$AAy@ 0000000140057ab0     libucrtd:nlsdata.obj
 0002:00008ac0       ??_C@_1O@PAHLKOAC@?$AAA?$AAu?$AAg?$AAu?$AAs?$AAt@ 0000000140057ac0     libucrtd:nlsdata.obj
 0002:00008ad0       ??_C@_1BE@DKAAMBJL@?$AAS?$AAe?$AAp?$AAt?$AAe?$AAm?$AAb?$AAe?$AAr@ 0000000140057ad0     libucrtd:nlsdata.obj
 0002:00008ae8       ??_C@_1BA@EPANDLNG@?$AAO?$AAc?$AAt?$AAo?$AAb?$AAe?$AAr@ 0000000140057ae8     libucrtd:nlsdata.obj
 0002:00008af8       ??_C@_1BC@BGLIFPF@?$AAN?$AAo?$AAv?$AAe?$AAm?$AAb?$AAe?$AAr@ 0000000140057af8     libucrtd:nlsdata.obj
 0002:00008b10       ??_C@_1BC@FEMKIFH@?$AAD?$AAe?$AAc?$AAe?$AAm?$AAb?$AAe?$AAr@ 0000000140057b10     libucrtd:nlsdata.obj
 0002:00008b24       ??_C@_15ODEHAHHF@?$AAA?$AAM@ 0000000140057b24     libucrtd:nlsdata.obj
 0002:00008b2c       ??_C@_15CLMNNGEL@?$AAP?$AAM@ 0000000140057b2c     libucrtd:nlsdata.obj
 0002:00008b38       ??_C@_1BC@IEBCMHCM@?$AAM?$AAM?$AA?1?$AAd?$AAd?$AA?1?$AAy?$AAy@ 0000000140057b38     libucrtd:nlsdata.obj
 0002:00008b50       ??_C@_1CI@KNAKOEBC@?$AAd?$AAd?$AAd?$AAd?$AA?0?$AA?5?$AAM?$AAM?$AAM?$AAM?$AA?5?$AAd?$AAd?$AA?0?$AA?5@ 0000000140057b50     libucrtd:nlsdata.obj
 0002:00008b78       ??_C@_1BC@GDGBMEMK@?$AAH?$AAH?$AA?3?$AAm?$AAm?$AA?3?$AAs?$AAs@ 0000000140057b78     libucrtd:nlsdata.obj
 0002:00008b90       ??_C@_1M@BMHNFIME@?$AAe?$AAn?$AA?9?$AAU?$AAS@ 0000000140057b90     libucrtd:nlsdata.obj
 0002:00008ba0       ??_C@_1GE@HEEFEAFI@?$AAm?$AAi?$AAn?$AAk?$AAe?$AAr?$AAn?$AAe?$AAl?$AA?2?$AAc?$AAr?$AAt?$AAs?$AA?2@ 0000000140057ba0     libucrtd:openfile.obj
 0002:00008c04       ?ccs@?1???$__acrt_stdio_parse_mode@D@@YA?AU__acrt_stdio_stream_mode@@QEBD@Z@4QBDB 0000000140057c04     libucrtd:openfile.obj
 0002:00008c08       ?utf8_encoding@?1???$__acrt_stdio_parse_mode@D@@YA?AU__acrt_stdio_stream_mode@@QEBD@Z@4QBDB 0000000140057c08     libucrtd:openfile.obj
 0002:00008c10       ?utf16_encoding@?1???$__acrt_stdio_parse_mode@D@@YA?AU__acrt_stdio_stream_mode@@QEBD@Z@4QBDB 0000000140057c10     libucrtd:openfile.obj
 0002:00008c18       ?unicode_encoding@?1???$__acrt_stdio_parse_mode@D@@YA?AU__acrt_stdio_stream_mode@@QEBD@Z@4QBDB 0000000140057c18     libucrtd:openfile.obj
 0002:00008c20       ??_C@_1DM@FOFGGBBM@?$AA?$CI?$AA?$CC?$AAI?$AAn?$AAv?$AAa?$AAl?$AAi?$AAd?$AA?5?$AAf?$AAi?$AAl?$AAe?$AA?5@ 0000000140057c20     libucrtd:openfile.obj
 0002:00008c60       ??_C@_1DA@KPIHAHGC@?$AA_?$AA_?$AAa?$AAc?$AAr?$AAt?$AA_?$AAs?$AAt?$AAd?$AAi?$AAo?$AA_?$AAp?$AAa@ 0000000140057c60     libucrtd:openfile.obj
 0002:00008c90       ??_C@_1BI@PDNFEGCG@?$AA?$CK?$AAi?$AAt?$AA?5?$AA?$DN?$AA?$DN?$AA?5?$AA?8?$AA?2?$AA0?$AA?8@ 0000000140057c90     libucrtd:openfile.obj
 0002:00008cb0       ??_C@_1FK@MGHFJLAL@?$AAf?$AAh?$AA?5?$AA?$DO?$AA?$DN?$AA?5?$AA0?$AA?5?$AA?$CG?$AA?$CG?$AA?5?$AA?$CI?$AAu?$AAn?$AAs@ 0000000140057cb0     libucrtd:read.obj
 0002:00008d10       ??_C@_1FM@PHKGHLIO@?$AAm?$AAi?$AAn?$AAk?$AAe?$AAr?$AAn?$AAe?$AAl?$AA?2?$AAc?$AAr?$AAt?$AAs?$AA?2@ 0000000140057d10     libucrtd:read.obj
 0002:00008d70       ??_C@_1M@NHJOLLDM@?$AA_?$AAr?$AAe?$AAa?$AAd@ 0000000140057d70     libucrtd:read.obj
 0002:00008d80       ??_C@_1CI@ILOIOBLM@?$AA_?$AAo?$AAs?$AAf?$AAi?$AAl?$AAe?$AA?$CI?$AAf?$AAh?$AA?$CJ?$AA?5?$AA?$CG?$AA?5?$AAF@ 0000000140057d80     libucrtd:read.obj
 0002:00008da8       ??_C@_1CO@OPEPDLLF@?$AAb?$AAu?$AAf?$AAf?$AAe?$AAr?$AA_?$AAs?$AAi?$AAz?$AAe?$AA?5?$AA?$DM?$AA?$DN?$AA?5@ 0000000140057da8     libucrtd:read.obj
 0002:00008dd8       ??_C@_1BK@JJBHNDKJ@?$AA_?$AAr?$AAe?$AAa?$AAd?$AA_?$AAn?$AAo?$AAl?$AAo?$AAc?$AAk@ 0000000140057dd8     libucrtd:read.obj
 0002:00008df8       ??_C@_1DM@JEAHBMKI@?$AAr?$AAe?$AAs?$AAu?$AAl?$AAt?$AA_?$AAb?$AAu?$AAf?$AAf?$AAe?$AAr?$AA_?$AAs@ 0000000140057df8     libucrtd:read.obj
 0002:00008e38       ??_C@_1DC@MGKAFPFD@?$AAr?$AAe?$AAs?$AAu?$AAl?$AAt?$AA_?$AAb?$AAu?$AAf?$AAf?$AAe?$AAr?$AA?5?$AA?$CB@ 0000000140057e38     libucrtd:read.obj
 0002:00008e70       ??_C@_1DI@CDGOMPDO@?$AAr?$AAe?$AAs?$AAu?$AAl?$AAt?$AA_?$AAb?$AAu?$AAf?$AAf?$AAe?$AAr?$AA_?$AAs@ 0000000140057e70     libucrtd:read.obj
 0002:00008ea8       ??_C@_0CO@JFNFJHLC@minkernel?2crts?2ucrt?2src?2appcrt?2@ 0000000140057ea8     libucrtd:read.obj
 0002:00008ed8       ??_C@_1DM@HGBOAKPP@?$AA?$CI?$AAr?$AAe?$AAs?$AAu?$AAl?$AAt?$AA_?$AAb?$AAu?$AAf?$AAf?$AAe?$AAr?$AA_@ 0000000140057ed8     libucrtd:read.obj
 0002:00008f20       ??_C@_1GC@MGNADOPH@?$AAm?$AAi?$AAn?$AAk?$AAe?$AAr?$AAn?$AAe?$AAl?$AA?2?$AAc?$AAr?$AAt?$AAs?$AA?2@ 0000000140057f20     libucrtd:_filbuf.obj
 0002:00008f88       ??_C@_1DM@MPDNIFLF@?$AAc?$AAo?$AAm?$AAm?$AAo?$AAn?$AA_?$AAr?$AAe?$AAf?$AAi?$AAl?$AAl?$AA_?$AAa@ 0000000140057f88     libucrtd:_filbuf.obj
 0002:00008fd0       ??_C@_1FO@KIIHJNFN@?$AAm?$AAi?$AAn?$AAk?$AAe?$AAr?$AAn?$AAe?$AAl?$AA?2?$AAc?$AAr?$AAt?$AAs?$AA?2@ 0000000140057fd0     libucrtd:lseek.obj
 0002:00009030       ??_C@_1BK@JOMBNFIM@?$AAc?$AAo?$AAm?$AAm?$AAo?$AAn?$AA_?$AAl?$AAs?$AAe?$AAe?$AAk@ 0000000140058030     libucrtd:lseek.obj
 0002:00009050       ??_C@_1DM@LMLOLGJ@?$AA?$CI?$AA?$CC?$AAI?$AAn?$AAv?$AAa?$AAl?$AAi?$AAd?$AA?5?$AAf?$AAi?$AAl?$AAe?$AA?5@ 0000000140058050     libucrtd:lseek.obj
 0002:000090c0       ??_C@_1FO@CAMPMGCN@?$AAm?$AAi?$AAn?$AAk?$AAe?$AAr?$AAn?$AAe?$AAl?$AA?2?$AAc?$AAr?$AAt?$AAs?$AA?2@ 00000001400580c0     libucrtd:write.obj
 0002:00009120       ??_C@_1CA@PNHCPGNO@?$AA_?$AAw?$AAr?$AAi?$AAt?$AAe?$AA_?$AAi?$AAn?$AAt?$AAe?$AAr?$AAn?$AAa?$AAl@ 0000000140058120     libucrtd:write.obj
 0002:00009140       ??_C@_1CK@MMEFCHHN@?$AA?$CB?$AA_?$AAd?$AAb?$AAc?$AAs?$AAB?$AAu?$AAf?$AAf?$AAe?$AAr?$AAU?$AAs?$AAe@ 0000000140058140     libucrtd:write.obj
 0002:00009170       ??_C@_1EG@LICJGLJJ@?$AA1?$AA?5?$AA?$DM?$AA?5?$AAm?$AAb?$AA_?$AAl?$AAe?$AAn?$AA?5?$AA?$CG?$AA?$CG?$AA?5?$AAm@ 0000000140058170     libucrtd:write.obj
 0002:000091c0       ??_C@_1FC@NFILPJB@?$AAm?$AAb?$AA_?$AAb?$AAu?$AAf?$AA_?$AAu?$AAs?$AAe?$AAd?$AA?5?$AA?$CL?$AA?5?$AAb@ 00000001400581c0     libucrtd:write.obj
 0002:00009220       ??_C@_1FC@HEJOPHLA@?$AAa?$AAv?$AAa?$AAi?$AAl?$AAa?$AAb?$AAl?$AAe?$AA_?$AAb?$AAy?$AAt?$AAe?$AAs@ 0000000140058220     libucrtd:write.obj
 0002:00009280       ??_C@_1GG@JOGHJGBM@?$AA_?$AAi?$AAs?$AAl?$AAe?$AAa?$AAd?$AAb?$AAy?$AAt?$AAe?$AA_?$AAf?$AAa?$AAs@ 0000000140058280     libucrtd:write.obj
 0002:000092e8       ??_C@_1BM@NCANHCIP@?$AA_?$AAw?$AAr?$AAi?$AAt?$AAe?$AA_?$AAn?$AAo?$AAl?$AAo?$AAc?$AAk@ 00000001400582e8     libucrtd:write.obj
 0002:00009308       ??_C@_1CK@CPEAGIIP@?$AAb?$AAu?$AAf?$AAf?$AAe?$AAr?$AA_?$AAs?$AAi?$AAz?$AAe?$AA?5?$AA?$CF?$AA?5?$AA2@ 0000000140058308     libucrtd:write.obj
 0002:00009340       ??_C@_1GC@DFIGBGJI@?$AAm?$AAi?$AAn?$AAk?$AAe?$AAr?$AAn?$AAe?$AAl?$AA?2?$AAc?$AAr?$AAt?$AAs?$AA?2@ 0000000140058340     libucrtd:_flsbuf.obj
 0002:000093b0       ??_C@_1HO@MLMGPAFH@?$AA?$CI?$AA?$CC?$AAi?$AAn?$AAc?$AAo?$AAn?$AAs?$AAi?$AAs?$AAt?$AAe?$AAn?$AAt?$AA?5@ 00000001400583b0     libucrtd:_flsbuf.obj
 0002:00009430       ??_C@_1GC@GBMDABED@?$AAm?$AAi?$AAn?$AAk?$AAe?$AAr?$AAn?$AAe?$AAl?$AA?2?$AAc?$AAr?$AAt?$AAs?$AA?2@ 0000000140058430     libucrtd:_sftbuf.obj
 0002:00009498       ??_C@_0DB@EPIHMFLB@minkernel?2crts?2ucrt?2src?2appcrt?2@ 0000000140058498     libucrtd:_sftbuf.obj
 0002:000094d0       _sys_first_posix_error     00000001400584d0     libucrtd:syserr.obj
 0002:000094d8       _sys_last_posix_error      00000001400584d8     libucrtd:syserr.obj
 0002:000094e0       _sys_posix_errlist         00000001400584e0     libucrtd:syserr.obj
 0002:00009630       _sys_errlist               0000000140058630     libucrtd:syserr.obj
 0002:00009790       ??_C@_08INEPGKHH@No?5error@ 0000000140058790     libucrtd:syserr.obj
 0002:000097a0       ??_C@_0BI@BJFCGOHL@Operation?5not?5permitted@ 00000001400587a0     libucrtd:syserr.obj
 0002:000097b8       ??_C@_0BK@FMDHKPNF@No?5such?5file?5or?5directory@ 00000001400587b8     libucrtd:syserr.obj
 0002:000097d8       ??_C@_0BA@FKIAIBGA@No?5such?5process@ 00000001400587d8     libucrtd:syserr.obj
 0002:000097e8       ??_C@_0BK@FJBOAFDK@Interrupted?5function?5call@ 00000001400587e8     libucrtd:syserr.obj
 0002:00009808       ??_C@_0BD@KKNFOBBD@Input?1output?5error@ 0000000140058808     libucrtd:syserr.obj
 0002:00009820       ??_C@_0BK@DPKMCKJ@No?5such?5device?5or?5address@ 0000000140058820     libucrtd:syserr.obj
 0002:00009840       ??_C@_0BC@MFFGCDFL@Arg?5list?5too?5long@ 0000000140058840     libucrtd:syserr.obj
 0002:00009858       ??_C@_0BC@HKPNECK@Exec?5format?5error@ 0000000140058858     libucrtd:syserr.obj
 0002:00009870       ??_C@_0BE@NFGDDCEF@Bad?5file?5descriptor@ 0000000140058870     libucrtd:syserr.obj
 0002:00009888       ??_C@_0BD@LOHELEP@No?5child?5processes@ 0000000140058888     libucrtd:syserr.obj
 0002:000098a0       ??_C@_0CB@EPFKGNAK@Resource?5temporarily?5unavailabl@ 00000001400588a0     libucrtd:syserr.obj
 0002:000098c8       ??_C@_0BB@IMDKMPFB@Not?5enough?5space@ 00000001400588c8     libucrtd:syserr.obj
 0002:000098e0       ??_C@_0BC@HFNFNKAI@Permission?5denied@ 00000001400588e0     libucrtd:syserr.obj
 0002:000098f8       ??_C@_0M@LOEHLCJD@Bad?5address@ 00000001400588f8     libucrtd:syserr.obj
 0002:00009908       ??_C@_0O@NIPGCINC@Unknown?5error@ 0000000140058908     libucrtd:syserr.obj
 0002:00009918       ??_C@_0BA@BIBLIOEK@Resource?5device@ 0000000140058918     libucrtd:syserr.obj
 0002:00009928       ??_C@_0M@NAAJNNGH@File?5exists@ 0000000140058928     libucrtd:syserr.obj
 0002:00009938       ??_C@_0O@OAMDNOCP@Improper?5link@ 0000000140058938     libucrtd:syserr.obj
 0002:00009948       ??_C@_0P@NLEIANHE@No?5such?5device@ 0000000140058948     libucrtd:syserr.obj
 0002:00009958       ??_C@_0BA@CJBACOOL@Not?5a?5directory@ 0000000140058958     libucrtd:syserr.obj
 0002:00009968       ??_C@_0P@NDHGCGKE@Is?5a?5directory@ 0000000140058968     libucrtd:syserr.obj
 0002:00009978       ??_C@_0BB@HMGGCEBG@Invalid?5argument@ 0000000140058978     libucrtd:syserr.obj
 0002:00009990       ??_C@_0BO@IIFBODJE@Too?5many?5open?5files?5in?5system@ 0000000140058990     libucrtd:syserr.obj
 0002:000099b0       ??_C@_0BE@INBJMKGG@Too?5many?5open?5files@ 00000001400589b0     libucrtd:syserr.obj
 0002:000099c8       ??_C@_0CE@ONOKNLPF@Inappropriate?5I?1O?5control?5opera@ 00000001400589c8     libucrtd:syserr.obj
 0002:000099f0       ??_C@_0P@LFMMIPAE@File?5too?5large@ 00000001400589f0     libucrtd:syserr.obj
 0002:00009a00       ??_C@_0BI@FEALHKLD@No?5space?5left?5on?5device@ 0000000140058a00     libucrtd:syserr.obj
 0002:00009a18       ??_C@_0N@FEHLOILP@Invalid?5seek@ 0000000140058a18     libucrtd:syserr.obj
 0002:00009a28       ??_C@_0BG@DDBFNKBH@Read?9only?5file?5system@ 0000000140058a28     libucrtd:syserr.obj
 0002:00009a40       ??_C@_0P@PKCJJLLM@Too?5many?5links@ 0000000140058a40     libucrtd:syserr.obj
 0002:00009a50       ??_C@_0M@LHEPIIOM@Broken?5pipe@ 0000000140058a50     libucrtd:syserr.obj
 0002:00009a60       ??_C@_0N@MMJPGLJK@Domain?5error@ 0000000140058a60     libucrtd:syserr.obj
 0002:00009a70       ??_C@_0BB@FCBJFCAJ@Result?5too?5large@ 0000000140058a70     libucrtd:syserr.obj
 0002:00009a88       ??_C@_0BK@JAEBMJJM@Resource?5deadlock?5avoided@ 0000000140058a88     libucrtd:syserr.obj
 0002:00009aa8       ??_C@_0BC@BEDIHIDK@Filename?5too?5long@ 0000000140058aa8     libucrtd:syserr.obj
 0002:00009ac0       ??_C@_0BD@CLHBCGPB@No?5locks?5available@ 0000000140058ac0     libucrtd:syserr.obj
 0002:00009ad8       ??_C@_0BJ@IHEHINLI@Function?5not?5implemented@ 0000000140058ad8     libucrtd:syserr.obj
 0002:00009af8       ??_C@_0BE@ICMCHPHH@Directory?5not?5empty@ 0000000140058af8     libucrtd:syserr.obj
 0002:00009b10       ??_C@_0BG@KLEAJEFJ@Illegal?5byte?5sequence@ 0000000140058b10     libucrtd:syserr.obj
 0002:00009b28       ??_C@_0P@LDMLAFHI@address?5in?5use@ 0000000140058b28     libucrtd:syserr.obj
 0002:00009b38       ??_C@_0BG@DHPCNBJB@address?5not?5available@ 0000000140058b38     libucrtd:syserr.obj
 0002:00009b50       ??_C@_0BN@LKKBCCDB@address?5family?5not?5supported@ 0000000140058b50     libucrtd:syserr.obj
 0002:00009b70       ??_C@_0BP@KAIHPOGN@connection?5already?5in?5progress@ 0000000140058b70     libucrtd:syserr.obj
 0002:00009b90       ??_C@_0M@PMMIEFCP@bad?5message@ 0000000140058b90     libucrtd:syserr.obj
 0002:00009ba0       ??_C@_0BD@MOLBPMEA@operation?5canceled@ 0000000140058ba0     libucrtd:syserr.obj
 0002:00009bb8       ??_C@_0BD@MGNDDEGM@connection?5aborted@ 0000000140058bb8     libucrtd:syserr.obj
 0002:00009bd0       ??_C@_0BD@PJLIIJEL@connection?5refused@ 0000000140058bd0     libucrtd:syserr.obj
 0002:00009be8       ??_C@_0BB@IECNJNOI@connection?5reset@ 0000000140058be8     libucrtd:syserr.obj
 0002:00009c00       ??_C@_0BN@KDMIFEIP@destination?5address?5required@ 0000000140058c00     libucrtd:syserr.obj
 0002:00009c20       ??_C@_0BB@DHFDFGDM@host?5unreachable@ 0000000140058c20     libucrtd:syserr.obj
 0002:00009c38       ??_C@_0BD@JPHBMONG@identifier?5removed@ 0000000140058c38     libucrtd:syserr.obj
 0002:00009c50       ??_C@_0BG@KDKHOPCO@operation?5in?5progress@ 0000000140058c50     libucrtd:syserr.obj
 0002:00009c68       ??_C@_0BC@DFIBIBIL@already?5connected@ 0000000140058c68     libucrtd:syserr.obj
 0002:00009c80       ??_C@_0BO@EFGOJEF@too?5many?5symbolic?5link?5levels@ 0000000140058c80     libucrtd:syserr.obj
 0002:00009ca0       ??_C@_0N@IFLPBIOP@message?5size@ 0000000140058ca0     libucrtd:syserr.obj
 0002:00009cb0       ??_C@_0N@KIIEAAIO@network?5down@ 0000000140058cb0     libucrtd:syserr.obj
 0002:00009cc0       ??_C@_0O@FNPDBHEE@network?5reset@ 0000000140058cc0     libucrtd:syserr.obj
 0002:00009cd0       ??_C@_0BE@IFNCKGE@network?5unreachable@ 0000000140058cd0     libucrtd:syserr.obj
 0002:00009ce8       ??_C@_0BA@PFFCAOFK@no?5buffer?5space@ 0000000140058ce8     libucrtd:syserr.obj
 0002:00009cf8       ??_C@_0BF@PBGGPKKE@no?5message?5available@ 0000000140058cf8     libucrtd:syserr.obj
 0002:00009d10       ??_C@_07PLECNNKG@no?5link@ 0000000140058d10     libucrtd:syserr.obj
 0002:00009d18       ??_C@_0L@EDOLMPAK@no?5message@ 0000000140058d18     libucrtd:syserr.obj
 0002:00009d28       ??_C@_0BD@EAMBFIDF@no?5protocol?5option@ 0000000140058d28     libucrtd:syserr.obj
 0002:00009d40       ??_C@_0BE@MKFDAFMP@no?5stream?5resources@ 0000000140058d40     libucrtd:syserr.obj
 0002:00009d58       ??_C@_0N@LGAPMMPI@not?5a?5stream@ 0000000140058d58     libucrtd:syserr.obj
 0002:00009d68       ??_C@_0O@GLMIBBEG@not?5connected@ 0000000140058d68     libucrtd:syserr.obj
 0002:00009d78       ??_C@_0BG@MPLKFPAE@state?5not?5recoverable@ 0000000140058d78     libucrtd:syserr.obj
 0002:00009d90       ??_C@_0N@POEIPGGF@not?5a?5socket@ 0000000140058d90     libucrtd:syserr.obj
 0002:00009da0       ??_C@_0O@NHEDABJP@not?5supported@ 0000000140058da0     libucrtd:syserr.obj
 0002:00009db0       ??_C@_0BI@LNEGIFLN@operation?5not?5supported@ 0000000140058db0     libucrtd:syserr.obj
 0002:00009dc8       ??_C@_0BA@KGKGOOJA@value?5too?5large@ 0000000140058dc8     libucrtd:syserr.obj
 0002:00009dd8       ??_C@_0L@BLPOFLNJ@owner?5dead@ 0000000140058dd8     libucrtd:syserr.obj
 0002:00009de8       ??_C@_0P@FNPOCJBE@protocol?5error@ 0000000140058de8     libucrtd:syserr.obj
 0002:00009df8       ??_C@_0BH@JPPPLHJB@protocol?5not?5supported@ 0000000140058df8     libucrtd:syserr.obj
 0002:00009e10       ??_C@_0BE@MIEJDDNH@wrong?5protocol?5type@ 0000000140058e10     libucrtd:syserr.obj
 0002:00009e28       ??_C@_0P@DIIFGFCG@stream?5timeout@ 0000000140058e28     libucrtd:syserr.obj
 0002:00009e38       ??_C@_09KJPPMAOI@timed?5out@ 0000000140058e38     libucrtd:syserr.obj
 0002:00009e48       ??_C@_0P@IPFDMIFL@text?5file?5busy@ 0000000140058e48     libucrtd:syserr.obj
 0002:00009e58       ??_C@_0BG@OEMDKMEE@operation?5would?5block@ 0000000140058e58     libucrtd:syserr.obj
 0002:00009e70       _sys_nerr                  0000000140058e70     libucrtd:syserr.obj
 0002:00009e78       ??_C@_0DB@JFFPGLDM@minkernel?2crts?2ucrt?2src?2appcrt?2@ 0000000140058e78     libucrtd:osfinfo.obj
 0002:00009eb0       ??_C@_1EM@BPODPNEJ@?$AAs?$AAt?$AAa?$AAt?$AAi?$AAc?$AA_?$AAc?$AAa?$AAs?$AAt?$AA?$DM?$AAu?$AAn?$AAs@ 0000000140058eb0     libucrtd:osfinfo.obj
 0002:00009f00       ??_C@_1GC@LDGKBAFM@?$AAm?$AAi?$AAn?$AAk?$AAe?$AAr?$AAn?$AAe?$AAl?$AA?2?$AAc?$AAr?$AAt?$AAs?$AA?2@ 0000000140058f00     libucrtd:osfinfo.obj
 0002:00009f68       ??_C@_1DM@JELNOMLN@?$AA_?$AA_?$AAa?$AAc?$AAr?$AAt?$AA_?$AAl?$AAo?$AAw?$AAi?$AAo?$AA_?$AAe?$AAn@ 0000000140058f68     libucrtd:osfinfo.obj
 0002:00009fa8       ??_C@_1BO@EMBOBGKE@?$AA_?$AAg?$AAe?$AAt?$AA_?$AAo?$AAs?$AAf?$AAh?$AAa?$AAn?$AAd?$AAl?$AAe@ 0000000140058fa8     libucrtd:osfinfo.obj
 0002:0000a050       ??_C@_03OEIAHPBN@INF@      0000000140059050     libucrtd:cvt.obj
 0002:0000a054       ??_C@_03OJHLLCGB@inf@      0000000140059054     libucrtd:cvt.obj
 0002:0000a058       ??_C@_03LKNCIKJB@NAN@      0000000140059058     libucrtd:cvt.obj
 0002:0000a05c       ??_C@_03LHCJEHON@nan@      000000014005905c     libucrtd:cvt.obj
 0002:0000a060       ??_C@_09OFJJIMPC@NAN?$CISNAN?$CJ@ 0000000140059060     libucrtd:cvt.obj
 0002:0000a070       ??_C@_09IPFBKMDL@nan?$CIsnan?$CJ@ 0000000140059070     libucrtd:cvt.obj
 0002:0000a080       ??_C@_08IKHNHAJ@NAN?$CIIND?$CJ@ 0000000140059080     libucrtd:cvt.obj
 0002:0000a090       ??_C@_08OFCDMILK@nan?$CIind?$CJ@ 0000000140059090     libucrtd:cvt.obj
 0002:0000a0a0       ??_C@_1FO@GKAKAPLI@?$AAm?$AAi?$AAn?$AAk?$AAe?$AAr?$AAn?$AAe?$AAl?$AA?2?$AAc?$AAr?$AAt?$AAs?$AA?2@ 00000001400590a0     libucrtd:cvt.obj
 0002:0000a100       ??_C@_1DE@EHGIGIDK@?$AAf?$AAp?$AA_?$AAf?$AAo?$AAr?$AAm?$AAa?$AAt?$AA_?$AAn?$AAa?$AAn?$AA_?$AAo@ 0000000140059100     libucrtd:cvt.obj
 0002:0000a140       ??_C@_1LI@PCMLJPCO@?$AAs?$AAt?$AAr?$AAc?$AAp?$AAy?$AA_?$AAs?$AA?$CI?$AA?5?$AAr?$AAe?$AAs?$AAu?$AAl@ 0000000140059140     libucrtd:cvt.obj
 0002:0000a200       ??_C@_1KO@LJHOFBCD@?$AAr?$AAe?$AAs?$AAu?$AAl?$AAt?$AA_?$AAb?$AAu?$AAf?$AAf?$AAe?$AAr?$AA_?$AAc@ 0000000140059200     libucrtd:cvt.obj
 0002:0000a2b0       ??_C@_1CK@BOLHOMFO@?$AAf?$AAp?$AA_?$AAf?$AAo?$AAr?$AAm?$AAa?$AAt?$AA_?$AAe?$AA_?$AAi?$AAn?$AAt@ 00000001400592b0     libucrtd:cvt.obj
 0002:0000a2e0       ??_C@_1BBE@LHDOMEDC@?$AAs?$AAt?$AAr?$AAc?$AAp?$AAy?$AA_?$AAs?$AA?$CI?$AA?5?$AAp?$AA?0?$AA?5?$AAr?$AAe@ 00000001400592e0     libucrtd:cvt.obj
 0002:0000a3f4       ??_C@_05KLBDPFGC@e?$CL000@ 00000001400593f4     libucrtd:cvt.obj
 0002:0000a400       ??_C@_1IC@FILKPBAB@?$AAr?$AAe?$AAs?$AAu?$AAl?$AAt?$AA_?$AAb?$AAu?$AAf?$AAf?$AAe?$AAr?$AA_?$AAc@ 0000000140059400     libucrtd:cvt.obj
 0002:0000a488       ??_C@_1BI@PNBDLNBB@?$AAf?$AAp?$AA_?$AAf?$AAo?$AAr?$AAm?$AAa?$AAt?$AA_?$AAa@ 0000000140059488     libucrtd:cvt.obj
 0002:0000a4a0       ??_C@_1CC@LDAHJAKK@?$AA_?$AA_?$AAa?$AAc?$AAr?$AAt?$AA_?$AAf?$AAp?$AA_?$AAf?$AAo?$AAr?$AAm?$AAa@ 00000001400594a0     libucrtd:cvt.obj
 0002:0000a4c8       ??_C@_1DA@NMLJJOCO@?$AAr?$AAe?$AAs?$AAu?$AAl?$AAt?$AA_?$AAb?$AAu?$AAf?$AAf?$AAe?$AAr?$AA_?$AAc@ 00000001400594c8     libucrtd:cvt.obj
 0002:0000a4f8       ??_C@_1DE@MNOPBCOK@?$AAs?$AAc?$AAr?$AAa?$AAt?$AAc?$AAh?$AA_?$AAb?$AAu?$AAf?$AAf?$AAe?$AAr?$AA?5@ 00000001400594f8     libucrtd:cvt.obj
 0002:0000a530       ??_C@_1DC@CKBKNFKH@?$AAs?$AAc?$AAr?$AAa?$AAt?$AAc?$AAh?$AA_?$AAb?$AAu?$AAf?$AAf?$AAe?$AAr?$AA_@ 0000000140059530     libucrtd:cvt.obj
 0002:0000a570       ??_C@_1EI@JAHBOGIM@?$AA?$CI?$AA?$CC?$AAU?$AAn?$AAs?$AAu?$AAp?$AAp?$AAo?$AAr?$AAt?$AAe?$AAd?$AA?5?$AAf@ 0000000140059570     libucrtd:cvt.obj
 0002:0000a5b8       ??_C@_1DK@NBNOAGKB@?$AAd?$AAe?$AAs?$AAt?$AAi?$AAn?$AAa?$AAt?$AAi?$AAo?$AAn?$AA_?$AAc?$AAo?$AAu@ 00000001400595b8     libucrtd:wctomb.obj
 0002:0000a600       ??_C@_1GE@FCCEPHFG@?$AAm?$AAi?$AAn?$AAk?$AAe?$AAr?$AAn?$AAe?$AAl?$AA?2?$AAc?$AAr?$AAt?$AAs?$AA?2@ 0000000140059600     libucrtd:wctomb.obj
 0002:0000a668       ??_C@_1CC@DNLKBKLK@?$AA_?$AAw?$AAc?$AAt?$AAo?$AAm?$AAb?$AA_?$AAi?$AAn?$AAt?$AAe?$AAr?$AAn?$AAa@ 0000000140059668     libucrtd:wctomb.obj
 0002:0000a690       ??_C@_1CM@ENFEGCNE@?$AAd?$AAe?$AAs?$AAt?$AAi?$AAn?$AAa?$AAt?$AAi?$AAo?$AAn?$AA_?$AAc?$AAo?$AAu@ 0000000140059690     libucrtd:wctomb.obj
 0002:0000a6c0       ??_C@_1MK@HFAFPEDL@?$AAl?$AAo?$AAc?$AAa?$AAl?$AAe?$AA?9?$AA?$DO?$AAl?$AAo?$AAc?$AAi?$AAn?$AAf?$AAo@ 00000001400596c0     libucrtd:mbtowc.obj
 0002:0000a790       ??_C@_1GE@CGIHMDEJ@?$AAm?$AAi?$AAn?$AAk?$AAe?$AAr?$AAn?$AAe?$AAl?$AA?2?$AAc?$AAr?$AAt?$AAs?$AA?2@ 0000000140059790     libucrtd:mbtowc.obj
 0002:0000a800       ??_C@_1HA@KNBGJAIN@?$AAU?$AAT?$AAF?$AA?9?$AA8?$AA?5?$AAi?$AAs?$AAn?$AA?8?$AAt?$AA?5?$AAs?$AAu?$AAp@ 0000000140059800     libucrtd:mbtowc.obj
 0002:0000a870       ??_C@_1OM@FCINAOPP@?$AAl?$AAo?$AAc?$AAa?$AAl?$AAe?$AA?9?$AA?$DO?$AAl?$AAo?$AAc?$AAi?$AAn?$AAf?$AAo@ 0000000140059870     libucrtd:mbtowc.obj
 0002:0000a960       ??_C@_1GA@CPNOFAH@?$AAl?$AAo?$AAc?$AAa?$AAl?$AAe?$AA?9?$AA?$DO?$AAl?$AAo?$AAc?$AAi?$AAn?$AAf?$AAo@ 0000000140059960     libucrtd:mbtowc.obj
 0002:0000a9c0       ??_C@_1DE@BCNCAIK@?$AA?$CI?$AA?$CC?$AAI?$AAn?$AAv?$AAa?$AAl?$AAi?$AAd?$AA?5?$AAe?$AAr?$AAr?$AAo?$AAr@ 00000001400599c0     libucrtd:set_error_mode.obj
 0002:0000aa00       ??_C@_1GO@EBFPMMIJ@?$AAm?$AAi?$AAn?$AAk?$AAe?$AAr?$AAn?$AAe?$AAl?$AA?2?$AAc?$AAr?$AAt?$AAs?$AA?2@ 0000000140059a00     libucrtd:set_error_mode.obj
 0002:0000aa70       ??_C@_1CA@LFDHAMEM@?$AA_?$AAs?$AAe?$AAt?$AA_?$AAe?$AAr?$AAr?$AAo?$AAr?$AA_?$AAm?$AAo?$AAd?$AAe@ 0000000140059a70     libucrtd:set_error_mode.obj
 0002:0000aa90       ??_C@_1CA@EOJJMFA@?$AAc?$AAo?$AAm?$AAm?$AAo?$AAn?$AA_?$AAt?$AAc?$AAs?$AAc?$AAa?$AAt?$AA_?$AAs@ 0000000140059a90     libucrtd:wcscat_s.obj
 0002:0000aab0       ??_C@_1DM@FHLMIEG@?$AAS?$AAt?$AAr?$AAi?$AAn?$AAg?$AA?5?$AAi?$AAs?$AA?5?$AAn?$AAo?$AAt?$AA?5?$AAn@ 0000000140059ab0     libucrtd:wcscat_s.obj
 0002:0000aaf0       ??_C@_1FA@MJKDNFFB@?$AA?$CI?$AAL?$AA?$CC?$AAS?$AAt?$AAr?$AAi?$AAn?$AAg?$AA?5?$AAi?$AAs?$AA?5?$AAn?$AAo@ 0000000140059af0     libucrtd:wcscat_s.obj
 0002:0000ab40       ??_C@_1CC@CHNFGJIC@?$AAc?$AAo?$AAm?$AAm?$AAo?$AAn?$AA_?$AAt?$AAc?$AAs?$AAn?$AAc?$AAp?$AAy?$AA_@ 0000000140059b40     libucrtd:wcsncpy_s.obj
 0002:0000abe0       ??_C@_0DI@DNFGFCIK@minkernel?2crts?2ucrt?2inc?2corecrt@ 0000000140059be0     libucrtd:argv_wildcards.obj
 0002:0000ac20       ??_C@_1HE@CEMHPOHH@?$AAm?$AAi?$AAn?$AAk?$AAe?$AAr?$AAn?$AAe?$AAl?$AA?2?$AAc?$AAr?$AAt?$AAs?$AA?2@ 0000000140059c20     libucrtd:argv_wildcards.obj
 0002:0000ac98       ??_C@_1DK@IBFFOJGB@?$AAc?$AAo?$AAm?$AAm?$AAo?$AAn?$AA_?$AAe?$AAx?$AAp?$AAa?$AAn?$AAd?$AA_?$AAa@ 0000000140059c98     libucrtd:argv_wildcards.obj
 0002:0000ace0       ??_C@_1MC@FLPKOFON@?$AAt?$AAr?$AAa?$AAi?$AAt?$AAs?$AA?3?$AA?3?$AAt?$AAc?$AAs?$AAn?$AAc?$AAp?$AAy@ 0000000140059ce0     libucrtd:argv_wildcards.obj
 0002:0000ada8       ??_C@_0DK@FPFMIIJB@minkernel?2crts?2ucrt?2src?2appcrt?2@ 0000000140059da8     libucrtd:argv_wildcards.obj
 0002:0000adf0       ??_C@_1EA@KOCCBLAD@?$AAc?$AAo?$AAp?$AAy?$AA_?$AAa?$AAn?$AAd?$AA_?$AAa?$AAd?$AAd?$AA_?$AAa?$AAr@ 0000000140059df0     libucrtd:argv_wildcards.obj
 0002:0000ae30       ??_C@_1KM@GDJIGAGL@?$AAt?$AAr?$AAa?$AAi?$AAt?$AAs?$AA?3?$AA?3?$AAt?$AAc?$AAs?$AAn?$AAc?$AAp?$AAy@ 0000000140059e30     libucrtd:argv_wildcards.obj
 0002:0000aee0       ??_C@_1PI@FGFLAGCC@?$AAt?$AAr?$AAa?$AAi?$AAt?$AAs?$AA?3?$AA?3?$AAt?$AAc?$AAs?$AAn?$AAc?$AAp?$AAy@ 0000000140059ee0     libucrtd:argv_wildcards.obj
 0002:0000b020       ??_C@_1M@HPNHIDJI@?$AAj?$AAa?$AA?9?$AAJ?$AAP@ 000000014005a020     libucrtd:mbctype.obj
 0002:0000b030       ??_C@_1M@BIBDDEMK@?$AAz?$AAh?$AA?9?$AAC?$AAN@ 000000014005a030     libucrtd:mbctype.obj
 0002:0000b040       ??_C@_1M@JLOOOEGK@?$AAk?$AAo?$AA?9?$AAK?$AAR@ 000000014005a040     libucrtd:mbctype.obj
 0002:0000b050       ??_C@_1M@CLNBBOPM@?$AAz?$AAh?$AA?9?$AAT?$AAW@ 000000014005a050     libucrtd:mbctype.obj
 0002:0000b0b0       ??_C@_0DE@HGDKNBFD@minkernel?2crts?2ucrt?2src?2appcrt?2@ 000000014005a0b0     libucrtd:mbctype.obj
 0002:0000b0f0       ??_C@_0ED@BLPEHJAI@minkernel?2crts?2ucrt?2src?2desktop@ 000000014005a0f0     libucrtd:get_environment_from_os.obj
 0002:0000b160       ??_C@_1DO@PANKIJNP@?$AAe?$AAq?$AAu?$AAa?$AAl?$AA_?$AAs?$AAi?$AAg?$AAn?$AA?5?$AA?9?$AA?5?$AAo?$AAp@ 000000014005a160     libucrtd:setenv.obj
 0002:0000b1a0       ??_C@_1GE@MMOHBENP@?$AAm?$AAi?$AAn?$AAk?$AAe?$AAr?$AAn?$AAe?$AAl?$AA?2?$AAc?$AAr?$AAt?$AAs?$AA?2@ 000000014005a1a0     libucrtd:setenv.obj
 0002:0000b210       ??_C@_1GK@KBABANDM@?$AAt?$AAr?$AAa?$AAi?$AAt?$AAs?$AA?3?$AA?3?$AAt?$AAc?$AAs?$AAn?$AAl?$AAe?$AAn@ 000000014005a210     libucrtd:setenv.obj
 0002:0000b280       ??_C@_0DC@NJKMKCIL@minkernel?2crts?2ucrt?2src?2desktop@ 000000014005a280     libucrtd:setenv.obj
 0002:0000b2c0       ??_C@_1EC@IKJPFBIM@?$AA?$CI?$AA?$CC?$AAC?$AAR?$AAT?$AA?5?$AAl?$AAo?$AAg?$AAi?$AAc?$AA?5?$AAe?$AAr?$AAr@ 000000014005a2c0     libucrtd:setenv.obj
 0002:0000b310       ??_C@_1FE@KHMDCEEJ@?$AAc?$AAo?$AAm?$AAm?$AAo?$AAn?$AA_?$AAs?$AAe?$AAt?$AA_?$AAv?$AAa?$AAr?$AAi@ 000000014005a310     libucrtd:setenv.obj
 0002:0000b370       ??_C@_1EM@NIOJJLEA@?$AAt?$AAr?$AAa?$AAi?$AAt?$AAs?$AA?3?$AA?3?$AAt?$AAc?$AAs?$AAc?$AAp?$AAy?$AA_@ 000000014005a370     libucrtd:setenv.obj
 0002:0000b3c0       ??_C@_1CC@PIMGMDJH@?$AAc?$AAo?$AAp?$AAy?$AA_?$AAe?$AAn?$AAv?$AAi?$AAr?$AAo?$AAn?$AAm?$AAe?$AAn@ 000000014005a3c0     libucrtd:setenv.obj
 0002:0000b3f0       ??_C@_1GG@EDHOMIDL@?$AAt?$AAr?$AAa?$AAi?$AAt?$AAs?$AA?3?$AA?3?$AAt?$AAc?$AAs?$AAc?$AAp?$AAy?$AA_@ 000000014005a3f0     libucrtd:setenv.obj
 0002:0000b460       ??_C@_1FO@NMANMHOD@?$AAc?$AAa?$AAc?$AAh?$AAe?$AAd?$AA_?$AAs?$AAt?$AAa?$AAt?$AAe?$AA?5?$AA?$DN?$AA?$DN@ 000000014005a460     libucrtd:win_policies.obj
 0002:0000b4c0       ??_C@_1HC@GHLNKBJK@?$AAm?$AAi?$AAn?$AAk?$AAe?$AAr?$AAn?$AAe?$AAl?$AA?2?$AAc?$AAr?$AAt?$AAs?$AA?2@ 000000014005a4c0     libucrtd:win_policies.obj
 0002:0000b540       __newctype                 000000014005a540     libucrtd:ctype.obj
 0002:0000b840       __newclmap                 000000014005a840     libucrtd:ctype.obj
 0002:0000b9c0       __newcumap                 000000014005a9c0     libucrtd:ctype.obj
 0002:0000bb40       ??_C@_1CI@JELMFMDH@?$AAc?$AA?5?$AA?$DO?$AA?$DN?$AA?5?$AA?9?$AA1?$AA?5?$AA?$CG?$AA?$CG?$AA?5?$AAc?$AA?5?$AA?$DM?$AA?$DN@ 000000014005ab40     libucrtd:isctype.obj
 0002:0000bb70       ??_C@_1GG@KPBGDFHJ@?$AAm?$AAi?$AAn?$AAk?$AAe?$AAr?$AAn?$AAe?$AAl?$AA?2?$AAc?$AAr?$AAt?$AAs?$AA?2@ 000000014005ab70     libucrtd:isctype.obj
 0002:0000bbe0       ??_C@_1FE@KNPCCODH@?$AA?$CI?$AA?$CC?$AAC?$AAo?$AAr?$AAr?$AAu?$AAp?$AAt?$AAe?$AAd?$AA?5?$AAp?$AAo?$AAi@ 000000014005abe0     libucrtd:getstringtypea.obj
 0002:0000bc40       ??_C@_1EM@GPJLADAA@?$AAV?$AAC?$AAC?$AAR?$AAT?$AA?2?$AAv?$AAc?$AAr?$AAu?$AAn?$AAt?$AAi?$AAm?$AAe@ 000000014005ac40     libucrtd:getstringtypea.obj
 0002:0000bc90       ??_C@_0DJ@HCPJODDK@minkernel?2crts?2ucrt?2src?2appcrt?2@ 000000014005ac90     libucrtd:getstringtypea.obj
 0002:0000bcd0       ??_C@_1BKC@NBNHJIDM@?$AA?$CI?$AAp?$AAt?$AAl?$AAo?$AAc?$AAi?$AA?9?$AA?$DO?$AAl?$AAc?$AA_?$AAc?$AAa?$AAt@ 000000014005acd0     libucrtd:locale_refcounting.obj
 0002:0000be80       ??_C@_1HK@HCNMEOLA@?$AAm?$AAi?$AAn?$AAk?$AAe?$AAr?$AAn?$AAe?$AAl?$AA?2?$AAc?$AAr?$AAt?$AAs?$AA?2@ 000000014005ae80     libucrtd:locale_refcounting.obj
 0002:0000befc       ??_C@_15PJPFLCCM@?$AAu?$AAk@ 000000014005aefc     libucrtd:get_qualified_locale.obj
 0002:0000bf30       ??_C@_1DA@NBILLKNO@?$AAl?$AAo?$AAc?$AAa?$AAl?$AA_?$AAa?$AAc?$AAt?$AAi?$AAo?$AAn?$AA?5?$AA?$CB?$AA?$DN@ 000000014005af30     libucrtd:signal.obj
 0002:0000bf60       ??_C@_1FO@CCGDPEKE@?$AAm?$AAi?$AAn?$AAk?$AAe?$AAr?$AAn?$AAe?$AAl?$AA?2?$AAc?$AAr?$AAt?$AAs?$AA?2@ 000000014005af60     libucrtd:signal.obj
 0002:0000bfc0       ??_C@_1M@DMJEIKHL@?$AAr?$AAa?$AAi?$AAs?$AAe@ 000000014005afc0     libucrtd:signal.obj
 0002:0000bfd0       ??_C@_1DO@MLNEDKGB@?$AA?$CI?$AA?$CC?$AAI?$AAn?$AAv?$AAa?$AAl?$AAi?$AAd?$AA?5?$AAs?$AAi?$AAg?$AAn?$AAa@ 000000014005afd0     libucrtd:signal.obj
 0002:0000c010       ??_C@_1FO@GEKPJHID@?$AAm?$AAi?$AAn?$AAk?$AAe?$AAr?$AAn?$AAe?$AAl?$AA?2?$AAc?$AAr?$AAt?$AAs?$AA?2@ 000000014005b010     libucrtd:expand.obj
 0002:0000c070       ??_C@_1BK@JMCGJOCC@?$AA_?$AAe?$AAx?$AAp?$AAa?$AAn?$AAd?$AA_?$AAb?$AAa?$AAs?$AAe@ 000000014005b070     libucrtd:expand.obj
 0002:0000c090       ??_C@_1GA@LFAOKOOP@?$AAm?$AAi?$AAn?$AAk?$AAe?$AAr?$AAn?$AAe?$AAl?$AA?2?$AAc?$AAr?$AAt?$AAs?$AA?2@ 000000014005b090     libucrtd:dbgrptt.obj
 0002:0000c0f0       ??_C@_1CA@KHJHLKA@?$AA_?$AAV?$AAC?$AAr?$AAt?$AAD?$AAb?$AAg?$AAR?$AAe?$AAp?$AAo?$AAr?$AAt?$AAA@ 000000014005b0f0     libucrtd:dbgrptt.obj
 0002:0000c110       ??_C@_1FA@JPHJBHEM@?$AA_?$AAi?$AAt?$AAo?$AAa?$AA_?$AAs?$AA?$CI?$AAn?$AAL?$AAi?$AAn?$AAe?$AA?0?$AA?5@ 000000014005b110     libucrtd:dbgrptt.obj
 0002:0000c160       ??_C@_0CG@BNGLOCEO@Second?5Chance?5Assertion?5Failed?3@ 000000014005b160     libucrtd:dbgrptt.obj
 0002:0000c188       ??_C@_0P@DFJNDPOP@?$DMfile?5unknown?$DO@ 000000014005b188     libucrtd:dbgrptt.obj
 0002:0000c198       ??_C@_07BHGABMGB@?0?5Line?5@ 000000014005b198     libucrtd:dbgrptt.obj
 0002:0000c1a0       ??_C@_1JI@GAALPGBM@?$AAs?$AAt?$AAr?$AAc?$AAp?$AAy?$AA_?$AAs?$AA?$CI?$AAs?$AAz?$AAU?$AAs?$AAe?$AAr@ 000000014005b1a0     libucrtd:dbgrptt.obj
 0002:0000c238       ??_C@_0CL@EACFGMNB@_CrtDbgReport?3?5String?5too?5long?5@ 000000014005b238     libucrtd:dbgrptt.obj
 0002:0000c270       ??_C@_1KK@GIGAEDMO@?$AAs?$AAt?$AAr?$AAc?$AAp?$AAy?$AA_?$AAs?$AA?$CI?$AAs?$AAz?$AAL?$AAi?$AAn?$AAe@ 000000014005b270     libucrtd:dbgrptt.obj
 0002:0000c320       ??_C@_0BD@CAENFOHP@Assertion?5failed?3?5@ 000000014005b320     libucrtd:dbgrptt.obj
 0002:0000c338       ??_C@_0BC@LAIDCHCH@Assertion?5failed?$CB@ 000000014005b338     libucrtd:dbgrptt.obj
 0002:0000c350       ??_C@_1FK@NPGBPOFO@?$AAs?$AAt?$AAr?$AAc?$AAa?$AAt?$AA_?$AAs?$AA?$CI?$AAs?$AAz?$AAL?$AAi?$AAn?$AAe@ 000000014005b350     libucrtd:dbgrptt.obj
 0002:0000c3b0       ??_C@_1EI@CACDLAFK@?$AAs?$AAt?$AAr?$AAc?$AAa?$AAt?$AA_?$AAs?$AA?$CI?$AAs?$AAz?$AAL?$AAi?$AAn?$AAe@ 000000014005b3b0     libucrtd:dbgrptt.obj
 0002:0000c3f8       ??_C@_01LIIJDEN@?$AN@      000000014005b3f8     libucrtd:dbgrptt.obj
 0002:0000c400       ??_C@_1EI@LDHJEDO@?$AAs?$AAt?$AAr?$AAc?$AAa?$AAt?$AA_?$AAs?$AA?$CI?$AAs?$AAz?$AAL?$AAi?$AAn?$AAe@ 000000014005b400     libucrtd:dbgrptt.obj
 0002:0000c448       ??_C@_0M@IPILFDFN@?$CFs?$CI?$CFd?$CJ?5?3?5?$CFs@ 000000014005b448     libucrtd:dbgrptt.obj
 0002:0000c460       ??_C@_1JG@CPKCIOEE@?$AAs?$AAt?$AAr?$AAc?$AAp?$AAy?$AA_?$AAs?$AA?$CI?$AAs?$AAz?$AAO?$AAu?$AAt?$AAM@ 000000014005b460     libucrtd:dbgrptt.obj
 0002:0000c500       ??_C@_1FI@IBIOIHEG@?$AAs?$AAt?$AAr?$AAc?$AAp?$AAy?$AA_?$AAs?$AA?$CI?$AAs?$AAz?$AAO?$AAu?$AAt?$AAM@ 000000014005b500     libucrtd:dbgrptt.obj
 0002:0000c560       ??_C@_1IM@OOKIFKOH@?$AAe?$AA?5?$AA?$DN?$AA?5?$AAm?$AAb?$AAs?$AAt?$AAo?$AAw?$AAc?$AAs?$AA_?$AAs?$AA?$CI@ 000000014005b560     libucrtd:dbgrptt.obj
 0002:0000c5f0       ??_C@_1MC@IGEECMDB@?$AAw?$AAc?$AAs?$AAc?$AAp?$AAy?$AA_?$AAs?$AA?$CI?$AAs?$AAz?$AAO?$AAu?$AAt?$AAM@ 000000014005b5f0     libucrtd:dbgrptt.obj
 0002:0000c6c0       ??_C@_1HO@PJOFIKFE@?$AA_?$AAC?$AAr?$AAt?$AAD?$AAb?$AAg?$AAR?$AAe?$AAp?$AAo?$AAr?$AAt?$AA?3?$AA?5@ 000000014005b6c0     libucrtd:dbgrptt.obj
 0002:0000c740       ??_C@_1CA@HPALHDOD@?$AA_?$AAV?$AAC?$AAr?$AAt?$AAD?$AAb?$AAg?$AAR?$AAe?$AAp?$AAo?$AAr?$AAt?$AAW@ 000000014005b740     libucrtd:dbgrptt.obj
 0002:0000c760       ??_C@_1FA@CNLLOMHI@?$AA_?$AAi?$AAt?$AAo?$AAw?$AA_?$AAs?$AA?$CI?$AAn?$AAL?$AAi?$AAn?$AAe?$AA?0?$AA?5@ 000000014005b760     libucrtd:dbgrptt.obj
 0002:0000c7b0       ??_C@_1EM@MJFLEDMB@?$AAS?$AAe?$AAc?$AAo?$AAn?$AAd?$AA?5?$AAC?$AAh?$AAa?$AAn?$AAc?$AAe?$AA?5?$AAA@ 000000014005b7b0     libucrtd:dbgrptt.obj
 0002:0000c800       ??_C@_1BO@OCHMLCAG@?$AA?$DM?$AAf?$AAi?$AAl?$AAe?$AA?5?$AAu?$AAn?$AAk?$AAn?$AAo?$AAw?$AAn?$AA?$DO@ 000000014005b800     libucrtd:dbgrptt.obj
 0002:0000c820       ??_C@_1BA@ELMMDCFC@?$AA?0?$AA?5?$AAL?$AAi?$AAn?$AAe?$AA?5@ 000000014005b820     libucrtd:dbgrptt.obj
 0002:0000c830       ??_C@_13LBAGMAIH@?$AA?6@   000000014005b830     libucrtd:dbgrptt.obj
 0002:0000c840       ??_C@_1JK@KHFABAEO@?$AAw?$AAc?$AAs?$AAc?$AAp?$AAy?$AA_?$AAs?$AA?$CI?$AAs?$AAz?$AAU?$AAs?$AAe?$AAr@ 000000014005b840     libucrtd:dbgrptt.obj
 0002:0000c8e0       ??_C@_1KO@DGAHENCH@?$AAw?$AAc?$AAs?$AAc?$AAp?$AAy?$AA_?$AAs?$AA?$CI?$AAs?$AAz?$AAL?$AAi?$AAn?$AAe@ 000000014005b8e0     libucrtd:dbgrptt.obj
 0002:0000c990       ??_C@_1CG@FFFGGODN@?$AAA?$AAs?$AAs?$AAe?$AAr?$AAt?$AAi?$AAo?$AAn?$AA?5?$AAf?$AAa?$AAi?$AAl?$AAe@ 000000014005b990     libucrtd:dbgrptt.obj
 0002:0000c9b8       ??_C@_1CE@OJBNHDMO@?$AAA?$AAs?$AAs?$AAe?$AAr?$AAt?$AAi?$AAo?$AAn?$AA?5?$AAf?$AAa?$AAi?$AAl?$AAe@ 000000014005b9b8     libucrtd:dbgrptt.obj
 0002:0000c9e0       ??_C@_1FK@HPADHBBD@?$AAw?$AAc?$AAs?$AAc?$AAa?$AAt?$AA_?$AAs?$AA?$CI?$AAs?$AAz?$AAL?$AAi?$AAn?$AAe@ 000000014005b9e0     libucrtd:dbgrptt.obj
 0002:0000ca40       ??_C@_1EK@NMDFGHMF@?$AAw?$AAc?$AAs?$AAc?$AAa?$AAt?$AA_?$AAs?$AA?$CI?$AAs?$AAz?$AAL?$AAi?$AAn?$AAe@ 000000014005ba40     libucrtd:dbgrptt.obj
 0002:0000ca8c       ??_C@_13CMNBPIDO@?$AA?$AN@ 000000014005ba8c     libucrtd:dbgrptt.obj
 0002:0000ca90       ??_C@_1EK@PHCBEDKB@?$AAw?$AAc?$AAs?$AAc?$AAa?$AAt?$AA_?$AAs?$AA?$CI?$AAs?$AAz?$AAL?$AAi?$AAn?$AAe@ 000000014005ba90     libucrtd:dbgrptt.obj
 0002:0000cae0       ??_C@_1BM@GIBPMLNL@?$AA?$CF?$AAl?$AAs?$AA?$CI?$AA?$CF?$AAd?$AA?$CJ?$AA?5?$AA?3?$AA?5?$AA?$CF?$AAl?$AAs@ 000000014005bae0     libucrtd:dbgrptt.obj
 0002:0000cb00       ??_C@_1JI@EACPGHID@?$AAw?$AAc?$AAs?$AAc?$AAp?$AAy?$AA_?$AAs?$AA?$CI?$AAs?$AAz?$AAO?$AAu?$AAt?$AAM@ 000000014005bb00     libucrtd:dbgrptt.obj
 0002:0000cba0       ??_C@_1FI@DBAIJPJE@?$AAw?$AAc?$AAs?$AAc?$AAp?$AAy?$AA_?$AAs?$AA?$CI?$AAs?$AAz?$AAO?$AAu?$AAt?$AAM@ 000000014005bba0     libucrtd:dbgrptt.obj
 0002:0000cc00       ??_C@_1IK@LEBMBAP@?$AAw?$AAc?$AAs?$AAt?$AAo?$AAm?$AAb?$AAs?$AA_?$AAs?$AA?$CI?$AAn?$AAu?$AAl?$AAl@ 000000014005bc00     libucrtd:dbgrptt.obj
 0002:0000cc90       ??_C@_1MA@LBAMNNOB@?$AAs?$AAt?$AAr?$AAc?$AAp?$AAy?$AA_?$AAs?$AA?$CI?$AAs?$AAz?$AAO?$AAu?$AAt?$AAM@ 000000014005bc90     libucrtd:dbgrptt.obj
 0002:0000cd50       ??_C@_0DP@GNPEPHJD@_CrtDbgReport?3?5String?5too?5long?5@ 000000014005bd50     libucrtd:dbgrptt.obj
 0002:0000cd90       ??_C@_1IE@CPGKIAGP@?$AAw?$AAc?$AAs?$AAt?$AAo?$AAm?$AAb?$AAs?$AA_?$AAs?$AA?$CI?$AA?$CG?$AAr?$AAe?$AAt@ 000000014005bd90     libucrtd:dbgrptt.obj
 0002:0000dc60       ??_C@_15EMKDOKLE@?$AAa?$AAr@ 000000014005cc60     libucrtd:lcidtoname_downlevel.obj
 0002:0000dc68       ??_C@_15KNPADPLH@?$AAb?$AAg@ 000000014005cc68     libucrtd:lcidtoname_downlevel.obj
 0002:0000dc70       ??_C@_15EDMHLDMO@?$AAc?$AAa@ 000000014005cc70     libucrtd:lcidtoname_downlevel.obj
 0002:0000dc78       ??_C@_1O@BPEAJADD@?$AAz?$AAh?$AA?9?$AAC?$AAH?$AAS@ 000000014005cc78     libucrtd:lcidtoname_downlevel.obj
 0002:0000dc88       ??_C@_15LJNHCMNK@?$AAc?$AAs@ 000000014005cc88     libucrtd:lcidtoname_downlevel.obj
 0002:0000dc90       ??_C@_15FOMCIDHG@?$AAd?$AAa@ 000000014005cc90     libucrtd:lcidtoname_downlevel.obj
 0002:0000dc98       ??_C@_15NBKABECB@?$AAd?$AAe@ 000000014005cc98     libucrtd:lcidtoname_downlevel.obj
 0002:0000dca0       ??_C@_15GHPEIIAO@?$AAe?$AAl@ 000000014005cca0     libucrtd:lcidtoname_downlevel.obj
 0002:0000dca8       ??_C@_15MNPNEAIF@?$AAe?$AAn@ 000000014005cca8     libucrtd:lcidtoname_downlevel.obj
 0002:0000dcb0       ??_C@_15GPIOMPMH@?$AAe?$AAs@ 000000014005ccb0     libucrtd:lcidtoname_downlevel.obj
 0002:0000dcb8       ??_C@_15NGLOAKJC@?$AAf?$AAi@ 000000014005ccb8     libucrtd:lcidtoname_downlevel.obj
 0002:0000dcc0       ??_C@_15FBKGNKAM@?$AAf?$AAr@ 000000014005ccc0     libucrtd:lcidtoname_downlevel.obj
 0002:0000dcc8       ??_C@_15KGGCNEFK@?$AAh?$AAe@ 000000014005ccc8     libucrtd:lcidtoname_downlevel.obj
 0002:0000dcd0       ??_C@_15PGHLIDMF@?$AAh?$AAu@ 000000014005ccd0     libucrtd:lcidtoname_downlevel.obj
 0002:0000dcd8       ??_C@_15BIEMAPLM@?$AAi?$AAs@ 000000014005ccd8     libucrtd:lcidtoname_downlevel.obj
 0002:0000dce0       ??_C@_15IFJLDHAF@?$AAi?$AAt@ 000000014005cce0     libucrtd:lcidtoname_downlevel.obj
 0002:0000dce8       ??_C@_15GEMIOCAG@?$AAj?$AAa@ 000000014005cce8     libucrtd:lcidtoname_downlevel.obj
 0002:0000dcf0       ??_C@_15EPELEGJA@?$AAk?$AAo@ 000000014005ccf0     libucrtd:lcidtoname_downlevel.obj
 0002:0000dcf8       ??_C@_15NDDHIMN@?$AAn?$AAl@ 000000014005ccf8     libucrtd:lcidtoname_downlevel.obj
 0002:0000dd00       ??_C@_15BPIGNHCD@?$AAn?$AAo@ 000000014005cd00     libucrtd:lcidtoname_downlevel.obj
 0002:0000dd08       ??_C@_15DEOPBLCG@?$AAp?$AAl@ 000000014005cd08     libucrtd:lcidtoname_downlevel.obj
 0002:0000dd10       ??_C@_15KBECGEFG@?$AAp?$AAt@ 000000014005cd10     libucrtd:lcidtoname_downlevel.obj
 0002:0000dd18       ??_C@_15GLJCBFMD@?$AAr?$AAo@ 000000014005cd18     libucrtd:lcidtoname_downlevel.obj
 0002:0000dd20       ??_C@_15FEDGKCDI@?$AAr?$AAu@ 000000014005cd20     libucrtd:lcidtoname_downlevel.obj
 0002:0000dd28       ??_C@_15GLKMLLHM@?$AAh?$AAr@ 000000014005cd28     libucrtd:lcidtoname_downlevel.obj
 0002:0000dd30       ??_C@_15CPKMFBDB@?$AAs?$AAk@ 000000014005cd30     libucrtd:lcidtoname_downlevel.obj
 0002:0000dd38       ??_C@_15BAAIOGMK@?$AAs?$AAq@ 000000014005cd38     libucrtd:lcidtoname_downlevel.obj
 0002:0000dd40       ??_C@_15INNPNOHD@?$AAs?$AAv@ 000000014005cd40     libucrtd:lcidtoname_downlevel.obj
 0002:0000dd48       ??_C@_15CABMMOGH@?$AAt?$AAh@ 000000014005cd48     libucrtd:lcidtoname_downlevel.obj
 0002:0000dd50       ??_C@_15BPLIHJJM@?$AAt?$AAr@ 000000014005cd50     libucrtd:lcidtoname_downlevel.obj
 0002:0000dd58       ??_C@_15NEOEKKDJ@?$AAu?$AAr@ 000000014005cd58     libucrtd:lcidtoname_downlevel.obj
 0002:0000dd60       ??_C@_15NFICGAJK@?$AAi?$AAd@ 000000014005cd60     libucrtd:lcidtoname_downlevel.obj
 0002:0000dd68       ??_C@_15HPJPHDM@?$AAb?$AAe@ 000000014005cd68     libucrtd:lcidtoname_downlevel.obj
 0002:0000dd70       ??_C@_15LCHLGJII@?$AAs?$AAl@ 000000014005cd70     libucrtd:lcidtoname_downlevel.obj
 0002:0000dd78       ??_C@_15PCFJPHHO@?$AAe?$AAt@ 000000014005cd78     libucrtd:lcidtoname_downlevel.obj
 0002:0000dd80       ??_C@_15HPFPGODN@?$AAl?$AAv@ 000000014005cd80     libucrtd:lcidtoname_downlevel.obj
 0002:0000dd88       ??_C@_15NFFGKGLG@?$AAl?$AAt@ 000000014005cd88     libucrtd:lcidtoname_downlevel.obj
 0002:0000dd90       ??_C@_15BDAKCCHN@?$AAf?$AAa@ 000000014005cd90     libucrtd:lcidtoname_downlevel.obj
 0002:0000dd98       ??_C@_15NFGIAIAJ@?$AAv?$AAi@ 000000014005cd98     libucrtd:lcidtoname_downlevel.obj
 0002:0000dda0       ??_C@_15LMKNDMHN@?$AAh?$AAy@ 000000014005cda0     libucrtd:lcidtoname_downlevel.obj
 0002:0000dda8       ??_C@_15IJBHMCFL@?$AAa?$AAz@ 000000014005cda8     libucrtd:lcidtoname_downlevel.obj
 0002:0000ddb0       ??_C@_15EKOFJABL@?$AAe?$AAu@ 000000014005cdb0     libucrtd:lcidtoname_downlevel.obj
 0002:0000ddb8       ??_C@_15BGHADCNK@?$AAm?$AAk@ 000000014005cdb8     libucrtd:lcidtoname_downlevel.obj
 0002:0000ddc0       ??_C@_15JDNICKHM@?$AAa?$AAf@ 000000014005cdc0     libucrtd:lcidtoname_downlevel.obj
 0002:0000ddc8       ??_C@_15KPJEDBKD@?$AAk?$AAa@ 000000014005cdc8     libucrtd:lcidtoname_downlevel.obj
 0002:0000ddd0       ??_C@_15PDNFFFEO@?$AAf?$AAo@ 000000014005cdd0     libucrtd:lcidtoname_downlevel.obj
 0002:0000ddd8       ??_C@_15OMLEGLOC@?$AAh?$AAi@ 000000014005cdd8     libucrtd:lcidtoname_downlevel.obj
 0002:0000dde0       ??_C@_15IDNNENKK@?$AAm?$AAs@ 000000014005cde0     libucrtd:lcidtoname_downlevel.obj
 0002:0000dde8       ??_C@_15MACJNBMH@?$AAk?$AAk@ 000000014005cde8     libucrtd:lcidtoname_downlevel.obj
 0002:0000ddf0       ??_C@_15DKDJEOND@?$AAk?$AAy@ 000000014005cdf0     libucrtd:lcidtoname_downlevel.obj
 0002:0000ddf8       ??_C@_15DFGDLJBG@?$AAs?$AAw@ 000000014005cdf8     libucrtd:lcidtoname_downlevel.obj
 0002:0000de00       ??_C@_15BBFAICNG@?$AAu?$AAz@ 000000014005ce00     libucrtd:lcidtoname_downlevel.obj
 0002:0000de08       ??_C@_15DKNDCGEA@?$AAt?$AAt@ 000000014005ce08     libucrtd:lcidtoname_downlevel.obj
 0002:0000de10       ??_C@_15MGIFMDPL@?$AAp?$AAa@ 000000014005ce10     libucrtd:lcidtoname_downlevel.obj
 0002:0000de18       ??_C@_15HCNDBBA@?$AAg?$AAu@ 000000014005ce18     libucrtd:lcidtoname_downlevel.obj
 0002:0000de20       ??_C@_15FNBEIBON@?$AAt?$AAa@ 000000014005ce20     libucrtd:lcidtoname_downlevel.obj
 0002:0000de28       ??_C@_15NCHGBGLK@?$AAt?$AAe@ 000000014005ce28     libucrtd:lcidtoname_downlevel.obj
 0002:0000de30       ??_C@_15PHPHCBPF@?$AAk?$AAn@ 000000014005ce30     libucrtd:lcidtoname_downlevel.obj
 0002:0000de38       ??_C@_15DLGBCKMP@?$AAm?$AAr@ 000000014005ce38     libucrtd:lcidtoname_downlevel.obj
 0002:0000de40       ??_C@_15EABBLBFF@?$AAs?$AAa@ 000000014005ce40     libucrtd:lcidtoname_downlevel.obj
 0002:0000de48       ??_C@_15CBKOMCOI@?$AAm?$AAn@ 000000014005ce48     libucrtd:lcidtoname_downlevel.obj
 0002:0000de50       ??_C@_15CKDMCJAF@?$AAg?$AAl@ 000000014005ce50     libucrtd:lcidtoname_downlevel.obj
 0002:0000de58       ??_C@_17CNJFBPG@?$AAk?$AAo?$AAk@ 000000014005ce58     libucrtd:lcidtoname_downlevel.obj
 0002:0000de60       ??_C@_17FFBJICPL@?$AAs?$AAy?$AAr@ 000000014005ce60     libucrtd:lcidtoname_downlevel.obj
 0002:0000de68       ??_C@_17KPNDCPAF@?$AAd?$AAi?$AAv@ 000000014005ce68     libucrtd:lcidtoname_downlevel.obj
 0002:0000de70       ??_C@_1M@OKAHONE@?$AAa?$AAr?$AA?9?$AAS?$AAA@ 000000014005ce70     libucrtd:lcidtoname_downlevel.obj
 0002:0000de80       ??_C@_1M@FFFIGIGK@?$AAb?$AAg?$AA?9?$AAB?$AAG@ 000000014005ce80     libucrtd:lcidtoname_downlevel.obj
 0002:0000de90       ??_C@_1M@BJNKEDC@?$AAc?$AAa?$AA?9?$AAE?$AAS@ 000000014005ce90     libucrtd:lcidtoname_downlevel.obj
 0002:0000dea0       ??_C@_1M@IJJHFJHA@?$AAc?$AAs?$AA?9?$AAC?$AAZ@ 000000014005cea0     libucrtd:lcidtoname_downlevel.obj
 0002:0000deb0       ??_C@_1M@CLPEOBGI@?$AAd?$AAa?$AA?9?$AAD?$AAK@ 000000014005ceb0     libucrtd:lcidtoname_downlevel.obj
 0002:0000dec0       ??_C@_1M@MCMADGCB@?$AAd?$AAe?$AA?9?$AAD?$AAE@ 000000014005cec0     libucrtd:lcidtoname_downlevel.obj
 0002:0000ded0       ??_C@_1M@OOCKEMAM@?$AAe?$AAl?$AA?9?$AAG?$AAR@ 000000014005ced0     libucrtd:lcidtoname_downlevel.obj
 0002:0000dee0       ??_C@_1M@DDNJFGID@?$AAf?$AAi?$AA?9?$AAF?$AAI@ 000000014005cee0     libucrtd:lcidtoname_downlevel.obj
 0002:0000def0       ??_C@_1M@GLIPPMAC@?$AAf?$AAr?$AA?9?$AAF?$AAR@ 000000014005cef0     libucrtd:lcidtoname_downlevel.obj
 0002:0000df00       ??_C@_1M@GFMCHPE@?$AAh?$AAe?$AA?9?$AAI?$AAL@ 000000014005cf00     libucrtd:lcidtoname_downlevel.obj
 0002:0000df10       ??_C@_1M@MHLPGNKM@?$AAh?$AAu?$AA?9?$AAH?$AAU@ 000000014005cf10     libucrtd:lcidtoname_downlevel.obj
 0002:0000df20       ??_C@_1M@LPDDNNPN@?$AAi?$AAs?$AA?9?$AAI?$AAS@ 000000014005cf20     libucrtd:lcidtoname_downlevel.obj
 0002:0000df30       ??_C@_1M@MADIPODN@?$AAi?$AAt?$AA?9?$AAI?$AAT@ 000000014005cf30     libucrtd:lcidtoname_downlevel.obj
 0002:0000df40       ??_C@_1M@IHBJJGG@?$AAn?$AAl?$AA?9?$AAN?$AAL@ 000000014005cf40     libucrtd:lcidtoname_downlevel.obj
 0002:0000df50       ??_C@_1M@EANAGDL@?$AAn?$AAb?$AA?9?$AAN?$AAO@ 000000014005cf50     libucrtd:lcidtoname_downlevel.obj
 0002:0000df60       ??_C@_1M@NEIEMEGP@?$AAp?$AAl?$AA?9?$AAP?$AAL@ 000000014005cf60     libucrtd:lcidtoname_downlevel.obj
 0002:0000df70       ??_C@_1M@BOCFIGEP@?$AAp?$AAt?$AA?9?$AAB?$AAR@ 000000014005cf70     libucrtd:lcidtoname_downlevel.obj
 0002:0000df80       ??_C@_1M@IMPFOPBG@?$AAr?$AAo?$AA?9?$AAR?$AAO@ 000000014005cf80     libucrtd:lcidtoname_downlevel.obj
 0002:0000df90       ??_C@_1M@IDNNEJMM@?$AAr?$AAu?$AA?9?$AAR?$AAU@ 000000014005cf90     libucrtd:lcidtoname_downlevel.obj
 0002:0000dfa0       ??_C@_1M@LILEEOGM@?$AAh?$AAr?$AA?9?$AAH?$AAR@ 000000014005cfa0     libucrtd:lcidtoname_downlevel.obj
 0002:0000dfb0       ??_C@_1M@FKIFEHPB@?$AAs?$AAk?$AA?9?$AAS?$AAK@ 000000014005cfb0     libucrtd:lcidtoname_downlevel.obj
 0002:0000dfc0       ??_C@_1M@LJMAMNPJ@?$AAs?$AAq?$AA?9?$AAA?$AAL@ 000000014005cfc0     libucrtd:lcidtoname_downlevel.obj
 0002:0000dfd0       ??_C@_1M@GIAKDKJK@?$AAs?$AAv?$AA?9?$AAS?$AAE@ 000000014005cfd0     libucrtd:lcidtoname_downlevel.obj
 0002:0000dfe0       ??_C@_1M@MKJKIKCL@?$AAt?$AAh?$AA?9?$AAT?$AAH@ 000000014005cfe0     libucrtd:lcidtoname_downlevel.obj
 0002:0000dff0       ??_C@_1M@MFLCCMPB@?$AAt?$AAr?$AA?9?$AAT?$AAR@ 000000014005cff0     libucrtd:lcidtoname_downlevel.obj
 0002:0000e000       ??_C@_1M@OIJHDKJN@?$AAu?$AAr?$AA?9?$AAP?$AAK@ 000000014005d000     libucrtd:lcidtoname_downlevel.obj
 0002:0000e010       ??_C@_1M@LHIPCIEK@?$AAi?$AAd?$AA?9?$AAI?$AAD@ 000000014005d010     libucrtd:lcidtoname_downlevel.obj
 0002:0000e020       ??_C@_1M@MFMOBGI@?$AAu?$AAk?$AA?9?$AAU?$AAA@ 000000014005d020     libucrtd:lcidtoname_downlevel.obj
 0002:0000e030       ??_C@_1M@OBGLJIPL@?$AAb?$AAe?$AA?9?$AAB?$AAY@ 000000014005d030     libucrtd:lcidtoname_downlevel.obj
 0002:0000e040       ??_C@_1M@BCFAJEAD@?$AAs?$AAl?$AA?9?$AAS?$AAI@ 000000014005d040     libucrtd:lcidtoname_downlevel.obj
 0002:0000e050       ??_C@_1M@FKFFEDDN@?$AAe?$AAt?$AA?9?$AAE?$AAE@ 000000014005d050     libucrtd:lcidtoname_downlevel.obj
 0002:0000e060       ??_C@_1M@KGKKAACI@?$AAl?$AAv?$AA?9?$AAL?$AAV@ 000000014005d060     libucrtd:lcidtoname_downlevel.obj
 0002:0000e070       ??_C@_1M@IFGBIJO@?$AAl?$AAt?$AA?9?$AAL?$AAT@ 000000014005d070     libucrtd:lcidtoname_downlevel.obj
 0002:0000e080       ??_C@_1M@FGEAHEDM@?$AAf?$AAa?$AA?9?$AAI?$AAR@ 000000014005d080     libucrtd:lcidtoname_downlevel.obj
 0002:0000e090       ??_C@_1M@KBMAIBFN@?$AAv?$AAi?$AA?9?$AAV?$AAN@ 000000014005d090     libucrtd:lcidtoname_downlevel.obj
 0002:0000e0a0       ??_C@_1M@GPCBKDJK@?$AAh?$AAy?$AA?9?$AAA?$AAM@ 000000014005d0a0     libucrtd:lcidtoname_downlevel.obj
 0002:0000e0b0       ??_C@_1BG@BECMDDJB@?$AAa?$AAz?$AA?9?$AAA?$AAZ?$AA?9?$AAL?$AAa?$AAt?$AAn@ 000000014005d0b0     libucrtd:lcidtoname_downlevel.obj
 0002:0000e0c8       ??_C@_1M@MAOFCAEA@?$AAe?$AAu?$AA?9?$AAE?$AAS@ 000000014005d0c8     libucrtd:lcidtoname_downlevel.obj
 0002:0000e0d8       ??_C@_1M@IGHABKPI@?$AAm?$AAk?$AA?9?$AAM?$AAK@ 000000014005d0d8     libucrtd:lcidtoname_downlevel.obj
 0002:0000e0e8       ??_C@_1M@IAIGNEJG@?$AAt?$AAn?$AA?9?$AAZ?$AAA@ 000000014005d0e8     libucrtd:lcidtoname_downlevel.obj
 0002:0000e0f8       ??_C@_1M@IIJCOJFA@?$AAx?$AAh?$AA?9?$AAZ?$AAA@ 000000014005d0f8     libucrtd:lcidtoname_downlevel.obj
 0002:0000e108       ??_C@_1M@LGPJHNJH@?$AAz?$AAu?$AA?9?$AAZ?$AAA@ 000000014005d108     libucrtd:lcidtoname_downlevel.obj
 0002:0000e118       ??_C@_1M@HOKAOIO@?$AAa?$AAf?$AA?9?$AAZ?$AAA@ 000000014005d118     libucrtd:lcidtoname_downlevel.obj
 0002:0000e128       ??_C@_1M@DPCLHLIE@?$AAk?$AAa?$AA?9?$AAG?$AAE@ 000000014005d128     libucrtd:lcidtoname_downlevel.obj
 0002:0000e138       ??_C@_1M@BLKMHJBI@?$AAf?$AAo?$AA?9?$AAF?$AAO@ 000000014005d138     libucrtd:lcidtoname_downlevel.obj
 0002:0000e148       ??_C@_1M@LGGJAPPB@?$AAh?$AAi?$AA?9?$AAI?$AAN@ 000000014005d148     libucrtd:lcidtoname_downlevel.obj
 0002:0000e158       ??_C@_1M@FIKPIHFE@?$AAm?$AAt?$AA?9?$AAM?$AAT@ 000000014005d158     libucrtd:lcidtoname_downlevel.obj
 0002:0000e168       ??_C@_1M@HEGGPBFA@?$AAs?$AAe?$AA?9?$AAN?$AAO@ 000000014005d168     libucrtd:lcidtoname_downlevel.obj
 0002:0000e178       ??_C@_1M@EIBJEEPA@?$AAm?$AAs?$AA?9?$AAM?$AAY@ 000000014005d178     libucrtd:lcidtoname_downlevel.obj
 0002:0000e188       ??_C@_1M@FHLBGMPP@?$AAk?$AAk?$AA?9?$AAK?$AAZ@ 000000014005d188     libucrtd:lcidtoname_downlevel.obj
 0002:0000e198       ??_C@_1M@NGJJLCGI@?$AAk?$AAy?$AA?9?$AAK?$AAG@ 000000014005d198     libucrtd:lcidtoname_downlevel.obj
 0002:0000e1a8       ??_C@_1M@GIENNBFC@?$AAs?$AAw?$AA?9?$AAK?$AAE@ 000000014005d1a8     libucrtd:lcidtoname_downlevel.obj
 0002:0000e1b8       ??_C@_1BG@NDGMJIMJ@?$AAu?$AAz?$AA?9?$AAU?$AAZ?$AA?9?$AAL?$AAa?$AAt?$AAn@ 000000014005d1b8     libucrtd:lcidtoname_downlevel.obj
 0002:0000e1d0       ??_C@_1M@IDCCIHBC@?$AAt?$AAt?$AA?9?$AAR?$AAU@ 000000014005d1d0     libucrtd:lcidtoname_downlevel.obj
 0002:0000e1e0       ??_C@_1M@LOICPMOJ@?$AAb?$AAn?$AA?9?$AAI?$AAN@ 000000014005d1e0     libucrtd:lcidtoname_downlevel.obj
 0002:0000e1f0       ??_C@_1M@KPKKNEAH@?$AAp?$AAa?$AA?9?$AAI?$AAN@ 000000014005d1f0     libucrtd:lcidtoname_downlevel.obj
 0002:0000e200       ??_C@_1M@PJGPPBOG@?$AAg?$AAu?$AA?9?$AAI?$AAN@ 000000014005d200     libucrtd:lcidtoname_downlevel.obj
 0002:0000e210       ??_C@_1M@KMKMOPHI@?$AAt?$AAa?$AA?9?$AAI?$AAN@ 000000014005d210     libucrtd:lcidtoname_downlevel.obj
 0002:0000e220       ??_C@_1M@KFEHEPAC@?$AAt?$AAe?$AA?9?$AAI?$AAN@ 000000014005d220     libucrtd:lcidtoname_downlevel.obj
 0002:0000e230       ??_C@_1M@CDCLMGHI@?$AAk?$AAn?$AA?9?$AAI?$AAN@ 000000014005d230     libucrtd:lcidtoname_downlevel.obj
 0002:0000e240       ??_C@_1M@MIODLDKF@?$AAm?$AAl?$AA?9?$AAI?$AAN@ 000000014005d240     libucrtd:lcidtoname_downlevel.obj
 0002:0000e250       ??_C@_1M@PBIEACPO@?$AAm?$AAr?$AA?9?$AAI?$AAN@ 000000014005d250     libucrtd:lcidtoname_downlevel.obj
 0002:0000e260       ??_C@_1M@NIDEAGPH@?$AAs?$AAa?$AA?9?$AAI?$AAN@ 000000014005d260     libucrtd:lcidtoname_downlevel.obj
 0002:0000e270       ??_C@_1M@FHIHCBIO@?$AAm?$AAn?$AA?9?$AAM?$AAN@ 000000014005d270     libucrtd:lcidtoname_downlevel.obj
 0002:0000e280       ??_C@_1M@JAIJPENP@?$AAc?$AAy?$AA?9?$AAG?$AAB@ 000000014005d280     libucrtd:lcidtoname_downlevel.obj
 0002:0000e290       ??_C@_1M@PHGFBEPN@?$AAg?$AAl?$AA?9?$AAE?$AAS@ 000000014005d290     libucrtd:lcidtoname_downlevel.obj
 0002:0000e2a0       ??_C@_1O@KPIPDNCP@?$AAk?$AAo?$AAk?$AA?9?$AAI?$AAN@ 000000014005d2a0     libucrtd:lcidtoname_downlevel.obj
 0002:0000e2b0       ??_C@_1O@KNHJLDJA@?$AAs?$AAy?$AAr?$AA?9?$AAS?$AAY@ 000000014005d2b0     libucrtd:lcidtoname_downlevel.obj
 0002:0000e2c0       ??_C@_1O@MKEKBLAH@?$AAd?$AAi?$AAv?$AA?9?$AAM?$AAV@ 000000014005d2c0     libucrtd:lcidtoname_downlevel.obj
 0002:0000e2d0       ??_C@_1O@OHDCKDDF@?$AAq?$AAu?$AAz?$AA?9?$AAB?$AAO@ 000000014005d2d0     libucrtd:lcidtoname_downlevel.obj
 0002:0000e2e0       ??_C@_1M@LEPJNLFD@?$AAn?$AAs?$AA?9?$AAZ?$AAA@ 000000014005d2e0     libucrtd:lcidtoname_downlevel.obj
 0002:0000e2f0       ??_C@_1M@OMLEIIJB@?$AAm?$AAi?$AA?9?$AAN?$AAZ@ 000000014005d2f0     libucrtd:lcidtoname_downlevel.obj
 0002:0000e300       ??_C@_1M@PMPEAILG@?$AAa?$AAr?$AA?9?$AAI?$AAQ@ 000000014005d300     libucrtd:lcidtoname_downlevel.obj
 0002:0000e310       ??_C@_1M@CNKPNOEE@?$AAd?$AAe?$AA?9?$AAC?$AAH@ 000000014005d310     libucrtd:lcidtoname_downlevel.obj
 0002:0000e320       ??_C@_1M@LKMGMLKO@?$AAe?$AAn?$AA?9?$AAG?$AAB@ 000000014005d320     libucrtd:lcidtoname_downlevel.obj
 0002:0000e330       ??_C@_1M@PGKJFFGL@?$AAe?$AAs?$AA?9?$AAM?$AAX@ 000000014005d330     libucrtd:lcidtoname_downlevel.obj
 0002:0000e340       ??_C@_1M@DNNANBDC@?$AAf?$AAr?$AA?9?$AAB?$AAE@ 000000014005d340     libucrtd:lcidtoname_downlevel.obj
 0002:0000e350       ??_C@_1M@HLGMDFHM@?$AAi?$AAt?$AA?9?$AAC?$AAH@ 000000014005d350     libucrtd:lcidtoname_downlevel.obj
 0002:0000e360       ??_C@_1M@CLLBGJH@?$AAn?$AAl?$AA?9?$AAB?$AAE@ 000000014005d360     libucrtd:lcidtoname_downlevel.obj
 0002:0000e370       ??_C@_1M@BODBOGLF@?$AAn?$AAn?$AA?9?$AAN?$AAO@ 000000014005d370     libucrtd:lcidtoname_downlevel.obj
 0002:0000e380       ??_C@_1M@HFFAHKAD@?$AAp?$AAt?$AA?9?$AAP?$AAT@ 000000014005d380     libucrtd:lcidtoname_downlevel.obj
 0002:0000e390       ??_C@_1BG@LNOAKHIE@?$AAs?$AAr?$AA?9?$AAS?$AAP?$AA?9?$AAL?$AAa?$AAt?$AAn@ 000000014005d390     libucrtd:lcidtoname_downlevel.obj
 0002:0000e3a8       ??_C@_1M@HBMHBGAK@?$AAs?$AAv?$AA?9?$AAF?$AAI@ 000000014005d3a8     libucrtd:lcidtoname_downlevel.obj
 0002:0000e3b8       ??_C@_1BG@DGCJGJBE@?$AAa?$AAz?$AA?9?$AAA?$AAZ?$AA?9?$AAC?$AAy?$AAr?$AAl@ 000000014005d3b8     libucrtd:lcidtoname_downlevel.obj
 0002:0000e3d0       ??_C@_1M@KEJDAAHB@?$AAs?$AAe?$AA?9?$AAS?$AAE@ 000000014005d3d0     libucrtd:lcidtoname_downlevel.obj
 0002:0000e3e0       ??_C@_1M@HEIBJJAD@?$AAm?$AAs?$AA?9?$AAB?$AAN@ 000000014005d3e0     libucrtd:lcidtoname_downlevel.obj
 0002:0000e3f0       ??_C@_1BG@PBGJMCEM@?$AAu?$AAz?$AA?9?$AAU?$AAZ?$AA?9?$AAC?$AAy?$AAr?$AAl@ 000000014005d3f0     libucrtd:lcidtoname_downlevel.obj
 0002:0000e408       ??_C@_1O@LAOBCMDF@?$AAq?$AAu?$AAz?$AA?9?$AAE?$AAC@ 000000014005d408     libucrtd:lcidtoname_downlevel.obj
 0002:0000e418       ??_C@_1M@POEEMAIO@?$AAa?$AAr?$AA?9?$AAE?$AAG@ 000000014005d418     libucrtd:lcidtoname_downlevel.obj
 0002:0000e428       ??_C@_1M@EFAKDEDL@?$AAz?$AAh?$AA?9?$AAH?$AAK@ 000000014005d428     libucrtd:lcidtoname_downlevel.obj
 0002:0000e438       ??_C@_1M@HKKIJHGI@?$AAd?$AAe?$AA?9?$AAA?$AAT@ 000000014005d438     libucrtd:lcidtoname_downlevel.obj
 0002:0000e448       ??_C@_1M@KBFBEHJF@?$AAe?$AAn?$AA?9?$AAA?$AAU@ 000000014005d448     libucrtd:lcidtoname_downlevel.obj
 0002:0000e458       ??_C@_1M@MNPLFAAH@?$AAe?$AAs?$AA?9?$AAE?$AAS@ 000000014005d458     libucrtd:lcidtoname_downlevel.obj
 0002:0000e468       ??_C@_1M@HJOOJFMA@?$AAf?$AAr?$AA?9?$AAC?$AAA@ 000000014005d468     libucrtd:lcidtoname_downlevel.obj
 0002:0000e478       ??_C@_1BG@JPOFPNAB@?$AAs?$AAr?$AA?9?$AAS?$AAP?$AA?9?$AAC?$AAy?$AAr?$AAl@ 000000014005d478     libucrtd:lcidtoname_downlevel.obj
 0002:0000e490       ??_C@_1M@LNFOCMOB@?$AAs?$AAe?$AA?9?$AAF?$AAI@ 000000014005d490     libucrtd:lcidtoname_downlevel.obj
 0002:0000e4a0       ??_C@_1O@MGJBOAMB@?$AAq?$AAu?$AAz?$AA?9?$AAP?$AAE@ 000000014005d4a0     libucrtd:lcidtoname_downlevel.obj
 0002:0000e4b0       ??_C@_1M@GJINLBOK@?$AAa?$AAr?$AA?9?$AAL?$AAY@ 000000014005d4b0     libucrtd:lcidtoname_downlevel.obj
 0002:0000e4c0       ??_C@_1M@GGMNHJNL@?$AAz?$AAh?$AA?9?$AAS?$AAG@ 000000014005d4c0     libucrtd:lcidtoname_downlevel.obj
 0002:0000e4d0       ??_C@_1M@HOIKODND@?$AAd?$AAe?$AA?9?$AAL?$AAU@ 000000014005d4d0     libucrtd:lcidtoname_downlevel.obj
 0002:0000e4e0       ??_C@_1M@DDOCCGFG@?$AAe?$AAn?$AA?9?$AAC?$AAA@ 000000014005d4e0     libucrtd:lcidtoname_downlevel.obj
 0002:0000e4f0       ??_C@_1M@BNOEMJLF@?$AAe?$AAs?$AA?9?$AAG?$AAT@ 000000014005d4f0     libucrtd:lcidtoname_downlevel.obj
 0002:0000e500       ??_C@_1M@EOGNKEK@?$AAf?$AAr?$AA?9?$AAC?$AAH@ 000000014005d500     libucrtd:lcidtoname_downlevel.obj
 0002:0000e510       ??_C@_1M@FLIDJFHL@?$AAh?$AAr?$AA?9?$AAB?$AAA@ 000000014005d510     libucrtd:lcidtoname_downlevel.obj
 0002:0000e520       ??_C@_1O@FMCELNAJ@?$AAs?$AAm?$AAj?$AA?9?$AAN?$AAO@ 000000014005d520     libucrtd:lcidtoname_downlevel.obj
 0002:0000e530       ??_C@_1M@JHGLJMGJ@?$AAa?$AAr?$AA?9?$AAD?$AAZ@ 000000014005d530     libucrtd:lcidtoname_downlevel.obj
 0002:0000e540       ??_C@_1M@JKKFDCNP@?$AAz?$AAh?$AA?9?$AAM?$AAO@ 000000014005d540     libucrtd:lcidtoname_downlevel.obj
 0002:0000e550       ??_C@_1M@GEEFALPE@?$AAd?$AAe?$AA?9?$AAL?$AAI@ 000000014005d550     libucrtd:lcidtoname_downlevel.obj
 0002:0000e560       ??_C@_1M@IGEOFBG@?$AAe?$AAn?$AA?9?$AAN?$AAZ@ 000000014005d560     libucrtd:lcidtoname_downlevel.obj
 0002:0000e570       ??_C@_1M@KDBONEHP@?$AAe?$AAs?$AA?9?$AAC?$AAR@ 000000014005d570     libucrtd:lcidtoname_downlevel.obj
 0002:0000e580       ??_C@_1M@FHMDOHNN@?$AAf?$AAr?$AA?9?$AAL?$AAU@ 000000014005d580     libucrtd:lcidtoname_downlevel.obj
 0002:0000e590       ??_C@_1BG@NFKKMAFG@?$AAb?$AAs?$AA?9?$AAB?$AAA?$AA?9?$AAL?$AAa?$AAt?$AAn@ 000000014005d590     libucrtd:lcidtoname_downlevel.obj
 0002:0000e5a8       ??_C@_1O@IMNBEMCI@?$AAs?$AAm?$AAj?$AA?9?$AAS?$AAE@ 000000014005d5a8     libucrtd:lcidtoname_downlevel.obj
 0002:0000e5b8       ??_C@_1M@DHHMBNDP@?$AAa?$AAr?$AA?9?$AAM?$AAA@ 000000014005d5b8     libucrtd:lcidtoname_downlevel.obj
 0002:0000e5c8       ??_C@_1M@BNBLJCGH@?$AAe?$AAn?$AA?9?$AAI?$AAE@ 000000014005d5c8     libucrtd:lcidtoname_downlevel.obj
 0002:0000e5d8       ??_C@_1M@GEPAFMDL@?$AAe?$AAs?$AA?9?$AAP?$AAA@ 000000014005d5d8     libucrtd:lcidtoname_downlevel.obj
 0002:0000e5e8       ??_C@_1M@OJONDMDL@?$AAf?$AAr?$AA?9?$AAM?$AAC@ 000000014005d5e8     libucrtd:lcidtoname_downlevel.obj
 0002:0000e5f8       ??_C@_1BG@OBCNFJB@?$AAs?$AAr?$AA?9?$AAB?$AAA?$AA?9?$AAL?$AAa?$AAt?$AAn@ 000000014005d5f8     libucrtd:lcidtoname_downlevel.obj
 0002:0000e610       ??_C@_1O@KEMEEGPO@?$AAs?$AAm?$AAa?$AA?9?$AAN?$AAO@ 000000014005d610     libucrtd:lcidtoname_downlevel.obj
 0002:0000e620       ??_C@_1M@ELMGFODK@?$AAa?$AAr?$AA?9?$AAT?$AAN@ 000000014005d620     libucrtd:lcidtoname_downlevel.obj
 0002:0000e630       ??_C@_1M@BHDLHFAF@?$AAe?$AAn?$AA?9?$AAZ?$AAA@ 000000014005d630     libucrtd:lcidtoname_downlevel.obj
 0002:0000e640       ??_C@_1M@BMGIGLIF@?$AAe?$AAs?$AA?9?$AAD?$AAO@ 000000014005d640     libucrtd:lcidtoname_downlevel.obj
 0002:0000e650       ??_C@_1BG@CMBHIPBE@?$AAs?$AAr?$AA?9?$AAB?$AAA?$AA?9?$AAC?$AAy?$AAr?$AAl@ 000000014005d650     libucrtd:lcidtoname_downlevel.obj
 0002:0000e668       ??_C@_1O@HEDBLHNP@?$AAs?$AAm?$AAa?$AA?9?$AAS?$AAE@ 000000014005d668     libucrtd:lcidtoname_downlevel.obj
 0002:0000e678       ??_C@_1M@DAGCADIM@?$AAa?$AAr?$AA?9?$AAO?$AAM@ 000000014005d678     libucrtd:lcidtoname_downlevel.obj
 0002:0000e688       ??_C@_1M@FODLMICG@?$AAe?$AAn?$AA?9?$AAJ?$AAM@ 000000014005d688     libucrtd:lcidtoname_downlevel.obj
 0002:0000e698       ??_C@_1M@DNMLCIHB@?$AAe?$AAs?$AA?9?$AAV?$AAE@ 000000014005d698     libucrtd:lcidtoname_downlevel.obj
 0002:0000e6a8       ??_C@_1O@EOKHMKJK@?$AAs?$AAm?$AAs?$AA?9?$AAF?$AAI@ 000000014005d6a8     libucrtd:lcidtoname_downlevel.obj
 0002:0000e6b8       ??_C@_1M@CAFJMKOF@?$AAa?$AAr?$AA?9?$AAY?$AAE@ 000000014005d6b8     libucrtd:lcidtoname_downlevel.obj
 0002:0000e6c8       ??_C@_1M@CBFHIJLI@?$AAe?$AAn?$AA?9?$AAC?$AAB@ 000000014005d6c8     libucrtd:lcidtoname_downlevel.obj
 0002:0000e6d8       ??_C@_1M@BGNFLDN@?$AAe?$AAs?$AA?9?$AAC?$AAO@ 000000014005d6d8     libucrtd:lcidtoname_downlevel.obj
 0002:0000e6e8       ??_C@_1O@JMPHMAMC@?$AAs?$AAm?$AAn?$AA?9?$AAF?$AAI@ 000000014005d6e8     libucrtd:lcidtoname_downlevel.obj
 0002:0000e6f8       ??_C@_1M@JLANABKE@?$AAa?$AAr?$AA?9?$AAS?$AAY@ 000000014005d6f8     libucrtd:lcidtoname_downlevel.obj
 0002:0000e708       ??_C@_1M@HPKGCFGN@?$AAe?$AAn?$AA?9?$AAB?$AAZ@ 000000014005d708     libucrtd:lcidtoname_downlevel.obj
 0002:0000e718       ??_C@_1M@OLJCMLGM@?$AAe?$AAs?$AA?9?$AAP?$AAE@ 000000014005d718     libucrtd:lcidtoname_downlevel.obj
 0002:0000e728       ??_C@_1M@MKKGFKLE@?$AAa?$AAr?$AA?9?$AAJ?$AAO@ 000000014005d728     libucrtd:lcidtoname_downlevel.obj
 0002:0000e738       ??_C@_1M@EKPGLDNI@?$AAe?$AAn?$AA?9?$AAT?$AAT@ 000000014005d738     libucrtd:lcidtoname_downlevel.obj
 0002:0000e748       ??_C@_1M@OONGHFHE@?$AAe?$AAs?$AA?9?$AAA?$AAR@ 000000014005d748     libucrtd:lcidtoname_downlevel.obj
 0002:0000e758       ??_C@_1M@OOJFGBHE@?$AAa?$AAr?$AA?9?$AAL?$AAB@ 000000014005d758     libucrtd:lcidtoname_downlevel.obj
 0002:0000e768       ??_C@_1M@GCEJHNEG@?$AAe?$AAn?$AA?9?$AAZ?$AAW@ 000000014005d768     libucrtd:lcidtoname_downlevel.obj
 0002:0000e778       ??_C@_1M@JNOCAHJI@?$AAe?$AAs?$AA?9?$AAE?$AAC@ 000000014005d778     libucrtd:lcidtoname_downlevel.obj
 0002:0000e788       ??_C@_1M@JEFHPGGB@?$AAa?$AAr?$AA?9?$AAK?$AAW@ 000000014005d788     libucrtd:lcidtoname_downlevel.obj
 0002:0000e798       ??_C@_1M@MLKIBJOJ@?$AAe?$AAn?$AA?9?$AAP?$AAH@ 000000014005d798     libucrtd:lcidtoname_downlevel.obj
 0002:0000e7a8       ??_C@_1M@BDNIPEND@?$AAe?$AAs?$AA?9?$AAC?$AAL@ 000000014005d7a8     libucrtd:lcidtoname_downlevel.obj
 0002:0000e7b8       ??_C@_1M@MPNMEKBD@?$AAa?$AAr?$AA?9?$AAA?$AAE@ 000000014005d7b8     libucrtd:lcidtoname_downlevel.obj
 0002:0000e7c8       ??_C@_1M@KBJALCPI@?$AAe?$AAs?$AA?9?$AAU?$AAY@ 000000014005d7c8     libucrtd:lcidtoname_downlevel.obj
 0002:0000e7d8       ??_C@_1M@LLCCOAGA@?$AAa?$AAr?$AA?9?$AAB?$AAH@ 000000014005d7d8     libucrtd:lcidtoname_downlevel.obj
 0002:0000e7e8       ??_C@_1M@PBFNCDEL@?$AAe?$AAs?$AA?9?$AAP?$AAY@ 000000014005d7e8     libucrtd:lcidtoname_downlevel.obj
 0002:0000e7f8       ??_C@_1M@EDGINPNP@?$AAa?$AAr?$AA?9?$AAQ?$AAA@ 000000014005d7f8     libucrtd:lcidtoname_downlevel.obj
 0002:0000e808       ??_C@_1M@MKDBIIJI@?$AAe?$AAs?$AA?9?$AAB?$AAO@ 000000014005d808     libucrtd:lcidtoname_downlevel.obj
 0002:0000e818       ??_C@_1M@CPKKEBLD@?$AAe?$AAs?$AA?9?$AAS?$AAV@ 000000014005d818     libucrtd:lcidtoname_downlevel.obj
 0002:0000e828       ??_C@_1M@NDBGMMJL@?$AAe?$AAs?$AA?9?$AAH?$AAN@ 000000014005d828     libucrtd:lcidtoname_downlevel.obj
 0002:0000e838       ??_C@_1M@JIJIBHDP@?$AAe?$AAs?$AA?9?$AAN?$AAI@ 000000014005d838     libucrtd:lcidtoname_downlevel.obj
 0002:0000e848       ??_C@_1M@CGFMKEEK@?$AAe?$AAs?$AA?9?$AAP?$AAR@ 000000014005d848     libucrtd:lcidtoname_downlevel.obj
 0002:0000e858       ??_C@_1O@ICJHKIIK@?$AAz?$AAh?$AA?9?$AAC?$AAH?$AAT@ 000000014005d858     libucrtd:lcidtoname_downlevel.obj
 0002:0000e868       ??_C@_15CLNEJCE@?$AAs?$AAr@ 000000014005d868     libucrtd:lcidtoname_downlevel.obj
 0002:0000f6b0       ??_C@_1M@KAHEKEIG@?$AAa?$AAf?$AA?9?$AAz?$AAa@ 000000014005e6b0     libucrtd:lcidtoname_downlevel.obj
 0002:0000f6c0       ??_C@_1M@GIECOABL@?$AAa?$AAr?$AA?9?$AAa?$AAe@ 000000014005e6c0     libucrtd:lcidtoname_downlevel.obj
 0002:0000f6d0       ??_C@_1M@BMLMEKGI@?$AAa?$AAr?$AA?9?$AAb?$AAh@ 000000014005e6d0     libucrtd:lcidtoname_downlevel.obj
 0002:0000f6e0       ??_C@_1M@DAPFDGGB@?$AAa?$AAr?$AA?9?$AAd?$AAz@ 000000014005e6e0     libucrtd:lcidtoname_downlevel.obj
 0002:0000f6f0       ??_C@_1M@FJNKGKIG@?$AAa?$AAr?$AA?9?$AAe?$AAg@ 000000014005e6f0     libucrtd:lcidtoname_downlevel.obj
 0002:0000f700       ??_C@_1M@FLGKKCLO@?$AAa?$AAr?$AA?9?$AAi?$AAq@ 000000014005e700     libucrtd:lcidtoname_downlevel.obj
 0002:0000f710       ??_C@_1M@GNDIPALM@?$AAa?$AAr?$AA?9?$AAj?$AAo@ 000000014005e710     libucrtd:lcidtoname_downlevel.obj
 0002:0000f720       ??_C@_1M@DDMJFMGJ@?$AAa?$AAr?$AA?9?$AAk?$AAw@ 000000014005e720     libucrtd:lcidtoname_downlevel.obj
 0002:0000f730       ??_C@_1M@EJALMLHM@?$AAa?$AAr?$AA?9?$AAl?$AAb@ 000000014005e730     libucrtd:lcidtoname_downlevel.obj
 0002:0000f740       ??_C@_1M@MOBDBLOC@?$AAa?$AAr?$AA?9?$AAl?$AAy@ 000000014005e740     libucrtd:lcidtoname_downlevel.obj
 0002:0000f750       ??_C@_1M@JAOCLHDH@?$AAa?$AAr?$AA?9?$AAm?$AAa@ 000000014005e750     libucrtd:lcidtoname_downlevel.obj
 0002:0000f760       ??_C@_1M@JHPMKJIE@?$AAa?$AAr?$AA?9?$AAo?$AAm@ 000000014005e760     libucrtd:lcidtoname_downlevel.obj
 0002:0000f770       ??_C@_1M@OEPGHFNH@?$AAa?$AAr?$AA?9?$AAq?$AAa@ 000000014005e770     libucrtd:lcidtoname_downlevel.obj
 0002:0000f780       ??_C@_1M@KJDONENM@?$AAa?$AAr?$AA?9?$AAs?$AAa@ 000000014005e780     libucrtd:lcidtoname_downlevel.obj
 0002:0000f790       ??_C@_1M@DMJDKLKM@?$AAa?$AAr?$AA?9?$AAs?$AAy@ 000000014005e790     libucrtd:lcidtoname_downlevel.obj
 0002:0000f7a0       ??_C@_1M@OMFIPEDC@?$AAa?$AAr?$AA?9?$AAt?$AAn@ 000000014005e7a0     libucrtd:lcidtoname_downlevel.obj
 0002:0000f7b0       ??_C@_1M@IHMHGAON@?$AAa?$AAr?$AA?9?$AAy?$AAe@ 000000014005e7b0     libucrtd:lcidtoname_downlevel.obj
 0002:0000f7c0       ??_C@_1BG@KDCPGJGB@?$AAa?$AAz?$AA?9?$AAa?$AAz?$AA?9?$AAc?$AAy?$AAr?$AAl@ 000000014005e7c0     libucrtd:lcidtoname_downlevel.obj
 0002:0000f7d8       ??_C@_1BG@IBCKDDOE@?$AAa?$AAz?$AA?9?$AAa?$AAz?$AA?9?$AAl?$AAa?$AAt?$AAn@ 000000014005e7d8     libucrtd:lcidtoname_downlevel.obj
 0002:0000f7f0       ??_C@_1M@EGPFDCPD@?$AAb?$AAe?$AA?9?$AAb?$AAy@ 000000014005e7f0     libucrtd:lcidtoname_downlevel.obj
 0002:0000f800       ??_C@_1M@PCMGMCGC@?$AAb?$AAg?$AA?9?$AAb?$AAg@ 000000014005e800     libucrtd:lcidtoname_downlevel.obj
 0002:0000f810       ??_C@_1M@BJBMFGOB@?$AAb?$AAn?$AA?9?$AAi?$AAn@ 000000014005e810     libucrtd:lcidtoname_downlevel.obj
 0002:0000f820       ??_C@_1BG@EAKMMACD@?$AAb?$AAs?$AA?9?$AAb?$AAa?$AA?9?$AAl?$AAa?$AAt?$AAn@ 000000014005e820     libucrtd:lcidtoname_downlevel.obj
 0002:0000f838       ??_C@_1M@KGADAODK@?$AAc?$AAa?$AA?9?$AAe?$AAs@ 000000014005e838     libucrtd:lcidtoname_downlevel.obj
 0002:0000f848       ??_C@_1M@COAJPDHI@?$AAc?$AAs?$AA?9?$AAc?$AAz@ 000000014005e848     libucrtd:lcidtoname_downlevel.obj
 0002:0000f858       ??_C@_1M@DHBHFONH@?$AAc?$AAy?$AA?9?$AAg?$AAb@ 000000014005e858     libucrtd:lcidtoname_downlevel.obj
 0002:0000f868       ??_C@_1M@IMGKELGA@?$AAd?$AAa?$AA?9?$AAd?$AAk@ 000000014005e868     libucrtd:lcidtoname_downlevel.obj
 0002:0000f878       ??_C@_1M@NNDGDNGA@?$AAd?$AAe?$AA?9?$AAa?$AAt@ 000000014005e878     libucrtd:lcidtoname_downlevel.obj
 0002:0000f888       ??_C@_1M@IKDBHEEM@?$AAd?$AAe?$AA?9?$AAc?$AAh@ 000000014005e888     libucrtd:lcidtoname_downlevel.obj
 0002:0000f898       ??_C@_1M@GFFOJMCJ@?$AAd?$AAe?$AA?9?$AAd?$AAe@ 000000014005e898     libucrtd:lcidtoname_downlevel.obj
 0002:0000f8a8       ??_C@_1M@MDNLKBPM@?$AAd?$AAe?$AA?9?$AAl?$AAi@ 000000014005e8a8     libucrtd:lcidtoname_downlevel.obj
 0002:0000f8b8       ??_C@_1M@NJBEEJNL@?$AAd?$AAe?$AA?9?$AAl?$AAu@ 000000014005e8b8     libucrtd:lcidtoname_downlevel.obj
 0002:0000f8c8       ??_C@_1O@GNNELBAP@?$AAd?$AAi?$AAv?$AA?9?$AAm?$AAv@ 000000014005e8c8     libucrtd:lcidtoname_downlevel.obj
 0002:0000f8d8       ??_C@_1M@EJLEOGAE@?$AAe?$AAl?$AA?9?$AAg?$AAr@ 000000014005e8d8     libucrtd:lcidtoname_downlevel.obj
 0002:0000f8e8       ??_C@_1M@GMPONJN@?$AAe?$AAn?$AA?9?$AAa?$AAu@ 000000014005e8e8     libucrtd:lcidtoname_downlevel.obj
 0002:0000f8f8       ??_C@_1M@NIDIIPGF@?$AAe?$AAn?$AA?9?$AAb?$AAz@ 000000014005e8f8     libucrtd:lcidtoname_downlevel.obj
 0002:0000f908       ??_C@_1M@JEHMIMFO@?$AAe?$AAn?$AA?9?$AAc?$AAa@ 000000014005e908     libucrtd:lcidtoname_downlevel.obj
 0002:0000f918       ??_C@_1M@IGMJCDLA@?$AAe?$AAn?$AA?9?$AAc?$AAb@ 000000014005e918     libucrtd:lcidtoname_downlevel.obj
 0002:0000f928       ??_C@_1M@BNFIGBKG@?$AAe?$AAn?$AA?9?$AAg?$AAb@ 000000014005e928     libucrtd:lcidtoname_downlevel.obj
 0002:0000f938       ??_C@_1M@LKIFDIGP@?$AAe?$AAn?$AA?9?$AAi?$AAe@ 000000014005e938     libucrtd:lcidtoname_downlevel.obj
 0002:0000f948       ??_C@_1M@PJKFGCCO@?$AAe?$AAn?$AA?9?$AAj?$AAm@ 000000014005e948     libucrtd:lcidtoname_downlevel.obj
 0002:0000f958       ??_C@_1M@KPPKEPBO@?$AAe?$AAn?$AA?9?$AAn?$AAz@ 000000014005e958     libucrtd:lcidtoname_downlevel.obj
 0002:0000f968       ??_C@_1M@GMDGLDOB@?$AAe?$AAn?$AA?9?$AAp?$AAh@ 000000014005e968     libucrtd:lcidtoname_downlevel.obj
 0002:0000f978       ??_C@_1M@ONGIBJNA@?$AAe?$AAn?$AA?9?$AAt?$AAt@ 000000014005e978     libucrtd:lcidtoname_downlevel.obj
 0002:0000f988       ??_C@_1M@LLODPCMM@?$AAe?$AAn?$AA?9?$AAu?$AAs@ 000000014005e988     libucrtd:lcidtoname_downlevel.obj
 0002:0000f998       ??_C@_1M@LAKFNPAN@?$AAe?$AAn?$AA?9?$AAz?$AAa@ 000000014005e998     libucrtd:lcidtoname_downlevel.obj
 0002:0000f9a8       ??_C@_1M@MFNHNHEO@?$AAe?$AAn?$AA?9?$AAz?$AAw@ 000000014005e9a8     libucrtd:lcidtoname_downlevel.obj
 0002:0000f9b8       ??_C@_1M@EJEINPHM@?$AAe?$AAs?$AA?9?$AAa?$AAr@ 000000014005e9b8     libucrtd:lcidtoname_downlevel.obj
 0002:0000f9c8       ??_C@_1M@GNKPCCJA@?$AAe?$AAs?$AA?9?$AAb?$AAo@ 000000014005e9c8     libucrtd:lcidtoname_downlevel.obj
 0002:0000f9d8       ??_C@_1M@LEEGFONL@?$AAe?$AAs?$AA?9?$AAc?$AAl@ 000000014005e9d8     libucrtd:lcidtoname_downlevel.obj
 0002:0000f9e8       ??_C@_1M@KGPDPBDF@?$AAe?$AAs?$AA?9?$AAc?$AAo@ 000000014005e9e8     libucrtd:lcidtoname_downlevel.obj
 0002:0000f9f8       ??_C@_1M@EIAHOHH@?$AAe?$AAs?$AA?9?$AAc?$AAr@ 000000014005e9f8     libucrtd:lcidtoname_downlevel.obj
 0002:0000fa08       ??_C@_1M@LLPGMBIN@?$AAe?$AAs?$AA?9?$AAd?$AAo@ 000000014005ea08     libucrtd:lcidtoname_downlevel.obj
 0002:0000fa18       ??_C@_1M@DKHMKNJA@?$AAe?$AAs?$AA?9?$AAe?$AAc@ 000000014005ea18     libucrtd:lcidtoname_downlevel.obj
 0002:0000fa28       ??_C@_1M@GKGFPKAP@?$AAe?$AAs?$AA?9?$AAe?$AAs@ 000000014005ea28     libucrtd:lcidtoname_downlevel.obj
 0002:0000fa38       ??_C@_1M@LKHKGDLN@?$AAe?$AAs?$AA?9?$AAg?$AAt@ 000000014005ea38     libucrtd:lcidtoname_downlevel.obj
 0002:0000fa48       ??_C@_1M@HEIIGGJD@?$AAe?$AAs?$AA?9?$AAh?$AAn@ 000000014005ea48     libucrtd:lcidtoname_downlevel.obj
 0002:0000fa58       ??_C@_1M@FBDHPPGD@?$AAe?$AAs?$AA?9?$AAm?$AAx@ 000000014005ea58     libucrtd:lcidtoname_downlevel.obj
 0002:0000fa68       ??_C@_1M@DPAGLNDH@?$AAe?$AAs?$AA?9?$AAn?$AAi@ 000000014005ea68     libucrtd:lcidtoname_downlevel.obj
 0002:0000fa78       ??_C@_1M@MDGOPGDD@?$AAe?$AAs?$AA?9?$AAp?$AAa@ 000000014005ea78     libucrtd:lcidtoname_downlevel.obj
 0002:0000fa88       ??_C@_1M@EMAMGBGE@?$AAe?$AAs?$AA?9?$AAp?$AAe@ 000000014005ea88     libucrtd:lcidtoname_downlevel.obj
 0002:0000fa98       ??_C@_1M@IBMCAOEC@?$AAe?$AAs?$AA?9?$AAp?$AAr@ 000000014005ea98     libucrtd:lcidtoname_downlevel.obj
 0002:0000faa8       ??_C@_1M@FGMDIJED@?$AAe?$AAs?$AA?9?$AAp?$AAy@ 000000014005eaa8     libucrtd:lcidtoname_downlevel.obj
 0002:0000fab8       ??_C@_1M@IIDEOLLL@?$AAe?$AAs?$AA?9?$AAs?$AAv@ 000000014005eab8     libucrtd:lcidtoname_downlevel.obj
 0002:0000fac8       ??_C@_1M@GAOBIPA@?$AAe?$AAs?$AA?9?$AAu?$AAy@ 000000014005eac8     libucrtd:lcidtoname_downlevel.obj
 0002:0000fad8       ??_C@_1M@JKFFICHJ@?$AAe?$AAs?$AA?9?$AAv?$AAe@ 000000014005ead8     libucrtd:lcidtoname_downlevel.obj
 0002:0000fae8       ??_C@_1M@PNMLOJDF@?$AAe?$AAt?$AA?9?$AAe?$AAe@ 000000014005eae8     libucrtd:lcidtoname_downlevel.obj
 0002:0000faf8       ??_C@_1M@GHHLIKEI@?$AAe?$AAu?$AA?9?$AAe?$AAs@ 000000014005eaf8     libucrtd:lcidtoname_downlevel.obj
 0002:0000fb08       ??_C@_1M@PBNONODE@?$AAf?$AAa?$AA?9?$AAi?$AAr@ 000000014005eb08     libucrtd:lcidtoname_downlevel.obj
 0002:0000fb18       ??_C@_1M@JEEHPMIL@?$AAf?$AAi?$AA?9?$AAf?$AAi@ 000000014005eb18     libucrtd:lcidtoname_downlevel.obj
 0002:0000fb28       ??_C@_1M@LMDCNDBA@?$AAf?$AAo?$AA?9?$AAf?$AAo@ 000000014005eb28     libucrtd:lcidtoname_downlevel.obj
 0002:0000fb38       ??_C@_1M@JKEOHLDK@?$AAf?$AAr?$AA?9?$AAb?$AAe@ 000000014005eb38     libucrtd:lcidtoname_downlevel.obj
 0002:0000fb48       ??_C@_1M@NOHADPMI@?$AAf?$AAr?$AA?9?$AAc?$AAa@ 000000014005eb48     libucrtd:lcidtoname_downlevel.obj
 0002:0000fb58       ??_C@_1M@KDHIHAEC@?$AAf?$AAr?$AA?9?$AAc?$AAh@ 000000014005eb58     libucrtd:lcidtoname_downlevel.obj
 0002:0000fb68       ??_C@_1M@MMBBFGAK@?$AAf?$AAr?$AA?9?$AAf?$AAr@ 000000014005eb68     libucrtd:lcidtoname_downlevel.obj
 0002:0000fb78       ??_C@_1M@PAFNENNF@?$AAf?$AAr?$AA?9?$AAl?$AAu@ 000000014005eb78     libucrtd:lcidtoname_downlevel.obj
 0002:0000fb88       ??_C@_1M@EOHDJGDD@?$AAf?$AAr?$AA?9?$AAm?$AAc@ 000000014005eb88     libucrtd:lcidtoname_downlevel.obj
 0002:0000fb98       ??_C@_1M@FAPLLOPF@?$AAg?$AAl?$AA?9?$AAe?$AAs@ 000000014005eb98     libucrtd:lcidtoname_downlevel.obj
 0002:0000fba8       ??_C@_1M@FOPBFLOO@?$AAg?$AAu?$AA?9?$AAi?$AAn@ 000000014005eba8     libucrtd:lcidtoname_downlevel.obj
 0002:0000fbb8       ??_C@_1M@KBMCINPM@?$AAh?$AAe?$AA?9?$AAi?$AAl@ 000000014005ebb8     libucrtd:lcidtoname_downlevel.obj
 0002:0000fbc8       ??_C@_1M@BBPHKFPJ@?$AAh?$AAi?$AA?9?$AAi?$AAn@ 000000014005ebc8     libucrtd:lcidtoname_downlevel.obj
 0002:0000fbd8       ??_C@_1M@PMBNDPHD@?$AAh?$AAr?$AA?9?$AAb?$AAa@ 000000014005ebd8     libucrtd:lcidtoname_downlevel.obj
 0002:0000fbe8       ??_C@_1M@BPCKOEGE@?$AAh?$AAr?$AA?9?$AAh?$AAr@ 000000014005ebe8     libucrtd:lcidtoname_downlevel.obj
 0002:0000fbf8       ??_C@_1M@GACBMHKE@?$AAh?$AAu?$AA?9?$AAh?$AAu@ 000000014005ebf8     libucrtd:lcidtoname_downlevel.obj
 0002:0000fc08       ??_C@_1M@MILPAJJC@?$AAh?$AAy?$AA?9?$AAa?$AAm@ 000000014005ec08     libucrtd:lcidtoname_downlevel.obj
 0002:0000fc18       ??_C@_1M@BABBICEC@?$AAi?$AAd?$AA?9?$AAi?$AAd@ 000000014005ec18     libucrtd:lcidtoname_downlevel.obj
 0002:0000fc28       ??_C@_1M@BIKNHHPF@?$AAi?$AAs?$AA?9?$AAi?$AAs@ 000000014005ec28     libucrtd:lcidtoname_downlevel.obj
 0002:0000fc38       ??_C@_1M@NMPCJPHE@?$AAi?$AAt?$AA?9?$AAc?$AAh@ 000000014005ec38     libucrtd:lcidtoname_downlevel.obj
 0002:0000fc48       ??_C@_1M@GHKGFEDF@?$AAi?$AAt?$AA?9?$AAi?$AAt@ 000000014005ec48     libucrtd:lcidtoname_downlevel.obj
 0002:0000fc58       ??_C@_1M@NIEJCJJA@?$AAj?$AAa?$AA?9?$AAj?$AAp@ 000000014005ec58     libucrtd:lcidtoname_downlevel.obj
 0002:0000fc68       ??_C@_1M@JILFNBIM@?$AAk?$AAa?$AA?9?$AAg?$AAe@ 000000014005ec68     libucrtd:lcidtoname_downlevel.obj
 0002:0000fc78       ??_C@_1M@PACPMGPH@?$AAk?$AAk?$AA?9?$AAk?$AAz@ 000000014005ec78     libucrtd:lcidtoname_downlevel.obj
 0002:0000fc88       ??_C@_1M@IELFGMHA@?$AAk?$AAn?$AA?9?$AAi?$AAn@ 000000014005ec88     libucrtd:lcidtoname_downlevel.obj
 0002:0000fc98       ??_C@_1O@IBBJHCH@?$AAk?$AAo?$AAk?$AA?9?$AAi?$AAn@ 000000014005ec98     libucrtd:lcidtoname_downlevel.obj
 0002:0000fca8       ??_C@_1M@DMHAEOGC@?$AAk?$AAo?$AA?9?$AAk?$AAr@ 000000014005eca8     libucrtd:lcidtoname_downlevel.obj
 0002:0000fcb8       ??_C@_1M@HBAHBIGA@?$AAk?$AAy?$AA?9?$AAk?$AAg@ 000000014005ecb8     libucrtd:lcidtoname_downlevel.obj
 0002:0000fcc8       ??_C@_1M@KPMILCJG@?$AAl?$AAt?$AA?9?$AAl?$AAt@ 000000014005ecc8     libucrtd:lcidtoname_downlevel.obj
 0002:0000fcd8       ??_C@_1M@BDEKKCA@?$AAl?$AAv?$AA?9?$AAl?$AAv@ 000000014005ecd8     libucrtd:lcidtoname_downlevel.obj
 0002:0000fce8       ??_C@_1M@ELCKCCJJ@?$AAm?$AAi?$AA?9?$AAn?$AAz@ 000000014005ece8     libucrtd:lcidtoname_downlevel.obj
 0002:0000fcf8       ??_C@_1M@CBOOLAPA@?$AAm?$AAk?$AA?9?$AAm?$AAk@ 000000014005ecf8     libucrtd:lcidtoname_downlevel.obj
 0002:0000fd08       ??_C@_1M@GPHNBJKN@?$AAm?$AAl?$AA?9?$AAi?$AAn@ 000000014005ed08     libucrtd:lcidtoname_downlevel.obj
 0002:0000fd18       ??_C@_1M@PABJILIG@?$AAm?$AAn?$AA?9?$AAm?$AAn@ 000000014005ed18     libucrtd:lcidtoname_downlevel.obj
 0002:0000fd28       ??_C@_1M@FGBKKIPG@?$AAm?$AAr?$AA?9?$AAi?$AAn@ 000000014005ed28     libucrtd:lcidtoname_downlevel.obj
 0002:0000fd38       ??_C@_1M@NDBPDDAL@?$AAm?$AAs?$AA?9?$AAb?$AAn@ 000000014005ed38     libucrtd:lcidtoname_downlevel.obj
 0002:0000fd48       ??_C@_1M@OPIHOOPI@?$AAm?$AAs?$AA?9?$AAm?$AAy@ 000000014005ed48     libucrtd:lcidtoname_downlevel.obj
 0002:0000fd58       ??_C@_1M@PPDBCNFM@?$AAm?$AAt?$AA?9?$AAm?$AAt@ 000000014005ed58     libucrtd:lcidtoname_downlevel.obj
 0002:0000fd68       ??_C@_1M@KDJDKMDD@?$AAn?$AAb?$AA?9?$AAn?$AAo@ 000000014005ed68     libucrtd:lcidtoname_downlevel.obj
 0002:0000fd78       ??_C@_1M@KFCFLMJP@?$AAn?$AAl?$AA?9?$AAb?$AAe@ 000000014005ed78     libucrtd:lcidtoname_downlevel.obj
 0002:0000fd88       ??_C@_1M@KPOPDDGO@?$AAn?$AAl?$AA?9?$AAn?$AAl@ 000000014005ed88     libucrtd:lcidtoname_downlevel.obj
 0002:0000fd98       ??_C@_1M@LJKPEMLN@?$AAn?$AAn?$AA?9?$AAn?$AAo@ 000000014005ed98     libucrtd:lcidtoname_downlevel.obj
 0002:0000fda8       ??_C@_1M@BDGHHBFL@?$AAn?$AAs?$AA?9?$AAz?$AAa@ 000000014005eda8     libucrtd:lcidtoname_downlevel.obj
 0002:0000fdb8       ??_C@_1M@IDEHOAP@?$AAp?$AAa?$AA?9?$AAi?$AAn@ 000000014005edb8     libucrtd:lcidtoname_downlevel.obj
 0002:0000fdc8       ??_C@_1M@HDBKGOGH@?$AAp?$AAl?$AA?9?$AAp?$AAl@ 000000014005edc8     libucrtd:lcidtoname_downlevel.obj
 0002:0000fdd8       ??_C@_1M@LJLLCMEH@?$AAp?$AAt?$AA?9?$AAb?$AAr@ 000000014005edd8     libucrtd:lcidtoname_downlevel.obj
 0002:0000fde8       ??_C@_1M@NCMONAAL@?$AAp?$AAt?$AA?9?$AAp?$AAt@ 000000014005ede8     libucrtd:lcidtoname_downlevel.obj
 0002:0000fdf8       ??_C@_1O@EAKMAJDN@?$AAq?$AAu?$AAz?$AA?9?$AAb?$AAo@ 000000014005edf8     libucrtd:lcidtoname_downlevel.obj
 0002:0000fe08       ??_C@_1O@BHHPIGDN@?$AAq?$AAu?$AAz?$AA?9?$AAe?$AAc@ 000000014005ee08     libucrtd:lcidtoname_downlevel.obj
 0002:0000fe18       ??_C@_1O@GBAPEKMJ@?$AAq?$AAu?$AAz?$AA?9?$AAp?$AAe@ 000000014005ee18     libucrtd:lcidtoname_downlevel.obj
 0002:0000fe28       ??_C@_1M@CLGLEFBO@?$AAr?$AAo?$AA?9?$AAr?$AAo@ 000000014005ee28     libucrtd:lcidtoname_downlevel.obj
 0002:0000fe38       ??_C@_1M@CEEDODME@?$AAr?$AAu?$AA?9?$AAr?$AAu@ 000000014005ee38     libucrtd:lcidtoname_downlevel.obj
 0002:0000fe48       ??_C@_1M@HPKKKMPP@?$AAs?$AAa?$AA?9?$AAi?$AAn@ 000000014005ee48     libucrtd:lcidtoname_downlevel.obj
 0002:0000fe58       ??_C@_1M@BKMAIGOJ@?$AAs?$AAe?$AA?9?$AAf?$AAi@ 000000014005ee58     libucrtd:lcidtoname_downlevel.obj
 0002:0000fe68       ??_C@_1M@NDPIFLFI@?$AAs?$AAe?$AA?9?$AAn?$AAo@ 000000014005ee68     libucrtd:lcidtoname_downlevel.obj
 0002:0000fe78       ??_C@_1M@DANKKHJ@?$AAs?$AAe?$AA?9?$AAs?$AAe@ 000000014005ee78     libucrtd:lcidtoname_downlevel.obj
 0002:0000fe88       ??_C@_1M@PNBLONPJ@?$AAs?$AAk?$AA?9?$AAs?$AAk@ 000000014005ee88     libucrtd:lcidtoname_downlevel.obj
 0002:0000fe98       ??_C@_1M@LFMODOAL@?$AAs?$AAl?$AA?9?$AAs?$AAi@ 000000014005ee98     libucrtd:lcidtoname_downlevel.obj
 0002:0000fea8       ??_C@_1O@DFKOMPG@?$AAs?$AAm?$AAa?$AA?9?$AAn?$AAo@ 000000014005eea8     libucrtd:lcidtoname_downlevel.obj
 0002:0000feb8       ??_C@_1O@NDKPBNNH@?$AAs?$AAm?$AAa?$AA?9?$AAs?$AAe@ 000000014005eeb8     libucrtd:lcidtoname_downlevel.obj
 0002:0000fec8       ??_C@_1O@PLLKBHAB@?$AAs?$AAm?$AAj?$AA?9?$AAn?$AAo@ 000000014005eec8     libucrtd:lcidtoname_downlevel.obj
 0002:0000fed8       ??_C@_1O@CLEPOGCA@?$AAs?$AAm?$AAj?$AA?9?$AAs?$AAe@ 000000014005eed8     libucrtd:lcidtoname_downlevel.obj
 0002:0000fee8       ??_C@_1O@DLGJGKMK@?$AAs?$AAm?$AAn?$AA?9?$AAf?$AAi@ 000000014005eee8     libucrtd:lcidtoname_downlevel.obj
 0002:0000fef8       ??_C@_1O@OJDJGAJC@?$AAs?$AAm?$AAs?$AA?9?$AAf?$AAi@ 000000014005eef8     libucrtd:lcidtoname_downlevel.obj
 0002:0000ff08       ??_C@_1M@BOFOGHPB@?$AAs?$AAq?$AA?9?$AAa?$AAl@ 000000014005ef08     libucrtd:lcidtoname_downlevel.obj
 0002:0000ff18       ??_C@_1BG@LJBBIPGB@?$AAs?$AAr?$AA?9?$AAb?$AAa?$AA?9?$AAc?$AAy?$AAr?$AAl@ 000000014005ef18     libucrtd:lcidtoname_downlevel.obj
 0002:0000ff30       ??_C@_1BG@JLBENFOE@?$AAs?$AAr?$AA?9?$AAb?$AAa?$AA?9?$AAl?$AAa?$AAt?$AAn@ 000000014005ef30     libucrtd:lcidtoname_downlevel.obj
 0002:0000ff48       ??_C@_1BG@KODPNHE@?$AAs?$AAr?$AA?9?$AAs?$AAp?$AA?9?$AAc?$AAy?$AAr?$AAl@ 000000014005ef48     libucrtd:lcidtoname_downlevel.obj
 0002:0000ff60       ??_C@_1BG@CIOGKHPB@?$AAs?$AAr?$AA?9?$AAs?$AAp?$AA?9?$AAl?$AAa?$AAt?$AAn@ 000000014005ef60     libucrtd:lcidtoname_downlevel.obj
 0002:0000ff78       ??_C@_1M@NGFJLMAC@?$AAs?$AAv?$AA?9?$AAf?$AAi@ 000000014005ef78     libucrtd:lcidtoname_downlevel.obj
 0002:0000ff88       ??_C@_1M@MPJEJAJC@?$AAs?$AAv?$AA?9?$AAs?$AAe@ 000000014005ef88     libucrtd:lcidtoname_downlevel.obj
 0002:0000ff98       ??_C@_1M@MPNDHLFK@?$AAs?$AAw?$AA?9?$AAk?$AAe@ 000000014005ef98     libucrtd:lcidtoname_downlevel.obj
 0002:0000ffa8       ??_C@_1O@KOHBJJI@?$AAs?$AAy?$AAr?$AA?9?$AAs?$AAy@ 000000014005efa8     libucrtd:lcidtoname_downlevel.obj
 0002:0000ffb8       ??_C@_1M@LDCEFHA@?$AAt?$AAa?$AA?9?$AAi?$AAn@ 000000014005efb8     libucrtd:lcidtoname_downlevel.obj
 0002:0000ffc8       ??_C@_1M@CNJOFAK@?$AAt?$AAe?$AA?9?$AAi?$AAn@ 000000014005efc8     libucrtd:lcidtoname_downlevel.obj
 0002:0000ffd8       ??_C@_1M@GNAECACD@?$AAt?$AAh?$AA?9?$AAt?$AAh@ 000000014005efd8     libucrtd:lcidtoname_downlevel.obj
 0002:0000ffe8       ??_C@_1M@CHBIHOJO@?$AAt?$AAn?$AA?9?$AAz?$AAa@ 000000014005efe8     libucrtd:lcidtoname_downlevel.obj
 0002:0000fff8       ??_C@_1M@GCCMIGPJ@?$AAt?$AAr?$AA?9?$AAt?$AAr@ 000000014005eff8     libucrtd:lcidtoname_downlevel.obj
 0002:00010008       ??_C@_1M@CELMCNBK@?$AAt?$AAt?$AA?9?$AAr?$AAu@ 000000014005f008     libucrtd:lcidtoname_downlevel.obj
 0002:00010018       ??_C@_1M@KLMCELGA@?$AAu?$AAk?$AA?9?$AAu?$AAa@ 000000014005f018     libucrtd:lcidtoname_downlevel.obj
 0002:00010028       ??_C@_1M@EPAJJAJF@?$AAu?$AAr?$AA?9?$AAp?$AAk@ 000000014005f028     libucrtd:lcidtoname_downlevel.obj
 0002:00010038       ??_C@_1BG@GEGPMCDJ@?$AAu?$AAz?$AA?9?$AAu?$AAz?$AA?9?$AAc?$AAy?$AAr?$AAl@ 000000014005f038     libucrtd:lcidtoname_downlevel.obj
 0002:00010050       ??_C@_1BG@EGGKJILM@?$AAu?$AAz?$AA?9?$AAu?$AAz?$AA?9?$AAl?$AAa?$AAt?$AAn@ 000000014005f050     libucrtd:lcidtoname_downlevel.obj
 0002:00010068       ??_C@_1M@GFOCLFF@?$AAv?$AAi?$AA?9?$AAv?$AAn@ 000000014005f068     libucrtd:lcidtoname_downlevel.obj
 0002:00010078       ??_C@_1M@CPAMEDFI@?$AAx?$AAh?$AA?9?$AAz?$AAa@ 000000014005f078     libucrtd:lcidtoname_downlevel.obj
 0002:00010088       ??_C@_1O@EBKIFIGN@?$AAz?$AAh?$AA?9?$AAc?$AAh?$AAs@ 000000014005f088     libucrtd:lcidtoname_downlevel.obj
 0002:00010098       ??_C@_1O@NMHPGANE@?$AAz?$AAh?$AA?9?$AAc?$AAh?$AAt@ 000000014005f098     libucrtd:lcidtoname_downlevel.obj
 0002:000100a8       ??_C@_1M@LPINJOMC@?$AAz?$AAh?$AA?9?$AAc?$AAn@ 000000014005f0a8     libucrtd:lcidtoname_downlevel.obj
 0002:000100b8       ??_C@_1M@OCJEJODD@?$AAz?$AAh?$AA?9?$AAh?$AAk@ 000000014005f0b8     libucrtd:lcidtoname_downlevel.obj
 0002:000100c8       ??_C@_1M@DNDLJINH@?$AAz?$AAh?$AA?9?$AAm?$AAo@ 000000014005f0c8     libucrtd:lcidtoname_downlevel.obj
 0002:000100d8       ??_C@_1M@MBFDNDND@?$AAz?$AAh?$AA?9?$AAs?$AAg@ 000000014005f0d8     libucrtd:lcidtoname_downlevel.obj
 0002:000100e8       ??_C@_1M@IMEPLEPE@?$AAz?$AAh?$AA?9?$AAt?$AAw@ 000000014005f0e8     libucrtd:lcidtoname_downlevel.obj
 0002:000100f8       ??_C@_1M@BBGHNHJP@?$AAz?$AAu?$AA?9?$AAz?$AAa@ 000000014005f0f8     libucrtd:lcidtoname_downlevel.obj
 0002:00010130       ??_C@_1GA@MPOOLHCO@?$AAm?$AAi?$AAn?$AAk?$AAe?$AAr?$AAn?$AAe?$AAl?$AA?2?$AAc?$AAr?$AAt?$AAs?$AA?2@ 000000014005f130     libucrtd:commit.obj
 0002:00010190       ??_C@_1BA@FLNMBBIM@?$AA_?$AAc?$AAo?$AAm?$AAm?$AAi?$AAt@ 000000014005f190     libucrtd:commit.obj
 0002:000101a0       ??_C@_1BO@JGGHCINF@?$AAl?$AAh?$AAs?$AA?5?$AA?$CB?$AA?$DN?$AA?5?$AAn?$AAu?$AAl?$AAl?$AAp?$AAt?$AAr@ 000000014005f1a0     libucrtd:wcsnicmp.obj
 0002:000101c0       ??_C@_1BO@FHLPEAOG@?$AAr?$AAh?$AAs?$AA?5?$AA?$CB?$AA?$DN?$AA?5?$AAn?$AAu?$AAl?$AAl?$AAp?$AAt?$AAr@ 000000014005f1c0     libucrtd:wcsnicmp.obj
 0002:000101e0       ??_C@_1GG@FIFJEMIA@?$AAm?$AAi?$AAn?$AAk?$AAe?$AAr?$AAn?$AAe?$AAl?$AA?2?$AAc?$AAr?$AAt?$AAs?$AA?2@ 000000014005f1e0     libucrtd:strnicmp.obj
 0002:00010248       ??_C@_1BI@BJLEPLEF@?$AA_?$AAs?$AAt?$AAr?$AAn?$AAi?$AAc?$AAm?$AAp?$AA_?$AAl@ 000000014005f248     libucrtd:strnicmp.obj
 0002:00010260       ??_C@_1CC@JLPHKJPH@?$AAc?$AAo?$AAu?$AAn?$AAt?$AA?5?$AA?$DM?$AA?$DN?$AA?5?$AAI?$AAN?$AAT?$AA_?$AAM?$AAA@ 000000014005f260     libucrtd:strnicmp.obj
 0002:00010288       ??_C@_1BE@BHJDFFNA@?$AA_?$AAs?$AAt?$AAr?$AAn?$AAi?$AAc?$AAm?$AAp@ 000000014005f288     libucrtd:strnicmp.obj
 0002:000102a0       ??_C@_1DC@MDAAFACM@?$AA?$CI?$AA?$CC?$AAI?$AAn?$AAv?$AAa?$AAl?$AAi?$AAd?$AA?5?$AAo?$AAp?$AAe?$AAn?$AA?5@ 000000014005f2a0     libucrtd:open.obj
 0002:000102e0       ??_C@_1FM@EFELGMIP@?$AAm?$AAi?$AAn?$AAk?$AAe?$AAr?$AAn?$AAe?$AAl?$AA?2?$AAc?$AAr?$AAt?$AAs?$AA?2@ 000000014005f2e0     libucrtd:open.obj
 0002:00010340       ??_C@_1CI@CBNKIJOA@?$AAd?$AAe?$AAc?$AAo?$AAd?$AAe?$AA_?$AAa?$AAc?$AAc?$AAe?$AAs?$AAs?$AA_?$AAf@ 000000014005f340     libucrtd:open.obj
 0002:00010368       ??_C@_1DC@MNGJFJEL@?$AAd?$AAe?$AAc?$AAo?$AAd?$AAe?$AA_?$AAo?$AAp?$AAe?$AAn?$AA_?$AAc?$AAr?$AAe@ 000000014005f368     libucrtd:open.obj
 0002:000103a0       ??_C@_1DI@OAOBKLOM@?$AA?$CI?$AA?$CC?$AAI?$AAn?$AAv?$AAa?$AAl?$AAi?$AAd?$AA?5?$AAs?$AAh?$AAa?$AAr?$AAi@ 000000014005f3a0     libucrtd:open.obj
 0002:000103d8       ??_C@_1CK@LFHOGGAL@?$AAd?$AAe?$AAc?$AAo?$AAd?$AAe?$AA_?$AAs?$AAh?$AAa?$AAr?$AAi?$AAn?$AAg?$AA_@ 000000014005f3d8     libucrtd:open.obj
 0002:00010408       ??_C@_1BK@MIHMAFGB@?$AAi?$AAs?$AA_?$AAt?$AAe?$AAx?$AAt?$AA_?$AAm?$AAo?$AAd?$AAe@ 000000014005f408     libucrtd:open.obj
 0002:00010428       ??_C@_1CG@ICBEBDJJ@?$AA_?$AAg?$AAe?$AAt?$AA_?$AAf?$AAm?$AAo?$AAd?$AAe?$AA?$CI?$AA?$CG?$AAf?$AAm?$AAo@ 000000014005f428     libucrtd:open.obj
 0002:00010450       ??_C@_1CI@FIBMFMKJ@?$AAc?$AAo?$AAn?$AAf?$AAi?$AAg?$AAu?$AAr?$AAe?$AA_?$AAt?$AAe?$AAx?$AAt?$AA_@ 000000014005f450     libucrtd:open.obj
 0002:00010478       ??_C@_1DM@GAGCJPHI@?$AA?$CI?$AAo?$AAf?$AAl?$AAa?$AAg?$AA?5?$AA?$CG?$AA?5?$AAt?$AAe?$AAx?$AAt?$AA_?$AAm@ 000000014005f478     libucrtd:open.obj
 0002:000104b8       ??_C@_1CM@IDLMKMPG@?$AA0?$AA?5?$AA?$CG?$AA?$CG?$AA?5?$AA?$CC?$AAI?$AAn?$AAt?$AAe?$AAr?$AAn?$AAa?$AAl?$AA?5@ 000000014005f4b8     libucrtd:open.obj
 0002:000104f0       ??_C@_1IA@IENOJNJF@?$AA0?$AA?5?$AA?$CG?$AA?$CG?$AA?5?$AA?$CC?$AAO?$AAn?$AAl?$AAy?$AA?5?$AAU?$AAT?$AAF?$AA?9@ 000000014005f4f0     libucrtd:open.obj
 0002:00010570       ??_C@_1CA@DFHJGMAL@?$AAp?$AAa?$AAt?$AAh?$AA?5?$AA?$CB?$AA?$DN?$AA?5?$AAn?$AAu?$AAl?$AAl?$AAp?$AAt?$AAr@ 000000014005f570     libucrtd:open.obj
 0002:00010590       ??_C@_1BO@CKEBPLGM@?$AAp?$AAf?$AAh?$AA?5?$AA?$CB?$AA?$DN?$AA?5?$AAn?$AAu?$AAl?$AAl?$AAp?$AAt?$AAr@ 000000014005f590     libucrtd:open.obj
 0002:000105b0       ??_C@_1CM@DJGGMBLF@?$AAc?$AAo?$AAm?$AAm?$AAo?$AAn?$AA_?$AAs?$AAo?$AAp?$AAe?$AAn?$AA_?$AAd?$AAi@ 000000014005f5b0     libucrtd:open.obj
 0002:000105e0       ??_C@_1FC@KMHFBDGJ@?$AA?$CI?$AAp?$AAm?$AAo?$AAd?$AAe?$AA?5?$AA?$CG?$AA?5?$AA?$CI?$AA?$HO?$AA?$CI?$AA_?$AAS?$AA_@ 000000014005f5e0     libucrtd:open.obj
 0002:00010640       ??_C@_1GA@DEPMKPD@?$AAm?$AAi?$AAn?$AAk?$AAe?$AAr?$AAn?$AAe?$AAl?$AA?2?$AAc?$AAr?$AAt?$AAs?$AA?2@ 000000014005f640     libucrtd:isatty.obj
 0002:000106a0       ??_C@_1BA@LEBDGIHM@?$AA_?$AAi?$AAs?$AAa?$AAt?$AAt?$AAy@ 000000014005f6a0     libucrtd:isatty.obj
 0002:000106b0       ??_C@_1GC@DLDMJFMI@?$AAm?$AAi?$AAn?$AAk?$AAe?$AAr?$AAn?$AAe?$AAl?$AA?2?$AAc?$AAr?$AAt?$AAs?$AA?2@ 000000014005f6b0     libucrtd:_getbuf.obj
 0002:00010718       ??_C@_0DB@LKJPMJPL@minkernel?2crts?2ucrt?2src?2appcrt?2@ 000000014005f718     libucrtd:_getbuf.obj
 0002:00010750       ??_C@_1GG@MCCIENJO@?$AAm?$AAi?$AAn?$AAk?$AAe?$AAr?$AAn?$AAe?$AAl?$AA?2?$AAc?$AAr?$AAt?$AAs?$AA?2@ 000000014005f750     libucrtd:mbrtowc.obj
 0002:000107c0       ??_C@_1EK@MCEFBPIK@?$AAr?$AAe?$AAt?$AAv?$AAa?$AAl?$AA?5?$AA?$CB?$AA?$DN?$AA?5?$AA_?$AA_?$AAc?$AAr?$AAt@ 000000014005f7c0     libucrtd:mbrtowc.obj
 0002:00010810       ??_C@_1GI@IMEEHIAK@?$AAm?$AAi?$AAn?$AAk?$AAe?$AAr?$AAn?$AAe?$AAl?$AA?2?$AAc?$AAr?$AAt?$AAs?$AA?2@ 000000014005f810     libucrtd:_fptostr.obj
 0002:00010878       ??_C@_1DG@NMGBKPMI@?$AA_?$AA_?$AAa?$AAc?$AAr?$AAt?$AA_?$AAf?$AAp?$AA_?$AAs?$AAt?$AAr?$AAf?$AAl@ 000000014005f878     libucrtd:_fptostr.obj
 0002:000108b0       ??_C@_1CC@ONIJBMJF@?$AAb?$AAu?$AAf?$AAf?$AAe?$AAr?$AA_?$AAc?$AAo?$AAu?$AAn?$AAt?$AA?5?$AA?$DO?$AA?5@ 000000014005f8b0     libucrtd:_fptostr.obj
 0002:000108e0       ??_C@_1IE@EAOKIIFP@?$AAb?$AAu?$AAf?$AAf?$AAe?$AAr?$AA_?$AAc?$AAo?$AAu?$AAn?$AAt?$AA?5?$AA?$DO?$AA?5@ 000000014005f8e0     libucrtd:_fptostr.obj
 0002:00010968       ??_C@_1CA@EDEEBMBB@?$AAp?$AAf?$AAl?$AAt?$AA?5?$AA?$CB?$AA?$DN?$AA?5?$AAn?$AAu?$AAl?$AAl?$AAp?$AAt?$AAr@ 000000014005f968     libucrtd:_fptostr.obj
 0002:00010990       ?large_power_data@?1??multiply_by_power_of_ten@__crt_strtox@@YA_NAEAUbig_integer@2@I@Z@4QBIB 000000014005f990     libucrtd:cfout.obj
 0002:000112a0       ?large_power_indices@?1??multiply_by_power_of_ten@__crt_strtox@@YA_NAEAUbig_integer@2@I@Z@4QBUunpack_index@?1??12@YA_N0I@Z@B 00000001400602a0     libucrtd:cfout.obj
 0002:00011338       ?small_powers_of_ten@?1??multiply_by_power_of_ten@__crt_strtox@@YA_NAEAUbig_integer@2@I@Z@4QBIB 0000000140060338     libucrtd:cfout.obj
 0002:00011360       ??_C@_1DI@GICAMMFM@?$AA?$CI?$AA?$CC?$AAD?$AAi?$AAv?$AAi?$AAs?$AAi?$AAo?$AAn?$AA?5?$AAb?$AAy?$AA?5?$AAz@ 0000000140060360     libucrtd:cfout.obj
 0002:000113a0       ??_C@_1GO@BFGDDONN@?$AAm?$AAi?$AAn?$AAk?$AAe?$AAr?$AAn?$AAe?$AAl?$AA?2?$AAc?$AAr?$AAt?$AAs?$AA?2@ 00000001400603a0     libucrtd:cfout.obj
 0002:00011410       ??_C@_1GC@DDAKNBNC@?$AAm?$AAi?$AAn?$AAk?$AAe?$AAr?$AAn?$AAe?$AAl?$AA?2?$AAc?$AAr?$AAt?$AAs?$AA?2@ 0000000140060410     libucrtd:cfout.obj
 0002:00011478       ??_C@_1BM@FAAOAKKO@?$AA_?$AA_?$AAa?$AAc?$AAr?$AAt?$AA_?$AAf?$AAl?$AAt?$AAo?$AAu?$AAt@ 0000000140060478     libucrtd:cfout.obj
 0002:000114a0       ??_C@_1EI@OACEJKEP@?$AAs?$AAt?$AAr?$AAc?$AAp?$AAy?$AA_?$AAs?$AA?$CI?$AAr?$AAe?$AAs?$AAu?$AAl?$AAt@ 00000001400604a0     libucrtd:cfout.obj
 0002:000114e8       ??_C@_01GBGANLPD@0@        00000001400604e8     libucrtd:cfout.obj
 0002:000114f0       ??_C@_1FC@KIECGFMP@?$AAs?$AAt?$AAr?$AAc?$AAp?$AAy?$AA_?$AAs?$AA?$CI?$AAr?$AAe?$AAs?$AAu?$AAl?$AAt@ 00000001400604f0     libucrtd:cfout.obj
 0002:00011544       ??_C@_05DNEBIAHO@1?$CDINF@ 0000000140060544     libucrtd:cfout.obj
 0002:00011550       ??_C@_1FC@NFPJEIBD@?$AAs?$AAt?$AAr?$AAc?$AAp?$AAy?$AA_?$AAs?$AA?$CI?$AAr?$AAe?$AAs?$AAu?$AAl?$AAt@ 0000000140060550     libucrtd:cfout.obj
 0002:000115a4       ??_C@_06IMKFLFPG@1?$CDQNAN@ 00000001400605a4     libucrtd:cfout.obj
 0002:000115b0       ??_C@_1FC@DEJHIMLO@?$AAs?$AAt?$AAr?$AAc?$AAp?$AAy?$AA_?$AAs?$AA?$CI?$AAr?$AAe?$AAs?$AAu?$AAl?$AAt@ 00000001400605b0     libucrtd:cfout.obj
 0002:00011604       ??_C@_06PGGFOGJG@1?$CDSNAN@ 0000000140060604     libucrtd:cfout.obj
 0002:00011610       ??_C@_1FC@KMLHLFPC@?$AAs?$AAt?$AAr?$AAc?$AAp?$AAy?$AA_?$AAs?$AA?$CI?$AAr?$AAe?$AAs?$AAu?$AAl?$AAt@ 0000000140060610     libucrtd:cfout.obj
 0002:00011664       ??_C@_05PHHOCPM@1?$CDIND@  0000000140060664     libucrtd:cfout.obj
 0002:00011670       ??_C@_1DE@KHKADFOO@?$AAm?$AAa?$AAn?$AAt?$AAi?$AAs?$AAs?$AAa?$AA_?$AAb?$AAu?$AAf?$AAf?$AAe?$AAr@ 0000000140060670     libucrtd:cfout.obj
 0002:000116b0       ??_C@_1FI@LFKLOPAC@?$AA?$CI?$AA?$CC?$AAu?$AAn?$AAe?$AAx?$AAp?$AAe?$AAc?$AAt?$AAe?$AAd?$AA?5?$AAi?$AAn@ 00000001400606b0     libucrtd:cfout.obj
 0002:00011710       ??_C@_1FG@MLHBDPBG@?$AAq?$AAu?$AAo?$AAt?$AAi?$AAe?$AAn?$AAt?$AA?5?$AA?$DM?$AA?5?$AAd?$AAi?$AAg?$AAi@ 0000000140060710     libucrtd:cfout.obj
 0002:00011770       ??_C@_1EK@OANGPA@?$AA1?$AA?5?$AA?$DM?$AA?$DN?$AA?5?$AAt?$AAr?$AAa?$AAi?$AAl?$AA_?$AAb?$AAy?$AAt?$AAe@ 0000000140060770     libucrtd:c32rtomb.obj
 0002:000117c0       ??_C@_1GI@FBFKMNDD@?$AAm?$AAi?$AAn?$AAk?$AAe?$AAr?$AAn?$AAe?$AAl?$AA?2?$AAc?$AAr?$AAt?$AAs?$AA?2@ 00000001400607c0     libucrtd:c32rtomb.obj
 0002:00011830       ??_C@_1EA@DDDCIHI@?$AAc?$AA3?$AA2?$AA?5?$AA?$DM?$AA?5?$AA?$CI?$AA1?$AAu?$AA?5?$AA?$DM?$AA?$DM?$AA?5?$AA?$CI?$AA7@ 0000000140060830     libucrtd:c32rtomb.obj
 0002:00011898       ??_C@_1DI@OOEEHOBJ@?$AAb?$AAa?$AAs?$AAe?$AA?5?$AA?$CB?$AA?$DN?$AA?5?$AAn?$AAu?$AAl?$AAl?$AAp?$AAt?$AAr@ 0000000140060898     libucrtd:qsort.obj
 0002:000118d0       ??_C@_1GA@KPPCKKGE@?$AAm?$AAi?$AAn?$AAk?$AAe?$AAr?$AAn?$AAe?$AAl?$AA?2?$AAc?$AAr?$AAt?$AAs?$AA?2@ 00000001400608d0     libucrtd:qsort.obj
 0002:00011930       ??_C@_1M@INMHODIG@?$AAq?$AAs?$AAo?$AAr?$AAt@ 0000000140060930     libucrtd:qsort.obj
 0002:00011940       ??_C@_1BE@NJBEBBME@?$AAw?$AAi?$AAd?$AAt?$AAh?$AA?5?$AA?$DO?$AA?5?$AA0@ 0000000140060940     libucrtd:qsort.obj
 0002:00011958       ??_C@_1CA@LIDFOMIN@?$AAc?$AAo?$AAm?$AAp?$AA?5?$AA?$CB?$AA?$DN?$AA?5?$AAn?$AAu?$AAl?$AAl?$AAp?$AAt?$AAr@ 0000000140060958     libucrtd:qsort.obj
 0002:00011978       ??_C@_1CE@BLLJFLOH@?$AAs?$AAt?$AAr?$AAi?$AAn?$AAg?$AA?5?$AA?$CB?$AA?$DN?$AA?5?$AAn?$AAu?$AAl?$AAl?$AAp@ 0000000140060978     libucrtd:mbsdec.obj
 0002:000119a0       ??_C@_1GO@DDOMFNGF@?$AAm?$AAi?$AAn?$AAk?$AAe?$AAr?$AAn?$AAe?$AAl?$AA?2?$AAc?$AAr?$AAt?$AAs?$AA?2@ 00000001400609a0     libucrtd:mbsdec.obj
 0002:00011a10       ??_C@_1BE@KLNCOLCD@?$AA_?$AAm?$AAb?$AAs?$AAd?$AAe?$AAc?$AA_?$AAl@ 0000000140060a10     libucrtd:mbsdec.obj
 0002:00011a28       ??_C@_1CG@CMGPGAOD@?$AAc?$AAu?$AAr?$AAr?$AAe?$AAn?$AAt?$AA?5?$AA?$CB?$AA?$DN?$AA?5?$AAn?$AAu?$AAl?$AAl@ 0000000140060a28     libucrtd:mbsdec.obj
 0002:00011a50       ??_C@_0DH@IKPCBLP@minkernel?2crts?2ucrt?2src?2appcrt?2@ 0000000140060a50     libucrtd:lcmapstringa.obj
 0002:00011a88       ??_C@_1CI@CCKDLILB@?$AA_?$AAs?$AAt?$AAr?$AAi?$AAn?$AAg?$AA1?$AA?5?$AA?$CB?$AA?$DN?$AA?5?$AAn?$AAu?$AAl@ 0000000140060a88     libucrtd:wcsnicol.obj
 0002:00011ab0       ??_C@_1CI@NAPEFFEJ@?$AA_?$AAs?$AAt?$AAr?$AAi?$AAn?$AAg?$AA2?$AA?5?$AA?$CB?$AA?$DN?$AA?5?$AAn?$AAu?$AAl@ 0000000140060ab0     libucrtd:wcsnicol.obj
 0002:00011ae0       ??_C@_1GG@LACFCIFA@?$AAm?$AAi?$AAn?$AAk?$AAe?$AAr?$AAn?$AAe?$AAl?$AA?2?$AAc?$AAr?$AAt?$AAs?$AA?2@ 0000000140060ae0     libucrtd:strnicol.obj
 0002:00011b48       ??_C@_1BK@IOJEBPLP@?$AA_?$AAs?$AAt?$AAr?$AAn?$AAi?$AAc?$AAo?$AAl?$AAl?$AA_?$AAl@ 0000000140060b48     libucrtd:strnicol.obj
 0002:00011b70       ??_C@_1GA@HBEFGMHK@?$AAm?$AAi?$AAn?$AAk?$AAe?$AAr?$AAn?$AAe?$AAl?$AA?2?$AAc?$AAr?$AAt?$AAs?$AA?2@ 0000000140060b70     libucrtd:xtoa.obj
 0002:00011bd0       ??_C@_1BM@HMPEMLNP@?$AAc?$AAo?$AAm?$AAm?$AAo?$AAn?$AA_?$AAx?$AAt?$AAo?$AAx?$AA_?$AAs@ 0000000140060bd0     libucrtd:xtoa.obj
 0002:00011bf0       ??_C@_1HA@JFIOFNKD@?$AAb?$AAu?$AAf?$AAf?$AAe?$AAr?$AA_?$AAc?$AAo?$AAu?$AAn?$AAt?$AA?5?$AA?$DO?$AA?5@ 0000000140060bf0     libucrtd:xtoa.obj
 0002:00011c60       ??_C@_1DE@PCJGDBBD@?$AA2?$AA?5?$AA?$DM?$AA?$DN?$AA?5?$AAr?$AAa?$AAd?$AAi?$AAx?$AA?5?$AA?$CG?$AA?$CG?$AA?5?$AAr@ 0000000140060c60     libucrtd:xtoa.obj
 0002:00011c98       ??_C@_1CM@LONILNIJ@?$AAl?$AAe?$AAn?$AAg?$AAt?$AAh?$AA?5?$AA?$DM?$AA?5?$AAb?$AAu?$AAf?$AAf?$AAe?$AAr@ 0000000140060c98     libucrtd:xtoa.obj
 0002:00011cc8       ??_C@_1BI@OLPLFKOE@?$AAc?$AAo?$AAm?$AAm?$AAo?$AAn?$AA_?$AAx?$AAt?$AAo?$AAx@ 0000000140060cc8     libucrtd:xtoa.obj
 0002:00011d08       ??_C@_1BK@FPAMLIDG@?$AAs?$AA?5?$AA?$CB?$AA?$DN?$AA?5?$AAn?$AAu?$AAl?$AAl?$AAp?$AAt?$AAr@ 0000000140060d08     libucrtd:mbstowcs.obj
 0002:00011d30       ??_C@_1GI@KABMHNPH@?$AAm?$AAi?$AAn?$AAk?$AAe?$AAr?$AAn?$AAe?$AAl?$AA?2?$AAc?$AAr?$AAt?$AAs?$AA?2@ 0000000140060d30     libucrtd:mbstowcs.obj
 0002:00011d98       ??_C@_1CG@JEHFHLNG@?$AA_?$AAm?$AAb?$AAs?$AAt?$AAo?$AAw?$AAc?$AAs?$AA_?$AAl?$AA_?$AAh?$AAe?$AAl@ 0000000140060d98     libucrtd:mbstowcs.obj
 0002:00011dc0       ??_C@_1JM@MEKBACIG@?$AA?$CI?$AAp?$AAw?$AAc?$AAs?$AA?5?$AA?$DN?$AA?$DN?$AA?5?$AAn?$AAu?$AAl?$AAl?$AAp?$AAt@ 0000000140060dc0     libucrtd:mbstowcs.obj
 0002:00011e60       ??_C@_1CG@BILJJDPK@?$AA_?$AAm?$AAb?$AAs?$AAt?$AAo?$AAw?$AAc?$AAs?$AA_?$AAi?$AAn?$AAt?$AAe?$AAr@ 0000000140060e60     libucrtd:mbstowcs.obj
 0002:00011e88       ??_C@_1CM@LLECFMFH@?$AAb?$AAu?$AAf?$AAf?$AAe?$AAr?$AAS?$AAi?$AAz?$AAe?$AA?5?$AA?$DM?$AA?$DN?$AA?5?$AAI@ 0000000140060e88     libucrtd:mbstowcs.obj
 0002:00011eb8       ??_C@_1CO@JNPEPJAL@?$AAr?$AAe?$AAt?$AAs?$AAi?$AAz?$AAe?$AA?5?$AA?$DM?$AA?$DN?$AA?5?$AAs?$AAi?$AAz?$AAe@ 0000000140060eb8     libucrtd:mbstowcs.obj
 0002:00011ee8       ??_C@_1CA@NOKNKDIG@?$AAp?$AAw?$AAc?$AAs?$AA?5?$AA?$CB?$AA?$DN?$AA?5?$AAn?$AAu?$AAl?$AAl?$AAp?$AAt?$AAr@ 0000000140060ee8     libucrtd:wcstombs.obj
 0002:00011f10       ??_C@_1GI@EEJDEALP@?$AAm?$AAi?$AAn?$AAk?$AAe?$AAr?$AAn?$AAe?$AAl?$AA?2?$AAc?$AAr?$AAt?$AAs?$AA?2@ 0000000140060f10     libucrtd:wcstombs.obj
 0002:00011f78       ??_C@_1CG@LLJCAOHF@?$AA_?$AAw?$AAc?$AAs?$AAt?$AAo?$AAm?$AAb?$AAs?$AA_?$AAl?$AA_?$AAh?$AAe?$AAl@ 0000000140060f78     libucrtd:wcstombs.obj
 0002:00011fa0       ??_C@_1JI@DFNKFCLG@?$AA?$CI?$AAd?$AAs?$AAt?$AA?5?$AA?$CB?$AA?$DN?$AA?5?$AAn?$AAu?$AAl?$AAl?$AAp?$AAt?$AAr@ 0000000140060fa0     libucrtd:wcstombs.obj
 0002:00012038       ??_C@_1CG@DHFOOGFJ@?$AA_?$AAw?$AAc?$AAs?$AAt?$AAo?$AAm?$AAb?$AAs?$AA_?$AAi?$AAn?$AAt?$AAe?$AAr@ 0000000140061038     libucrtd:wcstombs.obj
 0002:00012060       ??_C@_1CM@KEOGBFLI@?$AAs?$AAi?$AAz?$AAe?$AAI?$AAn?$AAB?$AAy?$AAt?$AAe?$AAs?$AA?5?$AA?$DO?$AA?5?$AAr@ 0000000140061060     libucrtd:wcstombs.obj
 0002:00012090       ??_C@_0DA@IEKPAGFB@minkernel?2crts?2ucrt?2src?2appcrt?2@ 0000000140061090     libucrtd:chsize.obj
 0002:000120e8       ??_C@_1BA@BALFACEM@?$AAC?$AAO?$AAN?$AAO?$AAU?$AAT?$AA$@ 00000001400610e8     libucrtd:initcon.obj
 0002:00012350       __real@3ff0000000000000    0000000140061350     libucrtd:ceil.obj
 0002:00012358       ??_C@_1DG@JNDMIEJL@?$AA?$CI?$AA?$CC?$AAI?$AAn?$AAv?$AAa?$AAl?$AAi?$AAd?$AA?5?$AAi?$AAn?$AAp?$AAu?$AAt@ 0000000140061358     libucrtd:contrlfp.obj
 0002:00012390       ??_C@_1FO@HHLKCIKB@?$AAm?$AAi?$AAn?$AAk?$AAe?$AAr?$AAn?$AAe?$AAl?$AA?2?$AAc?$AAr?$AAt?$AAs?$AA?2@ 0000000140061390     libucrtd:contrlfp.obj
 0002:000123f0       ??_C@_1BK@CDOALEA@?$AA_?$AAc?$AAo?$AAn?$AAt?$AAr?$AAo?$AAl?$AAf?$AAp?$AA_?$AAs@ 00000001400613f0     libucrtd:contrlfp.obj
 0002:00012410       ??_C@_1HK@ELDMAMK@?$AAc?$AAc?$AAh?$AAC?$AAo?$AAu?$AAn?$AAt?$AA1?$AA?$DN?$AA?$DN?$AA0?$AA?5?$AA?$CG?$AA?$CG@ 0000000140061410     libucrtd:comparestringa.obj
 0002:00012490       ??_C@_1HC@NLKDIKED@?$AAm?$AAi?$AAn?$AAk?$AAe?$AAr?$AAn?$AAe?$AAl?$AA?2?$AAc?$AAr?$AAt?$AAs?$AA?2@ 0000000140061490     libucrtd:comparestringa.obj
 0002:00012508       ??_C@_0DJ@MBLHFEOE@minkernel?2crts?2ucrt?2src?2appcrt?2@ 0000000140061508     libucrtd:comparestringa.obj
 0002:00012550       __log10_256_lead           0000000140061550     libucrtd:log10_256_lead_tail_table.obj
 0002:00012d60       __log10_256_tail           0000000140061d60     libucrtd:log10_256_lead_tail_table.obj
 0002:00013570       __log_F_inv_qword          0000000140062570     libucrtd:log_f_inv_qword_table.obj
 0002:00013d80       ??_C@_05HGHHAHAP@log10@    0000000140062d80     libucrtd:log_special.obj
 0002:00013d90       ??_C@_1EK@PDBKILLM@?$AA?$CI?$AAm?$AAa?$AAs?$AAk?$AA?$CG?$AA?$HO?$AA?$CI?$AA_?$AAM?$AAC?$AAW?$AA_?$AAD?$AAN@ 0000000140062d90     libucrtd:ieee.obj
 0002:00013de0       ??_C@_1GC@IEFABLII@?$AAm?$AAi?$AAn?$AAk?$AAe?$AAr?$AAn?$AAe?$AAl?$AA?2?$AAc?$AAr?$AAt?$AAs?$AA?2@ 0000000140062de0     libucrtd:ieee.obj
 0002:00013e68       ??_7type_info@@6B@         0000000140062e68     LIBCMTD:std_type_info_static.obj
 0002:00013e70       __xmm@00000000000000000000000000000000 0000000140062e70     libvcruntimed:strrchr.obj
 0002:00013e80       _load_config_used          0000000140062e80     LIBCMTD:loadcfg.obj
 0002:00014080       ??_R4exception@std@@6B@    0000000140063080     libvcruntimed:frame.obj
 0002:000140a8       ??_R3exception@std@@8      00000001400630a8     libvcruntimed:frame.obj
 0002:000140c0       ??_R2exception@std@@8      00000001400630c0     libvcruntimed:frame.obj
 0002:000140d0       ??_R1A@?0A@EA@exception@std@@8 00000001400630d0     libvcruntimed:frame.obj
 0002:000140f8       ??_R4bad_exception@std@@6B@ 00000001400630f8     libvcruntimed:frame.obj
 0002:00014120       ??_R3bad_exception@std@@8  0000000140063120     libvcruntimed:frame.obj
 0002:00014138       ??_R2bad_exception@std@@8  0000000140063138     libvcruntimed:frame.obj
 0002:00014150       ??_R1A@?0A@EA@bad_exception@std@@8 0000000140063150     libvcruntimed:frame.obj
 0002:00014178       ??_R4type_info@@6B@        0000000140063178     LIBCMTD:std_type_info_static.obj
 0002:000141a0       ??_R3type_info@@8          00000001400631a0     LIBCMTD:std_type_info_static.obj
 0002:000141b8       ??_R2type_info@@8          00000001400631b8     LIBCMTD:std_type_info_static.obj
 0002:000141c8       ??_R1A@?0A@EA@type_info@@8 00000001400631c8     LIBCMTD:std_type_info_static.obj
 0002:000141ec       __volatile_metadata        00000001400631ec     <linker-defined>
 0002:00014648       __rtc_iaa                  0000000140063648     LIBCMTD:initsect.obj
 0002:00014650       __rtc_izz                  0000000140063650     LIBCMTD:initsect.obj
 0002:00014658       __rtc_taa                  0000000140063658     LIBCMTD:initsect.obj
 0002:00014660       __rtc_tzz                  0000000140063660     LIBCMTD:initsect.obj
 0002:00015c08       _TI2?AVbad_exception@std@@ 0000000140064c08     libvcruntimed:frame.obj
 0002:00015c28       _CTA2?AVbad_exception@std@@ 0000000140064c28     libvcruntimed:frame.obj
 0002:00015c40       _CT??_R0?AVbad_exception@std@@@8??0bad_exception@std@@QEAA@AEBV01@@Z24 0000000140064c40     libvcruntimed:frame.obj
 0002:00015c68       _CT??_R0?AVexception@std@@@8??0exception@std@@QEAA@AEBV01@@Z24 0000000140064c68     libvcruntimed:frame.obj
 0002:00015c8c       __IMPORT_DESCRIPTOR_KERNEL32 0000000140064c8c     kernel32:KERNEL32.dll
 0002:00015ca0       __NULL_IMPORT_DESCRIPTOR   0000000140064ca0     kernel32:KERNEL32.dll
 0003:00000000       ?deflate_length_codes@@3PAY01GA 0000000140066000     png.obj
 0003:00000080       ?deflate_distance_codes@@3PAY01GA 0000000140066080     png.obj
 0003:00000100       __security_cookie_complement 0000000140066100     LIBCMTD:gs_cookie.obj
 0003:00000108       __security_cookie          0000000140066108     LIBCMTD:gs_cookie.obj
 0003:00000110       __scrt_native_dllmain_reason 0000000140066110     LIBCMTD:utility.obj
 0003:00000114       __scrt_default_matherr     0000000140066114     LIBCMTD:matherr.obj
 0003:00000118       __isa_available            0000000140066118     LIBCMTD:cpu_disp.obj
 0003:0000011c       __isa_enabled              000000014006611c     LIBCMTD:cpu_disp.obj
 0003:00000120       __memset_fast_string_threshold 0000000140066120     LIBCMTD:cpu_disp.obj
 0003:00000128       __memset_nt_threshold      0000000140066128     LIBCMTD:cpu_disp.obj
 0003:00000140       _iob                       0000000140066140     libucrtd:_file.obj
 0003:0000024c       _crtDbgFlag                000000014006624c     libucrtd:debug_heap.obj
 0003:00000250       _crtBreakAlloc             0000000140066250     libucrtd:debug_heap.obj
 0003:00000260       __abort_behavior           0000000140066260     libucrtd:abort.obj
 0003:00000280       __badioinfo                0000000140066280     libucrtd:ioinit.obj
 0003:000002d0       __acrt_initial_locale_data 00000001400662d0     libucrtd:nlsdata.obj
 0003:00000428       __acrt_initial_locale_pointers 0000000140066428     libucrtd:nlsdata.obj
 0003:00000438       __acrt_wide_c_locale_string 0000000140066438     libucrtd:nlsdata.obj
 0003:00000440       _lookuptrailbytes          0000000140066440     libucrtd:read.obj
 0003:00000550       __acrt_initial_multibyte_data 0000000140066550     libucrtd:mbctype.obj
 0003:00000a90       __acrt_lconv_c             0000000140066a90     libucrtd:localeconv.obj
 0003:00000b28       __acrt_lconv_static_decimal 0000000140066b28     libucrtd:localeconv.obj
 0003:00000b2c       __acrt_lconv_static_W_decimal 0000000140066b2c     libucrtd:localeconv.obj
 0003:00000b30       __globallocalestatus       0000000140066b30     libucrtd:glstatus.obj
 0003:00000b38       _pfnAllocHook              0000000140066b38     libucrtd:debug_heap_hook.obj
 0003:00000b40       _crtAssertBusy             0000000140066b40     libucrtd:dbgrptt.obj
 0003:00000b48       _CrtDbgMode                0000000140066b48     libucrtd:dbgrptt.obj
 0003:00000b58       _CrtDbgFile                0000000140066b58     libucrtd:dbgrptt.obj
 0003:00000b90       _fltused                   0000000140066b90     LIBCMTD:fltused.obj
 0003:00000ba0       ??_R0?AVbad_exception@std@@@8 0000000140066ba0     libvcruntimed:frame.obj
 0003:00000bc8       ??_R0?AVexception@std@@@8  0000000140066bc8     libvcruntimed:frame.obj
 0003:00000bf0       ??_R0?AVtype_info@@@8      0000000140066bf0     LIBCMTD:std_type_info_static.obj
 0003:00000c10       ?_OptionsStorage@?1??__local_stdio_printf_options@@9@4_KA 0000000140066c10     png.obj
 0003:00001190       __scrt_current_native_startup_state 0000000140067190     LIBCMTD:utility.obj
 0003:00001198       __scrt_native_startup_lock 0000000140067198     LIBCMTD:utility.obj
 0003:000011e0       ?__type_info_root_node@@3U__type_info_node@@A 00000001400671e0     LIBCMTD:tncleanup.obj
 0003:000011f0       ?_OptionsStorage@?1??__local_stdio_scanf_options@@9@4_KA 00000001400671f0     LIBCMTD:default_local_stdio_options.obj
 0003:000011f8       __scrt_debugger_hook_flag  00000001400671f8     LIBCMTD:utility_desktop.obj
 0003:000011fc       __favor                    00000001400671fc     LIBCMTD:cpu_disp.obj
 0003:00001200       ?__WinRTOutOfMemoryExceptionCallback@@3P6APEAXXZEA 0000000140067200     libvcruntimed:ehhelpers.obj
 0003:000012c0       ?pArgList@UnDecorator@@0PEAVReplicator@@EA 00000001400672c0     libvcruntimed:undname.obj
 0003:000012c8       ?pZNameList@UnDecorator@@0PEAVReplicator@@EA 00000001400672c8     libvcruntimed:undname.obj
 0003:000012d0       ?pTemplateArgList@UnDecorator@@0PEAVReplicator@@EA 00000001400672d0     libvcruntimed:undname.obj
 0003:000012d8       ?gName@UnDecorator@@0PEBDEB 00000001400672d8     libvcruntimed:undname.obj
 0003:000012e0       ?name@UnDecorator@@0PEBDEB 00000001400672e0     libvcruntimed:undname.obj
 0003:000012e8       ?disableFlags@UnDecorator@@0KA 00000001400672e8     libvcruntimed:undname.obj
 0003:000012ec       ?fExplicitTemplateParams@UnDecorator@@0_NA 00000001400672ec     libvcruntimed:undname.obj
 0003:000012ed       ?fGetTemplateArgumentList@UnDecorator@@0_NA 00000001400672ed     libvcruntimed:undname.obj
 0003:000012f0       ?m_pGetParameter@UnDecorator@@0P6APEADJ@ZEA 00000001400672f0     libvcruntimed:undname.obj
 0003:000012f8       ?m_CHPENameOffset@UnDecorator@@0KA 00000001400672f8     libvcruntimed:undname.obj
 0003:000012fc       ?m_recursionLevel@UnDecorator@@0KA 00000001400672fc     libvcruntimed:undname.obj
 0003:00001368       __pPurecall                0000000140067368     libvcruntimed:purevirt_data.obj
 0003:00001370       _nstream                   0000000140067370     libucrtd:_file.obj
 0003:00001378       __piob                     0000000140067378     libucrtd:_file.obj
 0003:00001380       _cflush                    0000000140067380     libucrtd:_file.obj
 0003:00001ac8       _environ_table             0000000140067ac8     libucrtd:environment_initialization.obj
 0003:00001ad0       _wenviron_table            0000000140067ad0     libucrtd:environment_initialization.obj
 0003:00001ad8       __dcrt_initial_wide_environment 0000000140067ad8     libucrtd:environment_initialization.obj
 0003:00001ae0       __dcrt_initial_narrow_environment 0000000140067ae0     libucrtd:environment_initialization.obj
 0003:00001af8       ?c_exit_complete@?1???R<lambda_6e4b09c48022b2350581041d5f6b0c4c>@@QEBA@XZ@4_NA 0000000140067af8     libucrtd:exit.obj
 0003:00001b00       _pgmptr                    0000000140067b00     libucrtd:argv_data.obj
 0003:00001b08       __argc                     0000000140067b08     libucrtd:argv_data.obj
 0003:00001b10       __argv                     0000000140067b10     libucrtd:argv_data.obj
 0003:00001b18       __wargv                    0000000140067b18     libucrtd:argv_data.obj
 0003:00001b20       _acmdln                    0000000140067b20     libucrtd:argv_data.obj
 0003:00001b28       _wcmdln                    0000000140067b28     libucrtd:argv_data.obj
 0003:00001b30       __acrt_locale_changed_data 0000000140067b30     libucrtd:wsetlocale.obj
 0003:00001b38       _commode                   0000000140067b38     libucrtd:ncommode.obj
 0003:00001b40       __acrt_atexit_table        0000000140067b40     libucrtd:onexit.obj
 0003:00001b58       __acrt_at_quick_exit_table 0000000140067b58     libucrtd:onexit.obj
 0003:00001ba0       _pfnDumpClient             0000000140067ba0     libucrtd:debug_heap.obj
 0003:00001d50       __pioinfo                  0000000140067d50     libucrtd:ioinit.obj
 0003:00002150       _nhandle                   0000000140068150     libucrtd:ioinit.obj
 0003:00002158       __acrt_current_locale_data 0000000140068158     libucrtd:nlsdata.obj
 0003:00002160       __acrt_stdout_buffer       0000000140068160     libucrtd:_sftbuf.obj
 0003:00002168       __acrt_stderr_buffer       0000000140068168     libucrtd:_sftbuf.obj
 0003:00002188       _mbctype                   0000000140068188     libucrtd:mbctype.obj
 0003:00002190       _mbcasemap                 0000000140068190     libucrtd:mbctype.obj
 0003:00002198       __acrt_current_multibyte_data 0000000140068198     libucrtd:mbctype.obj
 0003:000023ec       _fmode                     00000001400683ec     libucrtd:txtmode.obj
 0003:000023f0       __acrt_lconv_static_null   00000001400683f0     libucrtd:localeconv.obj
 0003:000023f4       __acrt_lconv_static_W_null 00000001400683f4     libucrtd:localeconv.obj
 0003:000023f8       __acrt_heap                00000001400683f8     libucrtd:heap_handle.obj
 0003:00002428       _pfnReportHook             0000000140068428     libucrtd:dbgrptt.obj
 0003:00002430       _pReportHookList           0000000140068430     libucrtd:dbgrptt.obj
 0003:00002438       _pReportHookListW          0000000140068438     libucrtd:dbgrptt.obj
 0003:00002440       _umaskval                  0000000140068440     libucrtd:umask.obj
 0003:00002450       __fma3_is_available        0000000140068450     libucrtd:fma3_available.obj
 0003:00002454       __use_fma3_lib             0000000140068454     libucrtd:fma3_available.obj
 0003:00002460       __scrt_ucrt_dll_is_in_use  0000000140068460     <common>
 0003:00002468       __dyn_tls_dtor_callback    0000000140068468     <common>
 0003:00002470       __dyn_tls_init_callback    0000000140068470     <common>

 entry point at        0001:00002960

 Static symbols

 0000:fff91000       .debug$S                   0000000140000000     kernel32:KERNEL32.dll
 0000:fff91000       .debug$S                   0000000140000000     kernel32:KERNEL32.dll
 0000:fff91000       .debug$S                   0000000140000000     kernel32:KERNEL32.dll
 0000:fff91000       .debug$S                   0000000140000000     kernel32:KERNEL32.dll
 0000:fff91000       .debug$S                   0000000140000000     kernel32:KERNEL32.dll
 0000:fff91000       .debug$S                   0000000140000000     kernel32:KERNEL32.dll
 0000:fff91000       .debug$S                   0000000140000000     kernel32:KERNEL32.dll
 0000:fff91000       .debug$S                   0000000140000000     kernel32:KERNEL32.dll
 0000:fff91000       .debug$S                   0000000140000000     kernel32:KERNEL32.dll
 0000:fff91000       .debug$S                   0000000140000000     kernel32:KERNEL32.dll
 0000:fff91000       .debug$S                   0000000140000000     kernel32:KERNEL32.dll
 0000:fff91000       .debug$S                   0000000140000000     kernel32:KERNEL32.dll
 0000:fff91000       .debug$S                   0000000140000000     kernel32:KERNEL32.dll
 0000:fff91000       .debug$S                   0000000140000000     kernel32:KERNEL32.dll
 0000:fff91000       .debug$S                   0000000140000000     kernel32:KERNEL32.dll
 0000:fff91000       .debug$S                   0000000140000000     kernel32:KERNEL32.dll
 0000:fff91000       .debug$S                   0000000140000000     kernel32:KERNEL32.dll
 0000:fff91000       .debug$S                   0000000140000000     kernel32:KERNEL32.dll
 0000:fff91000       .debug$S                   0000000140000000     kernel32:KERNEL32.dll
 0000:fff91000       .debug$S                   0000000140000000     kernel32:KERNEL32.dll
 0000:fff91000       .debug$S                   0000000140000000     kernel32:KERNEL32.dll
 0000:fff91000       .debug$S                   0000000140000000     kernel32:KERNEL32.dll
 0000:fff91000       .debug$S                   0000000140000000     kernel32:KERNEL32.dll
 0000:fff91000       .debug$S                   0000000140000000     kernel32:KERNEL32.dll
 0000:fff91000       .debug$S                   0000000140000000     kernel32:KERNEL32.dll
 0000:fff91000       .debug$S                   0000000140000000     kernel32:KERNEL32.dll
 0000:fff91000       .debug$S                   0000000140000000     kernel32:KERNEL32.dll
 0000:fff91000       .debug$S                   0000000140000000     kernel32:KERNEL32.dll
 0000:fff91000       .debug$S                   0000000140000000     kernel32:KERNEL32.dll
 0000:fff91000       .debug$S                   0000000140000000     kernel32:KERNEL32.dll
 0000:fff91000       .debug$S                   0000000140000000     kernel32:KERNEL32.dll
 0000:fff91000       .debug$S                   0000000140000000     kernel32:KERNEL32.dll
 0000:fff91000       .debug$S                   0000000140000000     kernel32:KERNEL32.dll
 0000:fff91000       .debug$S                   0000000140000000     kernel32:KERNEL32.dll
 0000:fff91000       .debug$S                   0000000140000000     kernel32:KERNEL32.dll
 0000:fff91000       .debug$S                   0000000140000000     kernel32:KERNEL32.dll
 0000:fff91000       .debug$S                   0000000140000000     kernel32:KERNEL32.dll
 0000:fff91000       .debug$S                   0000000140000000     kernel32:KERNEL32.dll
 0000:fff91000       .debug$S                   0000000140000000     kernel32:KERNEL32.dll
 0000:fff91000       .debug$S                   0000000140000000     kernel32:KERNEL32.dll
 0000:fff91000       .debug$S                   0000000140000000     kernel32:KERNEL32.dll
 0000:fff91000       .debug$S                   0000000140000000     kernel32:KERNEL32.dll
 0000:fff91000       .debug$S                   0000000140000000     kernel32:KERNEL32.dll
 0000:fff91000       .debug$S                   0000000140000000     kernel32:KERNEL32.dll
 0000:fff91000       .debug$S                   0000000140000000     kernel32:KERNEL32.dll
 0000:fff91000       .debug$S                   0000000140000000     kernel32:KERNEL32.dll
 0000:fff91000       .debug$S                   0000000140000000     kernel32:KERNEL32.dll
 0000:fff91000       .debug$S                   0000000140000000     kernel32:KERNEL32.dll
 0000:fff91000       .debug$S                   0000000140000000     kernel32:KERNEL32.dll
 0000:fff91000       .debug$S                   0000000140000000     kernel32:KERNEL32.dll
 0000:fff91000       .debug$S                   0000000140000000     kernel32:KERNEL32.dll
 0000:fff91000       .debug$S                   0000000140000000     kernel32:KERNEL32.dll
 0000:fff91000       .debug$S                   0000000140000000     kernel32:KERNEL32.dll
 0000:fff91000       .debug$S                   0000000140000000     kernel32:KERNEL32.dll
 0000:fff91000       .debug$S                   0000000140000000     kernel32:KERNEL32.dll
 0000:fff91000       .debug$S                   0000000140000000     kernel32:KERNEL32.dll
 0000:fff91000       .debug$S                   0000000140000000     kernel32:KERNEL32.dll
 0000:fff91000       .debug$S                   0000000140000000     kernel32:KERNEL32.dll
 0000:fff91000       .debug$S                   0000000140000000     kernel32:KERNEL32.dll
 0000:fff91000       .debug$S                   0000000140000000     kernel32:KERNEL32.dll
 0000:fff91000       .debug$S                   0000000140000000     kernel32:KERNEL32.dll
 0000:fff91000       .debug$S                   0000000140000000     kernel32:KERNEL32.dll
 0000:fff91000       .debug$S                   0000000140000000     kernel32:KERNEL32.dll
 0000:fff91000       .debug$S                   0000000140000000     kernel32:KERNEL32.dll
 0000:fff91000       .debug$S                   0000000140000000     kernel32:KERNEL32.dll
 0000:fff91000       .debug$S                   0000000140000000     kernel32:KERNEL32.dll
 0000:fff91000       .debug$S                   0000000140000000     kernel32:KERNEL32.dll
 0000:fff91000       .debug$S                   0000000140000000     kernel32:KERNEL32.dll
 0000:fff91000       .debug$S                   0000000140000000     kernel32:KERNEL32.dll
 0000:fff91000       .debug$S                   0000000140000000     kernel32:KERNEL32.dll
 0000:fff91000       .debug$S                   0000000140000000     kernel32:KERNEL32.dll
 0000:fff91000       .debug$S                   0000000140000000     kernel32:KERNEL32.dll
 0000:fff91000       .debug$S                   0000000140000000     kernel32:KERNEL32.dll
 0000:fff91000       .debug$S                   0000000140000000     kernel32:KERNEL32.dll
 0000:fff91000       .debug$S                   0000000140000000     kernel32:KERNEL32.dll
 0000:fff91000       .debug$S                   0000000140000000     kernel32:KERNEL32.dll
 0000:fff91000       .debug$S                   0000000140000000     kernel32:KERNEL32.dll
 0000:fff91000       .debug$S                   0000000140000000     kernel32:KERNEL32.dll
 0000:fff91000       .debug$S                   0000000140000000     kernel32:KERNEL32.dll
 0000:fff91000       .debug$S                   0000000140000000     kernel32:KERNEL32.dll
 0000:fff91000       .debug$S                   0000000140000000     kernel32:KERNEL32.dll
 0000:fff91000       .debug$S                   0000000140000000     kernel32:KERNEL32.dll
 0000:fff91000       .debug$S                   0000000140000000     kernel32:KERNEL32.dll
 0000:fff91000       .debug$S                   0000000140000000     kernel32:KERNEL32.dll
 0000:fff91000       .debug$S                   0000000140000000     kernel32:KERNEL32.dll
 0000:fff91000       .debug$S                   0000000140000000     kernel32:KERNEL32.dll
 0000:fff91000       .debug$S                   0000000140000000     kernel32:KERNEL32.dll
 0000:fff91000       .debug$S                   0000000140000000     kernel32:KERNEL32.dll
 0000:fff91000       .debug$S                   0000000140000000     kernel32:KERNEL32.dll
 0000:fff91000       .debug$S                   0000000140000000     kernel32:KERNEL32.dll
 0000:fff91000       .debug$S                   0000000140000000     kernel32:KERNEL32.dll
 0000:fff91000       .debug$S                   0000000140000000     kernel32:KERNEL32.dll
 0001:000025b0       $$000000                   00000001400035b0     LIBCMTD:amdsecgs.obj
 0001:000025e0       ?pre_c_initialization@@YAHXZ 00000001400035e0 f   LIBCMTD:exe_main.obj
 0001:000026a0       ?post_pgo_initialization@@YAHXZ 00000001400036a0 f   LIBCMTD:exe_main.obj
 0001:000026b0       ?pre_cpp_initialization@@YAXXZ 00000001400036b0 f   LIBCMTD:exe_main.obj
 0001:000026d0       ?__scrt_common_main@@YAHXZ 00000001400036d0 f   LIBCMTD:exe_main.obj
 0001:000026f0       ?__scrt_common_main_seh@@YAHXZ 00000001400036f0 f   LIBCMTD:exe_main.obj
 0001:000028c0       ?invoke_main@@YAHXZ        00000001400038c0 f   LIBCMTD:exe_main.obj
 0001:00002b60       ?capture_current_context@@YAXQEAU_CONTEXT@@@Z 0000000140003b60 f   libucrtd:invalid_parameter.obj
 0001:00002b60       capture_current_context    0000000140003b60 f   LIBCMTD:gs_report.obj
 0001:00002c00       capture_previous_context   0000000140003c00 f   LIBCMTD:gs_report.obj
 0001:00002cc0       ?find_pe_section@@YAPEAU_IMAGE_SECTION_HEADER@@QEAE_K@Z 0000000140003cc0 f   LIBCMTD:utility.obj
 0001:00002d90       ?is_potentially_valid_image_base@@YA_NQEAX@Z 0000000140003d90 f   LIBCMTD:utility.obj
 0001:000031c0       __get_entropy              00000001400041c0 f   LIBCMTD:gs_support.obj
 0001:00003320       ?get_invalid_value@environment_strings_traits@?A0x1bf47908@@SAPEA_WXZ 0000000140004320 f   libucrtd:get_environment_from_os.obj
 0001:00003360       initialize_environment     0000000140004360 f   libucrtd:initialization.obj
 0001:00003360       initialize_global_state_isolation 0000000140004360 f   libucrtd:initialization.obj
 0001:00003370       init_memcpy_functions      0000000140004370 f   libvcruntimed:initialization.obj
 0001:00003c70       $$000000                   0000000140004c70     libvcruntimed:memset.obj
 0001:00004530       ??0?$__crt_unique_handle_t@Uenvironment_strings_traits@?A0x1bf47908@@@@QEAA@QEA_W@Z 0000000140005530 f i libucrtd:get_environment_from_os.obj
 0001:00004530       ??0<lambda_8d0ee55de4b1038c4002e0adecdf1839>@@QEAA@AEBQEAU__acrt_ptd@@@Z 0000000140005530 f i libucrtd:per_thread_data.obj
 0001:00004530       ??0<lambda_8f455de75cd7d7f24b4096f044d8b9e6>@@QEAA@AEBQEAU__acrt_ptd@@@Z 0000000140005530 f i libucrtd:per_thread_data.obj
 0001:00004530       ??0<lambda_e157831efee4ea0afb0a2ace5dd5fd0d>@@QEAA@AEBQEAU__acrt_ptd@@@Z 0000000140005530 f i libucrtd:per_thread_data.obj
 0001:00004530       ??0<lambda_3e4146214822e0ea86c47ff907aef2ff>@@QEAA@AEBH@Z 0000000140005530 f i libucrtd:commit.obj
 0001:00004530       ??0<lambda_df1553121bfa390f1154bd84936f2730>@@QEAA@AEAV?$__crt_unique_heap_ptr@PEADU__crt_internal_free_policy@@@@@Z 0000000140005530 f i libucrtd:argv_parsing.obj
 0001:00004530       ??0<lambda_d121dba8a4adeaf3a9819e48611155df>@@QEAA@AEBQEAU_onexit_table_t@@@Z 0000000140005530 f i libucrtd:onexit.obj
 0001:000045b0       ?get@?$__crt_unique_handle_t@Uenvironment_strings_traits@?A0x1bf47908@@@@QEBAPEA_WXZ 00000001400055b0 f i libucrtd:get_environment_from_os.obj
 0001:000045b0       ?begin@?$argument_list@D@?A0x5f5c8891@@QEBAPEAPEADXZ 00000001400055b0 f i libucrtd:argv_wildcards.obj
 0001:00004790       ?_FilterSetCurrentException@@YAKPEAU_EXCEPTION_POINTERS@@E@Z 0000000140005790 f   libvcruntimed:ehhelpers.obj
 0001:000049f0       $$000000                   00000001400059f0     libvcruntimed:notify.obj
 0001:00004aa0       ??0scoped_get_last_error_reset@?A0xf875a351@@QEAA@XZ 0000000140005aa0 f   libvcruntimed:per_thread_data.obj
 0001:00004ac0       ??1scoped_get_last_error_reset@?A0xf875a351@@QEAA@XZ 0000000140005ac0 f   libvcruntimed:per_thread_data.obj
 0001:00004b10       ?store_and_initialize_ptd@@YA_NQEAU__vcrt_ptd@@@Z 0000000140005b10 f   libvcruntimed:per_thread_data.obj
 0001:00004fc0       ?invalid_function_sentinel@@YAPEAXXZ 0000000140005fc0 f   libucrtd:winapi_thunks.obj
 0001:00004fc0       ?invalid_function_sentinel@@YAPEAXXZ 0000000140005fc0 f   libvcruntimed:winapi_downlevel.obj
 0001:00004fd0       ?try_get_FlsAlloc@@YAP6AKP6AXPEAX@Z@ZXZ 0000000140005fd0 f   libvcruntimed:winapi_downlevel.obj
 0001:00005000       ?try_get_FlsFree@@YAP6AHK@ZXZ 0000000140006000 f   libvcruntimed:winapi_downlevel.obj
 0001:00005030       ?try_get_FlsGetValue@@YAP6APEAXK@ZXZ 0000000140006030 f   libvcruntimed:winapi_downlevel.obj
 0001:00005060       ?try_get_FlsSetValue@@YAP6AHKPEAX@ZXZ 0000000140006060 f   libvcruntimed:winapi_downlevel.obj
 0001:00005090       ?try_get_InitializeCriticalSectionEx@@YAP6AHPEAU_RTL_CRITICAL_SECTION@@KK@ZXZ 0000000140006090 f   libvcruntimed:winapi_downlevel.obj
 0001:000050c0       ?try_get_first_available_module@@YAPEAUHINSTANCE__@@QEBW4module_id@?A0x14174aea@@0@Z 00000001400060c0 f   libvcruntimed:winapi_downlevel.obj
 0001:00005120       ?try_get_function@@YAPEAXW4function_id@?A0x14174aea@@QEBDQEBW4module_id@2@2@Z 0000000140006120 f   libvcruntimed:winapi_downlevel.obj
 0001:00005290       ?try_get_module@@YAPEAUHINSTANCE__@@W4module_id@?A0x14174aea@@@Z 0000000140006290 f   libvcruntimed:winapi_downlevel.obj
 0001:000053f0       ?try_get_proc_address_from_first_available_module@@YAPEAXQEBDQEBW4module_id@?A0x14174aea@@1@Z 00000001400063f0 f   libvcruntimed:winapi_downlevel.obj
 0001:00005440       ?try_load_library_from_system_directory@@YAPEAUHINSTANCE__@@QEB_W@Z 0000000140006440 f   libvcruntimed:winapi_downlevel.obj
 0001:00005670       $$000000                   0000000140006670     libvcruntimed:memcpy.obj
 0001:00005d80       ??$SehTransFilter@V__FrameHandler3@@@@YAHPEAU_EXCEPTION_POINTERS@@PEAUEHExceptionRecord@@PEA_KPEAU_CONTEXT@@PEAU_xDISPATCHER_CONTEXT@@PEBU_s_FuncInfo@@HPEAH@Z 0000000140006d80 f   libvcruntimed:risctrnsctrl.obj
 0001:00006ab0       ?adjustIp@@YA_KPEAU_xDISPATCHER_CONTEXT@@_K@Z 0000000140007ab0 f   libvcruntimed:ehstate.obj
 0001:00006ac0       ??$BuildCatchObjectHelperInternal@V__FrameHandler3@@@@YAHPEAUEHExceptionRecord@@PEAXPEBU_s_HandlerType@@PEBU_s_CatchableType@@@Z 0000000140007ac0 f   libvcruntimed:frame.obj
 0001:00006ea0       ??$BuildCatchObjectInternal@V__FrameHandler3@@@@YAXPEAUEHExceptionRecord@@PEAXPEBU_s_HandlerType@@PEBU_s_CatchableType@@@Z 0000000140007ea0 f   libvcruntimed:frame.obj
 0001:00006ff0       ??$CatchIt@V__FrameHandler3@@@@YAXPEAUEHExceptionRecord@@PEA_KPEAU_CONTEXT@@PEAU_xDISPATCHER_CONTEXT@@PEBU_s_FuncInfo@@PEBU_s_HandlerType@@PEBU_s_CatchableType@@PEBU_s_TryBlockMapEntry@@H1EE@Z 0000000140007ff0 f   libvcruntimed:frame.obj
 0001:00007130       ??$FindHandler@V__FrameHandler3@@@@YAXPEAUEHExceptionRecord@@PEA_KPEAU_CONTEXT@@PEAU_xDISPATCHER_CONTEXT@@PEBU_s_FuncInfo@@EH1@Z 0000000140008130 f   libvcruntimed:frame.obj
 0001:00007900       ??$FindHandlerForForeignException@V__FrameHandler3@@@@YAXPEAUEHExceptionRecord@@PEA_KPEAU_CONTEXT@@PEAU_xDISPATCHER_CONTEXT@@PEBU_s_FuncInfo@@HH1@Z 0000000140008900 f   libvcruntimed:frame.obj
 0001:00008390       ??0<lambda_92619d2358a28f41a33ba319515a20b9>@@QEAA@AEBQEAU__acrt_ptd@@AEBQEAPEAU__crt_locale_data@@@Z 0000000140009390 f i libucrtd:per_thread_data.obj
 0001:00008390       ??0<lambda_af29824b49a67d335554598d6cad2be6>@@QEAA@AEBHAEAV__crt_cached_ptd_host@@@Z 0000000140009390 f i libucrtd:close.obj
 0001:00008390       ??0<lambda_bd5a608237428601b7e45fbdc72b1ae8>@@QEAA@AEBQEAU__acrt_ptd@@AEBQEAPEAU__crt_multibyte_data@@@Z 0000000140009390 f i libucrtd:mbctype.obj
 0001:00008390       ??0<lambda_208ce30acdd7200aa596f2796f4d5154>@@QEAA@AEBQEAU_onexit_table_t@@AEBQ6AHXZ@Z 0000000140009390 f i libucrtd:onexit.obj
 0001:00008a50       ?ExFilterRethrow@@YAHPEAU_EXCEPTION_POINTERS@@PEAUEHExceptionRecord@@PEAH@Z 0000000140009a50 f   libvcruntimed:frame.obj
 0001:00008e70       ?IsInExceptionSpec@@YAEPEAUEHExceptionRecord@@PEBU_s_ESTypeList@@@Z 0000000140009e70 f   libvcruntimed:frame.obj
 0001:00008f90       ?Is_bad_exception_allowed@@YAEPEBU_s_ESTypeList@@@Z 0000000140009f90 f   libvcruntimed:frame.obj
 0001:00009110       ?__RethrowException@@YAXPEAUEHExceptionRecord@@@Z 000000014000a110 f   libvcruntimed:frame.obj
 0001:00009330       $$000000                   000000014000a330     libvcruntimed:handlers.obj
 0001:00009c90       ?_fclose_internal@@YAHQEAU_iobuf@@AEAV__crt_cached_ptd_host@@@Z 000000014000ac90 f   libucrtd:fclose.obj
 0001:00009df0       ?_fclose_nolock_internal@@YAHQEAU_iobuf@@AEAV__crt_cached_ptd_host@@@Z 000000014000adf0 f   libucrtd:fclose.obj
 0001:0000a3c0       ??$common_fsopen@D@@YAPEAU_iobuf@@QEBD0H@Z 000000014000b3c0 f   libucrtd:fopen.obj
 0001:0000b340       memcpy_s                   000000014000c340 f   libucrtd:cfout.obj
 0001:0000b340       memcpy_s                   000000014000c340 f   libucrtd:mbctype.obj
 0001:0000b340       memcpy_s                   000000014000c340 f   libucrtd:fread.obj
 0001:0000b560       ?common_fseek@@YAHV__crt_stdio_stream@@_JHAEAV__crt_cached_ptd_host@@@Z 000000014000c560 f   libucrtd:fseek.obj
 0001:0000b790       ?common_fseek_binary_mode_read_only_fast_track_nolock@@YA_NV__crt_stdio_stream@@_JH@Z 000000014000c790 f   libucrtd:fseek.obj
 0001:0000ba10       ?common_fseek_nolock@@YAHV__crt_stdio_stream@@_JHAEAV__crt_cached_ptd_host@@@Z 000000014000ca10 f   libucrtd:fseek.obj
 0001:0000bce0       ??$common_ftell@J@@YAJV__crt_stdio_stream@@AEAV__crt_cached_ptd_host@@@Z 000000014000cce0 f   libucrtd:ftell.obj
 0001:0000be10       ??$common_ftell_nolock@J@@YAJV__crt_stdio_stream@@AEAV__crt_cached_ptd_host@@@Z 000000014000ce10 f   libucrtd:ftell.obj
 0001:0000be70       ??$common_ftell_nolock@_J@@YA_JV__crt_stdio_stream@@AEAV__crt_cached_ptd_host@@@Z 000000014000ce70 f   libucrtd:ftell.obj
 0001:0000c220       ??$count_newlines_of_type@D@@YA_JQEBD0@Z 000000014000d220 f   libucrtd:ftell.obj
 0001:0000c2f0       ??$count_newlines_of_type@_W@@YA_JQEBD0@Z 000000014000d2f0 f   libucrtd:ftell.obj
 0001:0000c3d0       ?buffer_character_size@@YA_KW4__crt_lowio_text_mode@@@Z 000000014000d3d0 f   libucrtd:ftell.obj
 0001:0000c410       ?buffer_contains_wide_characters@@YA_NW4__crt_lowio_text_mode@@@Z 000000014000d410 f   libucrtd:ftell.obj
 0001:0000c440       ?common_ftell_read_mode_nolock@@YA_JV__crt_stdio_stream@@_J1AEAV__crt_cached_ptd_host@@@Z 000000014000d440 f   libucrtd:ftell.obj
 0001:0000c760       ?common_ftell_translated_utf8_nolock@@YA_JV__crt_stdio_stream@@_JAEAV__crt_cached_ptd_host@@@Z 000000014000d760 f   libucrtd:ftell.obj
 0001:0000ca20       ?count_newline_bytes@@YA_JQEBD0W4__crt_lowio_text_mode@@@Z 000000014000da20 f   libucrtd:ftell.obj
 0001:0000cb90       ??$?RV<lambda_a2589f19c515cac03caf6db9c38355e9>@@AEAV<lambda_26974eb511f701c600fccfa2a97a8e1b>@@V<lambda_ad9ce2f38261e34e8a422b9cc35dfe8d>@@@?$__crt_seh_guarded_call@_K@@QEAA_K$$QEAV<lambda_a2589f19c515cac03caf6db9c38355e9>@@AEAV<lambda_26974eb511f701c600fccfa2a97a8e1b>@@$$QEAV<lambda_ad9ce2f38261e34e8a422b9cc35dfe8d>@@@Z 000000014000db90 f   libucrtd:fwrite.obj
 0001:0000cbe0       ??$__acrt_lock_stream_and_call@V<lambda_26974eb511f701c600fccfa2a97a8e1b>@@@@YA_KQEAU_iobuf@@$$QEAV<lambda_26974eb511f701c600fccfa2a97a8e1b>@@@Z 000000014000dbe0 f   libucrtd:fwrite.obj
 0001:0000cc40       ??0<lambda_26974eb511f701c600fccfa2a97a8e1b>@@QEAA@AEBQEAU_iobuf@@AEAV__crt_cached_ptd_host@@AEBQEBXAEB_K3@Z 000000014000dc40 f   libucrtd:fwrite.obj
 0001:0000cc40       ??0<lambda_303760bc4008a2b3ec4768a30b06a80c>@@QEAA@AEBQEAU_iobuf@@AEAV__crt_cached_ptd_host@@AEB_KAEBQEBDAEBQEAD@Z 000000014000dc40 f   libucrtd:output.obj
 0001:0000cca0       ??0<lambda_842d9ff0dc9ef11c61343bbaebe7f885>@@QEAA@AEBQEAU_iobuf@@@Z 000000014000dca0 f   libucrtd:fflush.obj
 0001:0000cca0       ??0<lambda_d90129c13df834fdcbf8d2b88dafcf2d>@@QEAA@AEBQEAU_iobuf@@@Z 000000014000dca0 f   libucrtd:fflush.obj
 0001:0000cca0       ??0<lambda_a2589f19c515cac03caf6db9c38355e9>@@QEAA@AEBQEAU_iobuf@@@Z 000000014000dca0 f   libucrtd:fwrite.obj
 0001:0000cca0       ??0<lambda_ad9ce2f38261e34e8a422b9cc35dfe8d>@@QEAA@AEBQEAU_iobuf@@@Z 000000014000dca0 f   libucrtd:fwrite.obj
 0001:0000cca0       ??0<lambda_4780a7ea4f8cbd2590aec34bd14e2bbf>@@QEAA@AEBQEAU_iobuf@@@Z 000000014000dca0 f   libucrtd:output.obj
 0001:0000cca0       ??0<lambda_d854c62834386a3b23916ad6dae2782d>@@QEAA@AEBQEAU_iobuf@@@Z 000000014000dca0 f   libucrtd:output.obj
 0001:0000cd40       ??R<lambda_26974eb511f701c600fccfa2a97a8e1b>@@QEBA_KXZ 000000014000dd40 f   libucrtd:fwrite.obj
 0001:0000cdd0       ??R<lambda_842d9ff0dc9ef11c61343bbaebe7f885>@@QEBAXXZ 000000014000ddd0 f   libucrtd:fflush.obj
 0001:0000cdd0       ??R<lambda_a2589f19c515cac03caf6db9c38355e9>@@QEBAXXZ 000000014000ddd0 f   libucrtd:fwrite.obj
 0001:0000cdd0       ??R<lambda_d854c62834386a3b23916ad6dae2782d>@@QEBAXXZ 000000014000ddd0 f   libucrtd:output.obj
 0001:0000cdf0       ??R<lambda_d90129c13df834fdcbf8d2b88dafcf2d>@@QEBAXXZ 000000014000ddf0 f   libucrtd:fflush.obj
 0001:0000cdf0       ??R<lambda_ad9ce2f38261e34e8a422b9cc35dfe8d>@@QEBAXXZ 000000014000ddf0 f   libucrtd:fwrite.obj
 0001:0000cdf0       ??R<lambda_4780a7ea4f8cbd2590aec34bd14e2bbf>@@QEBAXXZ 000000014000ddf0 f   libucrtd:output.obj
 0001:0000d830       ?_perror_internal@@YAXQEBDAEAV__crt_cached_ptd_host@@@Z 000000014000e830 f   libucrtd:perror.obj
 0001:0000db90       ??$?RV<lambda_d854c62834386a3b23916ad6dae2782d>@@AEAV<lambda_303760bc4008a2b3ec4768a30b06a80c>@@V<lambda_4780a7ea4f8cbd2590aec34bd14e2bbf>@@@?$__crt_seh_guarded_call@H@@QEAAH$$QEAV<lambda_d854c62834386a3b23916ad6dae2782d>@@AEAV<lambda_303760bc4008a2b3ec4768a30b06a80c>@@$$QEAV<lambda_4780a7ea4f8cbd2590aec34bd14e2bbf>@@@Z 000000014000eb90 f   libucrtd:output.obj
 0001:0000dbe0       ??$__acrt_lock_stream_and_call@V<lambda_303760bc4008a2b3ec4768a30b06a80c>@@@@YAHQEAU_iobuf@@$$QEAV<lambda_303760bc4008a2b3ec4768a30b06a80c>@@@Z 000000014000ebe0 f   libucrtd:output.obj
 0001:0000dce0       ??$common_vfprintf@Vstandard_base@__crt_stdio_output@@D@@YAH_KQEAU_iobuf@@QEBDAEAV__crt_cached_ptd_host@@QEAD@Z 000000014000ece0 f   libucrtd:output.obj
 0001:0000df10       ??$common_vsnprintf_s@D@@YAH_KQEAD00QEBDAEAV__crt_cached_ptd_host@@1@Z 000000014000ef10 f   libucrtd:output.obj
 0001:0000e5f0       ??$common_vsnprintf_s@_W@@YAH_KQEA_W00QEB_WAEAV__crt_cached_ptd_host@@QEAD@Z 000000014000f5f0 f   libucrtd:output.obj
 0001:0000ece0       ??$common_vsprintf@Vformat_validation_base@__crt_stdio_output@@D@@YAH_KQEAD0QEBDAEAV__crt_cached_ptd_host@@1@Z 000000014000fce0 f   libucrtd:output.obj
 0001:0000f1a0       ??$common_vsprintf@Vformat_validation_base@__crt_stdio_output@@_W@@YAH_KQEA_W0QEB_WAEAV__crt_cached_ptd_host@@QEAD@Z 00000001400101a0 f   libucrtd:output.obj
 0001:0000f650       ??$common_vsprintf_s@D@@YAH_KQEAD0QEBDAEAV__crt_cached_ptd_host@@1@Z 0000000140010650 f   libucrtd:output.obj
 0001:00014c90       ??R<lambda_303760bc4008a2b3ec4768a30b06a80c>@@QEBAHXZ 0000000140015c90 f   libucrtd:output.obj
 0001:00015a84       $LN39                      0000000140016a84     libucrtd:output.obj
 0001:00015e44       $LN39                      0000000140016e44     libucrtd:output.obj
 0001:00016208       $LN39                      0000000140017208     libucrtd:output.obj
 0001:000170fc       $LN54                      00000001400180fc     libucrtd:output.obj
 0001:00017124       $LN53                      0000000140018124     libucrtd:output.obj
 0001:000175bc       $LN54                      00000001400185bc     libucrtd:output.obj
 0001:000175e4       $LN53                      00000001400185e4     libucrtd:output.obj
 0001:00017a7c       $LN54                      0000000140018a7c     libucrtd:output.obj
 0001:00017aa4       $LN53                      0000000140018aa4     libucrtd:output.obj
 0001:00017f38       $LN44                      0000000140018f38     libucrtd:output.obj
 0001:00017f68       $LN43                      0000000140018f68     libucrtd:output.obj
 0001:000183f8       $LN44                      00000001400193f8     libucrtd:output.obj
 0001:00018428       $LN43                      0000000140019428     libucrtd:output.obj
 0001:0001897c       $LN44                      000000014001997c     libucrtd:output.obj
 0001:000189ac       $LN43                      00000001400199ac     libucrtd:output.obj
 0001:00018c50       $LN19                      0000000140019c50     libucrtd:output.obj
 0001:0001c700       ?xcptlookup@@YAPEAU__crt_signal_action_t@@KQEAU1@@Z 000000014001d700 f   libucrtd:exception_filter.obj
 0001:0001ca1c       $LN33                      000000014001da1c     libucrtd:exception_filter.obj
 0001:0001ca40       ?issue_debug_notification@@YA_NQEB_W@Z 000000014001da40 f   libucrtd:report_runtime_error.obj
 0001:0001caa0       ?should_write_error_to_console@@YA_NXZ 000000014001daa0 f   libucrtd:report_runtime_error.obj
 0001:0001cae0       ?write_string_to_console@@YAXQEB_W@Z 000000014001dae0 f   libucrtd:report_runtime_error.obj
 0001:0001d120       ??$common_configure_argv@D@@YAHW4_crt_argv_mode@@@Z 000000014001e120 f   libucrtd:argv_parsing.obj
 0001:0001d4f0       ??$parse_command_line@D@@YAXPEADPEAPEAD0PEA_K2@Z 000000014001e4f0 f   libucrtd:argv_parsing.obj
 0001:0001d9e0       ??R<lambda_df1553121bfa390f1154bd84936f2730>@@QEBAHXZ 000000014001e9e0 f   libucrtd:argv_parsing.obj
 0001:0001da40       ?pre_initialize@@YAXD@Z    000000014001ea40 f   libucrtd:environment_initialization.obj
 0001:0001da40       ?do_locale_initialization@@YAXD@Z 000000014001ea40 f   libucrtd:argv_parsing.obj
 0001:0001da60       ?expand_argv_wildcards@@YAHQEAPEADQEAPEAPEAD@Z 000000014001ea60 f   libucrtd:argv_parsing.obj
 0001:0001da90       ?get_argv@@YAAEAPEAPEADD@Z 000000014001ea90 f   libucrtd:argv_parsing.obj
 0001:0001daa0       ?get_command_line@@YAPEADD@Z 000000014001eaa0 f   libucrtd:argv_parsing.obj
 0001:0001dab0       ?should_copy_another_character@@YA_ND@Z 000000014001eab0 f   libucrtd:argv_parsing.obj
 0001:0001dc50       ??$common_get_initial_environment@D@@YAPEAPEADXZ 000000014001ec50 f   libucrtd:environment_initialization.obj
 0001:0001dc90       ??$common_get_or_create_environment_nolock@D@@YAPEAPEADXZ 000000014001ec90 f   libucrtd:environment_initialization.obj
 0001:0001dd00       ??$common_initialize_environment_nolock@D@@YAHXZ 000000014001ed00 f   libucrtd:environment_initialization.obj
 0001:0001de20       ??$count_variables_in_environment_block@D@@YA?B_KQEAD@Z 000000014001ee20 f   libucrtd:environment_initialization.obj
 0001:0001dea0       ??$create_environment@D@@YAQEAPEADQEAD@Z 000000014001eea0 f   libucrtd:environment_initialization.obj
 0001:0001e0b0       ??$free_environment@D@@YAXQEAPEAD@Z 000000014001f0b0 f   libucrtd:environment_initialization.obj
 0001:0001e0b0       ??$free_environment@_W@@YAXQEAPEA_W@Z 000000014001f0b0 f   libucrtd:environment_initialization.obj
 0001:0001e120       ??$initialize_environment_by_cloning_nolock@D@@YAHXZ 000000014001f120 f   libucrtd:environment_initialization.obj
 0001:0001e430       ??$uninitialize_environment_internal@D@@YAXAEAPEAPEAD@Z 000000014001f430 f   libucrtd:environment_initialization.obj
 0001:0001e470       ??$uninitialize_environment_internal@_W@@YAXAEAPEAPEA_W@Z 000000014001f470 f   libucrtd:environment_initialization.obj
 0001:0001e560       ?get_dual_state_environment_nolock@@YAAEAV?$dual_state_global@PEAPEAD@__crt_state_management@@D@Z 000000014001f560 f   libucrtd:environment_initialization.obj
 0001:0001e570       ?get_environment_nolock@@YAAEAPEAPEADD@Z 000000014001f570 f   libucrtd:environment_initialization.obj
 0001:0001e570       ?get_environment@@YAAEAPEAPEADD@Z 000000014001f570 f   libucrtd:setenv.obj
 0001:0001e590       ?get_environment_nolock@@YAAEAPEAPEA_W_W@Z 000000014001f590 f   libucrtd:environment_initialization.obj
 0001:0001e5b0       ?get_initial_environment@@YAAEAPEAPEADD@Z 000000014001f5b0 f   libucrtd:environment_initialization.obj
 0001:0001e5b0       ?get_initial_environment@@YAAEAPEAPEADD@Z 000000014001f5b0 f   libucrtd:setenv.obj
 0001:0001e5c0       ?get_initial_environment@@YAAEAPEAPEA_W_W@Z 000000014001f5c0 f   libucrtd:environment_initialization.obj
 0001:0001e760       ??$?RV<lambda_d80eeec6fff315bfe5c115232f3240e3>@@AEAV<lambda_6e4b09c48022b2350581041d5f6b0c4c>@@V<lambda_2358e3775559c9db80273638284d5e45>@@@?$__crt_seh_guarded_call@X@@QEAAX$$QEAV<lambda_d80eeec6fff315bfe5c115232f3240e3>@@AEAV<lambda_6e4b09c48022b2350581041d5f6b0c4c>@@$$QEAV<lambda_2358e3775559c9db80273638284d5e45>@@@Z 000000014001f760 f   libucrtd:exit.obj
 0001:0001e7a0       ??$__acrt_lock_and_call@V<lambda_6e4b09c48022b2350581041d5f6b0c4c>@@@@YAXW4__acrt_lock_id@@$$QEAV<lambda_6e4b09c48022b2350581041d5f6b0c4c>@@@Z 000000014001f7a0 f   libucrtd:exit.obj
 0001:0001e830       ??0<lambda_04ddeca75b7c13fd67716e8dfcef87ee>@@QEAA@AEBW4__acrt_lock_id@@@Z 000000014001f830 f   libucrtd:per_thread_data.obj
 0001:0001e830       ??0<lambda_0ae27a3a962d80f24befdcbee591983d>@@QEAA@AEBW4__acrt_lock_id@@@Z 000000014001f830 f   libucrtd:per_thread_data.obj
 0001:0001e830       ??0<lambda_2d41944a1d46af3157314b8a01080d33>@@QEAA@AEBW4__acrt_lock_id@@@Z 000000014001f830 f   libucrtd:per_thread_data.obj
 0001:0001e830       ??0<lambda_6992ecaafeb10aed2b74cb1fae11a551>@@QEAA@AEBW4__acrt_lock_id@@@Z 000000014001f830 f   libucrtd:per_thread_data.obj
 0001:0001e830       ??0<lambda_74a0ef281e44d15e1136f792f539efb3>@@QEAA@AEBW4__acrt_lock_id@@@Z 000000014001f830 f   libucrtd:per_thread_data.obj
 0001:0001e830       ??0<lambda_aa500f224e6afead328df44964fe2772>@@QEAA@AEBW4__acrt_lock_id@@@Z 000000014001f830 f   libucrtd:per_thread_data.obj
 0001:0001e830       ??0<lambda_aa87e3671a710a21b5dc78c0bdf72e11>@@QEAA@AEBW4__acrt_lock_id@@@Z 000000014001f830 f   libucrtd:per_thread_data.obj
 0001:0001e830       ??0<lambda_dc504788e8f1664fe9b84e20bfb512f2>@@QEAA@AEBW4__acrt_lock_id@@@Z 000000014001f830 f   libucrtd:per_thread_data.obj
 0001:0001e830       ??0<lambda_38119f0e861e05405d8a144b9b982f0a>@@QEAA@AEBW4__acrt_lock_id@@@Z 000000014001f830 f   libucrtd:wsetlocale.obj
 0001:0001e830       ??0<lambda_410d79af7f07d98d83a3f525b3859a53>@@QEAA@AEBW4__acrt_lock_id@@@Z 000000014001f830 f   libucrtd:wsetlocale.obj
 0001:0001e830       ??0<lambda_19eaff14c5fe7be5b1b106a862eb1091>@@QEAA@AEBH@Z 000000014001f830 f   libucrtd:close.obj
 0001:0001e830       ??0<lambda_3ce37f5b621ab310299ea5f68cbdf3bb>@@QEAA@AEBH@Z 000000014001f830 f   libucrtd:close.obj
 0001:0001e830       ??0<lambda_7d29013d608e9f25a034de83c9b9e983>@@QEAA@AEBH@Z 000000014001f830 f   libucrtd:commit.obj
 0001:0001e830       ??0<lambda_b869e5a4e1069fcb5c3da79c0d999133>@@QEAA@AEBH@Z 000000014001f830 f   libucrtd:commit.obj
 0001:0001e830       ??0<lambda_728235dc0fc2b1f82d1fa5b3e7102d8f>@@QEAA@AEBW4__acrt_lock_id@@@Z 000000014001f830 f   libucrtd:mbctype.obj
 0001:0001e830       ??0<lambda_efa02eb69bf647d2f7ff0dd6f1103f72>@@QEAA@AEBW4__acrt_lock_id@@@Z 000000014001f830 f   libucrtd:mbctype.obj
 0001:0001e830       ??0<lambda_450d765d439847d4c735a33c368b5fc0>@@QEAA@AEBW4__acrt_lock_id@@@Z 000000014001f830 f   libucrtd:signal.obj
 0001:0001e830       ??0<lambda_601a2a7da3b7a96e9554ac7215c4b07c>@@QEAA@AEBW4__acrt_lock_id@@@Z 000000014001f830 f   libucrtd:signal.obj
 0001:0001e830       ??0<lambda_2358e3775559c9db80273638284d5e45>@@QEAA@AEBW4__acrt_lock_id@@@Z 000000014001f830 f   libucrtd:exit.obj
 0001:0001e830       ??0<lambda_d80eeec6fff315bfe5c115232f3240e3>@@QEAA@AEBW4__acrt_lock_id@@@Z 000000014001f830 f   libucrtd:exit.obj
 0001:0001e830       ??0<lambda_6a47f4c8fd0152770a780fc1d70204eb>@@QEAA@AEBW4__acrt_lock_id@@@Z 000000014001f830 f   libucrtd:onexit.obj
 0001:0001e830       ??0<lambda_6aaa2265f5b6a89667e7d7630012e97a>@@QEAA@AEBW4__acrt_lock_id@@@Z 000000014001f830 f   libucrtd:onexit.obj
 0001:0001e830       ??0<lambda_80060f20ac3990516b753a27f211934c>@@QEAA@AEBW4__acrt_lock_id@@@Z 000000014001f830 f   libucrtd:onexit.obj
 0001:0001e830       ??0<lambda_fd91b99c0687e8936f1d70d7d9b78e69>@@QEAA@AEBW4__acrt_lock_id@@@Z 000000014001f830 f   libucrtd:onexit.obj
 0001:0001e830       ??0<lambda_886d6c58226a84441f68b9f2b8217b83>@@QEAA@AEBW4__acrt_lock_id@@@Z 000000014001f830 f   libucrtd:fflush.obj
 0001:0001e830       ??0<lambda_f7f22ab5edc0698d5f6905b0d3f44752>@@QEAA@AEBW4__acrt_lock_id@@@Z 000000014001f830 f   libucrtd:fflush.obj
 0001:0001e850       ??0<lambda_6e4b09c48022b2350581041d5f6b0c4c>@@QEAA@AEBW4_crt_exit_cleanup_mode@@AEBW4_crt_exit_return_mode@@AEA_N@Z 000000014001f850 f   libucrtd:exit.obj
 0001:0001e850       ??0<lambda_ab61a845afdef5b7c387490eaf3616ee>@@QEAA@AEAHAEB_N0@Z 000000014001f850 f   libucrtd:fflush.obj
 0001:0001e8c0       ??R<lambda_04ddeca75b7c13fd67716e8dfcef87ee>@@QEBAXXZ 000000014001f8c0 f   libucrtd:per_thread_data.obj
 0001:0001e8c0       ??R<lambda_6992ecaafeb10aed2b74cb1fae11a551>@@QEBAXXZ 000000014001f8c0 f   libucrtd:per_thread_data.obj
 0001:0001e8c0       ??R<lambda_aa500f224e6afead328df44964fe2772>@@QEBAXXZ 000000014001f8c0 f   libucrtd:per_thread_data.obj
 0001:0001e8c0       ??R<lambda_dc504788e8f1664fe9b84e20bfb512f2>@@QEBAXXZ 000000014001f8c0 f   libucrtd:per_thread_data.obj
 0001:0001e8c0       ??R<lambda_38119f0e861e05405d8a144b9b982f0a>@@QEBAXXZ 000000014001f8c0 f   libucrtd:wsetlocale.obj
 0001:0001e8c0       ??R<lambda_728235dc0fc2b1f82d1fa5b3e7102d8f>@@QEBAXXZ 000000014001f8c0 f   libucrtd:mbctype.obj
 0001:0001e8c0       ??R<lambda_601a2a7da3b7a96e9554ac7215c4b07c>@@QEBAXXZ 000000014001f8c0 f   libucrtd:signal.obj
 0001:0001e8c0       ??R<lambda_2358e3775559c9db80273638284d5e45>@@QEBAXXZ 000000014001f8c0 f   libucrtd:exit.obj
 0001:0001e8c0       ??R<lambda_6aaa2265f5b6a89667e7d7630012e97a>@@QEBAXXZ 000000014001f8c0 f   libucrtd:onexit.obj
 0001:0001e8c0       ??R<lambda_fd91b99c0687e8936f1d70d7d9b78e69>@@QEBAXXZ 000000014001f8c0 f   libucrtd:onexit.obj
 0001:0001e8c0       ??R<lambda_f7f22ab5edc0698d5f6905b0d3f44752>@@QEBAXXZ 000000014001f8c0 f   libucrtd:fflush.obj
 0001:0001e8e0       ??R<lambda_6e4b09c48022b2350581041d5f6b0c4c>@@QEBA@XZ 000000014001f8e0 f   libucrtd:exit.obj
 0001:0001ea00       ??R<lambda_0ae27a3a962d80f24befdcbee591983d>@@QEBAXXZ 000000014001fa00 f   libucrtd:per_thread_data.obj
 0001:0001ea00       ??R<lambda_2d41944a1d46af3157314b8a01080d33>@@QEBAXXZ 000000014001fa00 f   libucrtd:per_thread_data.obj
 0001:0001ea00       ??R<lambda_74a0ef281e44d15e1136f792f539efb3>@@QEBAXXZ 000000014001fa00 f   libucrtd:per_thread_data.obj
 0001:0001ea00       ??R<lambda_aa87e3671a710a21b5dc78c0bdf72e11>@@QEBAXXZ 000000014001fa00 f   libucrtd:per_thread_data.obj
 0001:0001ea00       ??R<lambda_410d79af7f07d98d83a3f525b3859a53>@@QEBAXXZ 000000014001fa00 f   libucrtd:wsetlocale.obj
 0001:0001ea00       ??R<lambda_efa02eb69bf647d2f7ff0dd6f1103f72>@@QEBAXXZ 000000014001fa00 f   libucrtd:mbctype.obj
 0001:0001ea00       ??R<lambda_450d765d439847d4c735a33c368b5fc0>@@QEBAXXZ 000000014001fa00 f   libucrtd:signal.obj
 0001:0001ea00       ??R<lambda_d80eeec6fff315bfe5c115232f3240e3>@@QEBAXXZ 000000014001fa00 f   libucrtd:exit.obj
 0001:0001ea00       ??R<lambda_6a47f4c8fd0152770a780fc1d70204eb>@@QEBAXXZ 000000014001fa00 f   libucrtd:onexit.obj
 0001:0001ea00       ??R<lambda_80060f20ac3990516b753a27f211934c>@@QEBAXXZ 000000014001fa00 f   libucrtd:onexit.obj
 0001:0001ea00       ??R<lambda_886d6c58226a84441f68b9f2b8217b83>@@QEBAXXZ 000000014001fa00 f   libucrtd:fflush.obj
 0001:0001ea50       ?atexit_exception_filter@@YAHK@Z 000000014001fa50 f   libucrtd:exit.obj
 0001:0001eaf0       ?common_exit@@YAXHW4_crt_exit_cleanup_mode@@W4_crt_exit_return_mode@@@Z 000000014001faf0 f   libucrtd:exit.obj
 0001:0001eb90       ?exit_or_terminate_process@@YAXI@Z 000000014001fb90 f   libucrtd:exit.obj
 0001:0001ebd0       ?is_managed_app@@YA_NXZ    000000014001fbd0 f   libucrtd:exit.obj
 0001:0001ec80       ?should_call_terminate_process@@YA_NXZ 000000014001fc80 f   libucrtd:exit.obj
 0001:0001ece0       ?try_cor_exit_process@@YAXI@Z 000000014001fce0 f   libucrtd:exit.obj
 0001:0001f350       uninitialize_c             0000000140020350 f   libucrtd:initialization.obj
 0001:0001f350       uninitialize_global_state_isolation 0000000140020350 f   libucrtd:initialization.obj
 0001:0001f380       ??$?RV<lambda_410d79af7f07d98d83a3f525b3859a53>@@AEAV<lambda_3e16ef9562a7dcce91392c22ab16ea36>@@V<lambda_38119f0e861e05405d8a144b9b982f0a>@@@?$__crt_seh_guarded_call@X@@QEAAX$$QEAV<lambda_410d79af7f07d98d83a3f525b3859a53>@@AEAV<lambda_3e16ef9562a7dcce91392c22ab16ea36>@@$$QEAV<lambda_38119f0e861e05405d8a144b9b982f0a>@@@Z 0000000140020380 f   libucrtd:wsetlocale.obj
 0001:0001f3c0       ??$__acrt_lock_and_call@V<lambda_3e16ef9562a7dcce91392c22ab16ea36>@@@@YAXW4__acrt_lock_id@@$$QEAV<lambda_3e16ef9562a7dcce91392c22ab16ea36>@@@Z 00000001400203c0 f   libucrtd:wsetlocale.obj
 0001:0001f420       ??$uninitialize@V<lambda_363eea9039da1e8169e2d060c7fe5cbc>@@@?$dual_state_global@PEAU__crt_locale_data@@@__crt_state_management@@QEAAX$$QEAV<lambda_363eea9039da1e8169e2d060c7fe5cbc>@@@Z 0000000140020420 f   libucrtd:wsetlocale.obj
 0001:0001f480       ??R<lambda_363eea9039da1e8169e2d060c7fe5cbc>@@QEBAXAEAPEAU__crt_locale_data@@@Z 0000000140020480 f   libucrtd:wsetlocale.obj
 0001:0001f4c0       ??R<lambda_3e16ef9562a7dcce91392c22ab16ea36>@@QEBA@XZ 00000001400204c0 f   libucrtd:wsetlocale.obj
 0001:0001f7e0       ??$?RV<lambda_6a47f4c8fd0152770a780fc1d70204eb>@@AEAV<lambda_d121dba8a4adeaf3a9819e48611155df>@@V<lambda_6aaa2265f5b6a89667e7d7630012e97a>@@@?$__crt_seh_guarded_call@H@@QEAAH$$QEAV<lambda_6a47f4c8fd0152770a780fc1d70204eb>@@AEAV<lambda_d121dba8a4adeaf3a9819e48611155df>@@$$QEAV<lambda_6aaa2265f5b6a89667e7d7630012e97a>@@@Z 00000001400207e0 f   libucrtd:onexit.obj
 0001:0001f830       ??$?RV<lambda_80060f20ac3990516b753a27f211934c>@@AEAV<lambda_208ce30acdd7200aa596f2796f4d5154>@@V<lambda_fd91b99c0687e8936f1d70d7d9b78e69>@@@?$__crt_seh_guarded_call@H@@QEAAH$$QEAV<lambda_80060f20ac3990516b753a27f211934c>@@AEAV<lambda_208ce30acdd7200aa596f2796f4d5154>@@$$QEAV<lambda_fd91b99c0687e8936f1d70d7d9b78e69>@@@Z 0000000140020830 f   libucrtd:onexit.obj
 0001:0001f880       ??$__acrt_lock_and_call@V<lambda_208ce30acdd7200aa596f2796f4d5154>@@@@YAHW4__acrt_lock_id@@$$QEAV<lambda_208ce30acdd7200aa596f2796f4d5154>@@@Z 0000000140020880 f   libucrtd:onexit.obj
 0001:0001f8e0       ??$__acrt_lock_and_call@V<lambda_d121dba8a4adeaf3a9819e48611155df>@@@@YAHW4__acrt_lock_id@@$$QEAV<lambda_d121dba8a4adeaf3a9819e48611155df>@@@Z 00000001400208e0 f   libucrtd:onexit.obj
 0001:0001f940       ??R<lambda_208ce30acdd7200aa596f2796f4d5154>@@QEBAHXZ 0000000140020940 f   libucrtd:onexit.obj
 0001:0001fc80       ??R<lambda_d121dba8a4adeaf3a9819e48611155df>@@QEBAHXZ 0000000140020c80 f   libucrtd:onexit.obj
 0001:0001ffe0       initialize_global_variables 0000000140020fe0 f   libucrtd:initialization.obj
 0001:00020000       initialize_c               0000000140021000 f   libucrtd:initialization.obj
 0001:00020030       uninitialize_environment   0000000140021030 f   libucrtd:initialization.obj
 0001:00020060       initialize_pointers        0000000140021060 f   libucrtd:initialization.obj
 0001:000200c0       uninitialize_vcruntime     00000001400210c0 f   libucrtd:initialization.obj
 0001:000200e0       uninitialize_allocated_memory 00000001400210e0 f   libucrtd:initialization.obj
 0001:00020120       uninitialize_allocated_io_buffers 0000000140021120 f   libucrtd:initialization.obj
 0001:000201a0       report_memory_leaks        00000001400211a0 f   libucrtd:initialization.obj
 0001:000201d0       ??$uninitialize@V<lambda_af27fe6ede5d83bbdbd622796c194e9c>@@@?$dual_state_global@PEAU__crt_multibyte_data@@@__crt_state_management@@QEAAX$$QEAV<lambda_af27fe6ede5d83bbdbd622796c194e9c>@@@Z 00000001400211d0 f   libucrtd:initialization.obj
 0001:00020230       ??R<lambda_af27fe6ede5d83bbdbd622796c194e9c>@@QEBAXAEAPEAU__crt_multibyte_data@@@Z 0000000140021230 f   libucrtd:initialization.obj
 0001:000204a0       ?block_from_header@@YAPEAEQEAU_CrtMemBlockHeader@@@Z 00000001400214a0 f   libucrtd:debug_heap.obj
 0001:000204b0       ?check_block@@YA_NQEAU_CrtMemBlockHeader@@@Z 00000001400214b0 f   libucrtd:debug_heap.obj
 0001:00020a20       ?check_bytes@@YA_NQEBEE_K@Z 0000000140021a20 f   libucrtd:debug_heap.obj
 0001:00020a90       ?dump_all_object_since_nolock@@YAXQEBU_CrtMemState@@@Z 0000000140021a90 f   libucrtd:debug_heap.obj
 0001:00020f10       ?free_dbg_nolock@@YAXQEAXH@Z 0000000140021f10 f   libucrtd:debug_heap.obj
 0001:00021690       ?header_from_block@@YAPEAU_CrtMemBlockHeader@@QEBX@Z 0000000140022690 f   libucrtd:debug_heap.obj
 0001:000216a0       ?heap_alloc_dbg@@YAPEAX_KHQEBDH@Z 00000001400226a0 f   libucrtd:debug_heap.obj
 0001:00021740       ?heap_alloc_dbg_internal@@YAPEAX_KHQEBDH@Z 0000000140022740 f   libucrtd:debug_heap.obj
 0001:00021b90       ?is_bad_read_pointer@@YA_NQEBX_K@Z 0000000140022b90 f   libucrtd:debug_heap.obj
 0001:00021ca0       ?is_block_an_aligned_allocation@@YA_NQEBX@Z 0000000140022ca0 f   libucrtd:debug_heap.obj
 0001:00021ce0       ?is_block_type_valid@@YA_NH@Z 0000000140022ce0 f   libucrtd:debug_heap.obj
 0001:00021d30       ?print_block_data@@YAXQEAU__crt_locale_pointers@@QEAU_CrtMemBlockHeader@@@Z 0000000140022d30 f   libucrtd:debug_heap.obj
 0001:00021f60       ?realloc_dbg_nolock@@YAPEAXQEAXQEA_KHQEBDH_N@Z 0000000140022f60 f   libucrtd:debug_heap.obj
 0001:000227a0       ?validate_heap_if_required_nolock@@YAXXZ 00000001400237a0 f   libucrtd:debug_heap.obj
 0001:00023530       ??$common_tcscpy_s@D@@YAHQEAD_KQEBD@Z 0000000140024530 f   libucrtd:strcpy_s.obj
 0001:00023a40       $$000000                   0000000140024a40     libucrtd:strcmp.obj
 0001:00023ac0       $$000000                   0000000140024ac0     libucrtd:strlen.obj
 0001:00024110       ??$common_message_window@D@@YAHHQEAXQEBD111@Z 0000000140025110 f   libucrtd:dbgrpt.obj
 0001:000247e0       ??$common_message_window@_W@@YAHHQEAXQEB_W111@Z 00000001400257e0 f   libucrtd:dbgrpt.obj
 0001:00024fe0       ?get_output_message_format@@YAPEB_WD@Z 0000000140025fe0 f   libucrtd:dbgrpt.obj
 0001:00024ff0       ?get_output_message_format@@YAPEB_W_W@Z 0000000140025ff0 f   libucrtd:dbgrpt.obj
 0001:00025000       ?get_program_name_unknown_text@@YAPEBDD@Z 0000000140026000 f   libucrtd:dbgrpt.obj
 0001:00025010       ?get_program_name_unknown_text@@YAPEB_W_W@Z 0000000140026010 f   libucrtd:dbgrpt.obj
 0001:000252b0       $$000000                   00000001400262b0     libucrtd:strncmp.obj
 0001:00025560       ?try_get_AppPolicyGetProcessTerminationMethod@@YAP6AJPEAXPEAW4AppPolicyProcessTerminationMethod@@@ZXZ 0000000140026560 f   libucrtd:winapi_thunks.obj
 0001:00025590       ?try_get_AppPolicyGetShowDeveloperDiagnostic@@YAP6AJPEAXPEAW4AppPolicyShowDeveloperDiagnostic@@@ZXZ 0000000140026590 f   libucrtd:winapi_thunks.obj
 0001:000255c0       ?try_get_AppPolicyGetWindowingModel@@YAP6AJPEAXPEAW4AppPolicyWindowingModel@@@ZXZ 00000001400265c0 f   libucrtd:winapi_thunks.obj
 0001:000255f0       ?try_get_AreFileApisANSI@@YAP6AHXZXZ 00000001400265f0 f   libucrtd:winapi_thunks.obj
 0001:00025620       ?try_get_CompareStringEx@@YAP6AHPEB_WK0H0HPEAU_nlsversioninfo@@PEAX_J@ZXZ 0000000140026620 f   libucrtd:winapi_thunks.obj
 0001:00025650       ?try_get_GetActiveWindow@@YAP6APEAUHWND__@@XZXZ 0000000140026650 f   libucrtd:winapi_thunks.obj
 0001:00025680       ?try_get_GetLastActivePopup@@YAP6APEAUHWND__@@PEAU1@@ZXZ 0000000140026680 f   libucrtd:winapi_thunks.obj
 0001:000256b0       ?try_get_GetProcessWindowStation@@YAP6APEAUHWINSTA__@@XZXZ 00000001400266b0 f   libucrtd:winapi_thunks.obj
 0001:000256e0       ?try_get_GetUserObjectInformationW@@YAP6AHPEAXH0KPEAK@ZXZ 00000001400266e0 f   libucrtd:winapi_thunks.obj
 0001:00025710       ?try_get_InitializeCriticalSectionEx@@YAP6AHPEAU_RTL_CRITICAL_SECTION@@KK@ZXZ 0000000140026710 f   libucrtd:winapi_thunks.obj
 0001:00025740       ?try_get_LCMapStringEx@@YAP6AHPEB_WK0HPEA_WHPEAU_nlsversioninfo@@PEAX_J@ZXZ 0000000140026740 f   libucrtd:winapi_thunks.obj
 0001:00025770       ?try_get_LocaleNameToLCID@@YAP6AKPEB_WK@ZXZ 0000000140026770 f   libucrtd:winapi_thunks.obj
 0001:000257a0       ?try_get_MessageBoxA@@YAP6AHPEAUHWND__@@PEBD1I@ZXZ 00000001400267a0 f   libucrtd:winapi_thunks.obj
 0001:000257d0       ?try_get_MessageBoxW@@YAP6AHPEAUHWND__@@PEB_W1I@ZXZ 00000001400267d0 f   libucrtd:winapi_thunks.obj
 0001:00025800       ?try_get_first_available_module@@YAPEAUHINSTANCE__@@QEBW4module_id@?A0x391cf84c@@0@Z 0000000140026800 f   libucrtd:winapi_thunks.obj
 0001:00025860       ?try_get_function@@YAPEAXW4function_id@?A0x391cf84c@@QEBDQEBW4module_id@2@2@Z 0000000140026860 f   libucrtd:winapi_thunks.obj
 0001:00025a00       ?try_get_module@@YAPEAUHINSTANCE__@@W4module_id@?A0x391cf84c@@@Z 0000000140026a00 f   libucrtd:winapi_thunks.obj
 0001:00025b60       ?try_get_proc_address_from_first_available_module@@YAPEAXQEBDQEBW4module_id@?A0x391cf84c@@1@Z 0000000140026b60 f   libucrtd:winapi_thunks.obj
 0001:00025bb0       ?try_load_library_from_system_directory@@YAPEAUHINSTANCE__@@QEB_W@Z 0000000140026bb0 f   libucrtd:winapi_thunks.obj
 0001:00026610       ??$?RV<lambda_842d9ff0dc9ef11c61343bbaebe7f885>@@AEAV<lambda_c5860995281e5c4ce005b3de8f5874ee>@@V<lambda_d90129c13df834fdcbf8d2b88dafcf2d>@@@?$__crt_seh_guarded_call@X@@QEAAX$$QEAV<lambda_842d9ff0dc9ef11c61343bbaebe7f885>@@AEAV<lambda_c5860995281e5c4ce005b3de8f5874ee>@@$$QEAV<lambda_d90129c13df834fdcbf8d2b88dafcf2d>@@@Z 0000000140027610 f   libucrtd:fflush.obj
 0001:00026650       ??$?RV<lambda_886d6c58226a84441f68b9f2b8217b83>@@AEAV<lambda_ab61a845afdef5b7c387490eaf3616ee>@@V<lambda_f7f22ab5edc0698d5f6905b0d3f44752>@@@?$__crt_seh_guarded_call@X@@QEAAX$$QEAV<lambda_886d6c58226a84441f68b9f2b8217b83>@@AEAV<lambda_ab61a845afdef5b7c387490eaf3616ee>@@$$QEAV<lambda_f7f22ab5edc0698d5f6905b0d3f44752>@@@Z 0000000140027650 f   libucrtd:fflush.obj
 0001:00026690       ??$__acrt_lock_and_call@V<lambda_ab61a845afdef5b7c387490eaf3616ee>@@@@YAXW4__acrt_lock_id@@$$QEAV<lambda_ab61a845afdef5b7c387490eaf3616ee>@@@Z 0000000140027690 f   libucrtd:fflush.obj
 0001:000266f0       ??$__acrt_lock_stream_and_call@V<lambda_c5860995281e5c4ce005b3de8f5874ee>@@@@YAXQEAU_iobuf@@$$QEAV<lambda_c5860995281e5c4ce005b3de8f5874ee>@@@Z 00000001400276f0 f   libucrtd:fflush.obj
 0001:00026750       ??0<lambda_c5860995281e5c4ce005b3de8f5874ee>@@QEAA@AEBV__crt_stdio_stream@@AEAHAEB_N1@Z 0000000140027750 f   libucrtd:fflush.obj
 0001:000267b0       ??R<lambda_ab61a845afdef5b7c387490eaf3616ee>@@QEBA@XZ 00000001400277b0 f   libucrtd:fflush.obj
 0001:000268a0       ??R<lambda_c5860995281e5c4ce005b3de8f5874ee>@@QEBAXXZ 00000001400278a0 f   libucrtd:fflush.obj
 0001:00026950       ?_fflush_nolock_internal@@YAHQEAU_iobuf@@AEAV__crt_cached_ptd_host@@@Z 0000000140027950 f   libucrtd:fflush.obj
 0001:000269f0       ?common_flush_all@@YAH_N@Z 00000001400279f0 f   libucrtd:fflush.obj
 0001:00026a60       ?common_flush_all_should_try_to_flush_stream@@YA_NV__crt_stdio_stream@@QEAH@Z 0000000140027a60 f   libucrtd:fflush.obj
 0001:00026ad0       ?is_stream_allocated@@YA_NJ@Z 0000000140027ad0 f   libucrtd:fflush.obj
 0001:00026b00       ?is_stream_flushable@@YA_NJ@Z 0000000140027b00 f   libucrtd:fflush.obj
 0001:00026b30       ?is_stream_flushable_or_commitable@@YA_NJ@Z 0000000140027b30 f   libucrtd:fflush.obj
 0001:00026dc0       ?get_std_handle_id@@YAKH@Z 0000000140027dc0 f   libucrtd:ioinit.obj
 0001:00026e10       ?initialize_inherited_file_handles_nolock@@YAXXZ 0000000140027e10 f   libucrtd:ioinit.obj
 0001:00026fc0       ?initialize_stdio_handles_nolock@@YAXXZ 0000000140027fc0 f   libucrtd:ioinit.obj
 0001:00027310       ??$?RV<lambda_19eaff14c5fe7be5b1b106a862eb1091>@@AEAV<lambda_af29824b49a67d335554598d6cad2be6>@@V<lambda_3ce37f5b621ab310299ea5f68cbdf3bb>@@@?$__crt_seh_guarded_call@H@@QEAAH$$QEAV<lambda_19eaff14c5fe7be5b1b106a862eb1091>@@AEAV<lambda_af29824b49a67d335554598d6cad2be6>@@$$QEAV<lambda_3ce37f5b621ab310299ea5f68cbdf3bb>@@@Z 0000000140028310 f   libucrtd:close.obj
 0001:00027360       ??$__acrt_lowio_lock_fh_and_call@V<lambda_af29824b49a67d335554598d6cad2be6>@@@@YAHH$$QEAV<lambda_af29824b49a67d335554598d6cad2be6>@@@Z 0000000140028360 f   libucrtd:close.obj
 0001:000273c0       ??R<lambda_19eaff14c5fe7be5b1b106a862eb1091>@@QEBAXXZ 00000001400283c0 f   libucrtd:close.obj
 0001:000273c0       ??R<lambda_7d29013d608e9f25a034de83c9b9e983>@@QEBAXXZ 00000001400283c0 f   libucrtd:commit.obj
 0001:000273e0       ??R<lambda_3ce37f5b621ab310299ea5f68cbdf3bb>@@QEBAXXZ 00000001400283e0 f   libucrtd:close.obj
 0001:000273e0       ??R<lambda_b869e5a4e1069fcb5c3da79c0d999133>@@QEBAXXZ 00000001400283e0 f   libucrtd:commit.obj
 0001:00027400       ??R<lambda_af29824b49a67d335554598d6cad2be6>@@QEBAHXZ 0000000140028400 f   libucrtd:close.obj
 0001:000274d0       ?close_os_handle_nolock@@YAKH@Z 00000001400284d0 f   libucrtd:close.obj
 0001:00027ac0       ?find_or_allocate_unused_stream_nolock@@YA?AV__crt_stdio_stream@@XZ 0000000140028ac0 f   libucrtd:stream.obj
 0001:00027d00       ??$?RV<lambda_0ae27a3a962d80f24befdcbee591983d>@@AEAV<lambda_8d0ee55de4b1038c4002e0adecdf1839>@@V<lambda_dc504788e8f1664fe9b84e20bfb512f2>@@@?$__crt_seh_guarded_call@X@@QEAAX$$QEAV<lambda_0ae27a3a962d80f24befdcbee591983d>@@AEAV<lambda_8d0ee55de4b1038c4002e0adecdf1839>@@$$QEAV<lambda_dc504788e8f1664fe9b84e20bfb512f2>@@@Z 0000000140028d00 f   libucrtd:per_thread_data.obj
 0001:00027d40       ??$?RV<lambda_2d41944a1d46af3157314b8a01080d33>@@AEAV<lambda_8f455de75cd7d7f24b4096f044d8b9e6>@@V<lambda_aa500f224e6afead328df44964fe2772>@@@?$__crt_seh_guarded_call@X@@QEAAX$$QEAV<lambda_2d41944a1d46af3157314b8a01080d33>@@AEAV<lambda_8f455de75cd7d7f24b4096f044d8b9e6>@@$$QEAV<lambda_aa500f224e6afead328df44964fe2772>@@@Z 0000000140028d40 f   libucrtd:per_thread_data.obj
 0001:00027d80       ??$?RV<lambda_74a0ef281e44d15e1136f792f539efb3>@@AEAV<lambda_e157831efee4ea0afb0a2ace5dd5fd0d>@@V<lambda_04ddeca75b7c13fd67716e8dfcef87ee>@@@?$__crt_seh_guarded_call@X@@QEAAX$$QEAV<lambda_74a0ef281e44d15e1136f792f539efb3>@@AEAV<lambda_e157831efee4ea0afb0a2ace5dd5fd0d>@@$$QEAV<lambda_04ddeca75b7c13fd67716e8dfcef87ee>@@@Z 0000000140028d80 f   libucrtd:per_thread_data.obj
 0001:00027dc0       ??$?RV<lambda_aa87e3671a710a21b5dc78c0bdf72e11>@@AEAV<lambda_92619d2358a28f41a33ba319515a20b9>@@V<lambda_6992ecaafeb10aed2b74cb1fae11a551>@@@?$__crt_seh_guarded_call@X@@QEAAX$$QEAV<lambda_aa87e3671a710a21b5dc78c0bdf72e11>@@AEAV<lambda_92619d2358a28f41a33ba319515a20b9>@@$$QEAV<lambda_6992ecaafeb10aed2b74cb1fae11a551>@@@Z 0000000140028dc0 f   libucrtd:per_thread_data.obj
 0001:00027e00       ??$__acrt_lock_and_call@V<lambda_8d0ee55de4b1038c4002e0adecdf1839>@@@@YAXW4__acrt_lock_id@@$$QEAV<lambda_8d0ee55de4b1038c4002e0adecdf1839>@@@Z 0000000140028e00 f   libucrtd:per_thread_data.obj
 0001:00027e60       ??$__acrt_lock_and_call@V<lambda_8f455de75cd7d7f24b4096f044d8b9e6>@@@@YAXW4__acrt_lock_id@@$$QEAV<lambda_8f455de75cd7d7f24b4096f044d8b9e6>@@@Z 0000000140028e60 f   libucrtd:per_thread_data.obj
 0001:00027ec0       ??$__acrt_lock_and_call@V<lambda_92619d2358a28f41a33ba319515a20b9>@@@@YAXW4__acrt_lock_id@@$$QEAV<lambda_92619d2358a28f41a33ba319515a20b9>@@@Z 0000000140028ec0 f   libucrtd:per_thread_data.obj
 0001:00027f20       ??$__acrt_lock_and_call@V<lambda_e157831efee4ea0afb0a2ace5dd5fd0d>@@@@YAXW4__acrt_lock_id@@$$QEAV<lambda_e157831efee4ea0afb0a2ace5dd5fd0d>@@@Z 0000000140028f20 f   libucrtd:per_thread_data.obj
 0001:00027f80       ??R<lambda_8d0ee55de4b1038c4002e0adecdf1839>@@QEBAXXZ 0000000140028f80 f   libucrtd:per_thread_data.obj
 0001:00027fa0       ??R<lambda_8f455de75cd7d7f24b4096f044d8b9e6>@@QEBAXXZ 0000000140028fa0 f   libucrtd:per_thread_data.obj
 0001:00027fc0       ??R<lambda_92619d2358a28f41a33ba319515a20b9>@@QEBAXXZ 0000000140028fc0 f   libucrtd:per_thread_data.obj
 0001:00027ff0       ??R<lambda_e157831efee4ea0afb0a2ace5dd5fd0d>@@QEBAXXZ 0000000140028ff0 f   libucrtd:per_thread_data.obj
 0001:00028060       ?construct_ptd@@YAXQEAU__acrt_ptd@@QEAPEAU__crt_locale_data@@@Z 0000000140029060 f   libucrtd:per_thread_data.obj
 0001:00028140       ?construct_ptd_array@@YAXQEAU__acrt_ptd@@@Z 0000000140029140 f   libucrtd:per_thread_data.obj
 0001:000281b0       ?destroy_fls@@YAXPEAX@Z    00000001400291b0 f   libucrtd:per_thread_data.obj
 0001:000281f0       ?destroy_ptd@@YAXQEAU__acrt_ptd@@@Z 00000001400291f0 f   libucrtd:per_thread_data.obj
 0001:00028320       ?destroy_ptd_array@@YAXQEAU__acrt_ptd@@@Z 0000000140029320 f   libucrtd:per_thread_data.obj
 0001:00028370       ?internal_get_ptd_head@@YAPEAU__acrt_ptd@@XZ 0000000140029370 f   libucrtd:per_thread_data.obj
 0001:000284c0       ?internal_getptd_noexit@@YAPEAU__acrt_ptd@@AEBV__crt_scoped_get_last_error_reset@@_K@Z 00000001400294c0 f   libucrtd:per_thread_data.obj
 0001:00028500       ?internal_getptd_noexit@@YAPEAU__acrt_ptd@@XZ 0000000140029500 f   libucrtd:per_thread_data.obj
 0001:00028540       ?replace_current_thread_locale_nolock@@YAXQEAU__acrt_ptd@@QEAU__crt_locale_data@@@Z 0000000140029540 f   libucrtd:per_thread_data.obj
 0001:00028600       ?try_get_ptd_head@@YAPEAU__acrt_ptd@@XZ 0000000140029600 f   libucrtd:per_thread_data.obj
 0001:000291c8       $LN90                      000000014002a1c8     libucrtd:openfile.obj
 0001:00029200       $LN89                      000000014002a200     libucrtd:openfile.obj
 0001:00029260       ??$common_openfile@D@@YAPEAU_iobuf@@QEBD0HV__crt_stdio_stream@@@Z 000000014002a260 f   libucrtd:openfile.obj
 0001:00029860       ??$translate_text_mode_nolock@D@@YAHHQEAD_K@Z 000000014002a860 f   libucrtd:read.obj
 0001:00029c70       ??$translate_text_mode_nolock@_W@@YAHHQEA_W_K@Z 000000014002ac70 f   libucrtd:read.obj
 0001:0002a100       ?store_lookahead@@YAXHD@Z  000000014002b100 f   libucrtd:read.obj
 0001:0002a140       ?store_lookahead@@YAXH_W@Z 000000014002b140 f   libucrtd:read.obj
 0001:0002a220       ?translate_ansi_or_utf8_nolock@@YAHHQEAD_KQEA_W1@Z 000000014002b220 f   libucrtd:read.obj
 0001:0002a5c0       ?translate_utf16_from_console_nolock@@YAHHQEA_W_K@Z 000000014002b5c0 f   libucrtd:read.obj
 0001:0002b830       ??$common_refill_and_read_nolock@D@@YAHV__crt_stdio_stream@@@Z 000000014002c830 f   libucrtd:_filbuf.obj
 0001:0002bc00       ?get_context_nolock@@YAHV__crt_stdio_stream@@D@Z 000000014002cc00 f   libucrtd:_filbuf.obj
 0001:0002bc10       ?is_buffer_valid_nolock@@YA_NV__crt_stdio_stream@@D@Z 000000014002cc10 f   libucrtd:_filbuf.obj
 0001:0002bc60       ?read_character_nolock@@YAEV__crt_stdio_stream@@HD@Z 000000014002cc60 f   libucrtd:_filbuf.obj
 0001:0002bd00       ??$common_lseek@_J@@YA_JH_JHAEAV__crt_cached_ptd_host@@@Z 000000014002cd00 f   libucrtd:lseek.obj
 0001:0002c0b0       ??$common_lseek_nolock@_J@@YA_JH_JHAEAV__crt_cached_ptd_host@@@Z 000000014002d0b0 f   libucrtd:lseek.obj
 0001:0002c1e0       ?common_lseek_do_seek_nolock@@YA_JQEAX_JHAEAV__crt_cached_ptd_host@@@Z 000000014002d1e0 f   libucrtd:lseek.obj
 0001:0002c380       ?write_binary_nolock@@YA?AUwrite_result@?A0x17268360@@HQEBDI@Z 000000014002d380 f   libucrtd:write.obj
 0001:0002c450       ?write_double_translated_ansi_nolock@@YA?AUwrite_result@?A0x17268360@@HQEBDIAEAV__crt_cached_ptd_host@@@Z 000000014002d450 f   libucrtd:write.obj
 0001:0002d1b0       ?write_double_translated_unicode_nolock@@YA?AUwrite_result@?A0x17268360@@QEBDI@Z 000000014002e1b0 f   libucrtd:write.obj
 0001:0002d310       ?write_requires_double_translation_nolock@@YA_NHAEAV__crt_cached_ptd_host@@@Z 000000014002e310 f   libucrtd:write.obj
 0001:0002d420       ?write_text_ansi_nolock@@YA?AUwrite_result@?A0x17268360@@HQEBDI@Z 000000014002e420 f   libucrtd:write.obj
 0001:0002d650       ?write_text_utf16le_nolock@@YA?AUwrite_result@?A0x17268360@@HQEBDI@Z 000000014002e650 f   libucrtd:write.obj
 0001:0002d8a0       ?write_text_utf8_nolock@@YA?AUwrite_result@?A0x17268360@@HQEBDI@Z 000000014002e8a0 f   libucrtd:write.obj
 0001:0002e6a0       ??$common_flush_and_write_nolock@D@@YAHHV__crt_stdio_stream@@AEAV__crt_cached_ptd_host@@@Z 000000014002f6a0 f   libucrtd:_flsbuf.obj
 0001:0002e900       ??$write_buffer_nolock@D@@YA_NDV__crt_stdio_stream@@AEAV__crt_cached_ptd_host@@@Z 000000014002f900 f   libucrtd:_flsbuf.obj
 0001:0002ebb0       ?stream_is_at_end_of_file_nolock@@YA_NV__crt_stdio_stream@@@Z 000000014002fbb0 f   libucrtd:_flsbuf.obj
 0001:0002fb00       ??$common_strnlen@$00G@@YA_KQEBG_K@Z 0000000140030b00 f   libucrtd:strnlen.obj
 0001:0002fb60       ??$common_strnlen@$0A@E@@YA_KQEBE_K@Z 0000000140030b60 f   libucrtd:strnlen.obj
 0001:0002fbc0       ??$common_strnlen@$0A@G@@YA_KQEBG_K@Z 0000000140030bc0 f   libucrtd:strnlen.obj
 0001:0002fc20       ??$common_strnlen_c@$00G@@YA_KQEBG_K@Z 0000000140030c20 f   libucrtd:strnlen.obj
 0001:0002fca0       ??$common_strnlen_c@$0A@E@@YA_KQEBE_K@Z 0000000140030ca0 f   libucrtd:strnlen.obj
 0001:0002fd20       ??$common_strnlen_c@$0A@G@@YA_KQEBG_K@Z 0000000140030d20 f   libucrtd:strnlen.obj
 0001:0002fda0       ??$common_strnlen_simd@$00$00G@@YA_KQEBG_K@Z 0000000140030da0 f   libucrtd:strnlen.obj
 0001:00030040       ??$common_strnlen_simd@$00$0A@G@@YA_KQEBG_K@Z 0000000140031040 f   libucrtd:strnlen.obj
 0001:00030330       ??$common_strnlen_simd@$0A@$00E@@YA_KQEBE_K@Z 0000000140031330 f   libucrtd:strnlen.obj
 0001:000305b0       ??$common_strnlen_simd@$0A@$00G@@YA_KQEBG_K@Z 00000001400315b0 f   libucrtd:strnlen.obj
 0001:00030850       ??$common_strnlen_simd@$0A@$0A@E@@YA_KQEBE_K@Z 0000000140031850 f   libucrtd:strnlen.obj
 0001:00030b20       ??$common_strnlen_simd@$0A@$0A@G@@YA_KQEBG_K@Z 0000000140031b20 f   libucrtd:strnlen.obj
 0001:00030e10       ??$last_reached@$00@@YA_NQEBX0@Z 0000000140031e10 f   libucrtd:strnlen.obj
 0001:00030e20       ??$last_reached@$0A@@@YA_NQEBX0@Z 0000000140031e20 f   libucrtd:strnlen.obj
 0001:00031370       ?fe_to_nearest@@YA_NQEBN_KF@Z 0000000140032370 f   libucrtd:cvt.obj
 0001:000314c0       ?fp_format_a@@YAHQEBNPEAD_KQEAD2H_NIW4__acrt_rounding_mode@@AEAV__crt_cached_ptd_host@@@Z 00000001400324c0 f   libucrtd:cvt.obj
 0001:00031d10       ?fp_format_e@@YAHQEBNQEAD_K12H_NIW4__acrt_rounding_mode@@AEAV__crt_cached_ptd_host@@@Z 0000000140032d10 f   libucrtd:cvt.obj
 0001:00031ef0       ?fp_format_e_internal@@YAHQEAD_KH_NIQEAU_strflt@@2AEAV__crt_cached_ptd_host@@@Z 0000000140032ef0 f   libucrtd:cvt.obj
 0001:00032320       ?fp_format_f@@YAHQEBNQEAD_K12HW4__acrt_rounding_mode@@AEAV__crt_cached_ptd_host@@@Z 0000000140033320 f   libucrtd:cvt.obj
 0001:000324b0       ?fp_format_f_internal@@YAHQEAD_KHQEAU_strflt@@_NAEAV__crt_cached_ptd_host@@@Z 00000001400334b0 f   libucrtd:cvt.obj
 0001:000326f0       ?fp_format_g@@YAHQEBNQEAD_K12H_NIW4__acrt_rounding_mode@@AEAV__crt_cached_ptd_host@@@Z 00000001400336f0 f   libucrtd:cvt.obj
 0001:00032950       ?fp_format_nan_or_infinity@@YAHW4__acrt_fp_class@@_NPEAD_K1@Z 0000000140033950 f   libucrtd:cvt.obj
 0001:00032ac0       ?shift_bytes@@YAXQEAD_K0H@Z 0000000140033ac0 f   libucrtd:cvt.obj
 0001:00032b10       ?should_round_up@@YA_NQEBN_KFW4__acrt_rounding_mode@@@Z 0000000140033b10 f   libucrtd:cvt.obj
 0001:000332d8       $LN42                      00000001400342d8     libucrtd:cvt.obj
 0001:000332ec       $LN41                      00000001400342ec     libucrtd:cvt.obj
 0001:00033e30       ??$common_tcscat_s@_W@@YAHQEA_W_KQEB_W@Z 0000000140034e30 f   libucrtd:wcscat_s.obj
 0001:000344f0       ??$common_tcscpy_s@_W@@YAHQEA_W_KQEB_W@Z 00000001400354f0 f   libucrtd:wcscpy_s.obj
 0001:00034a20       ??$common_tcsncpy_s@_W@@YAHQEA_W_KQEB_W1@Z 0000000140035a20 f   libucrtd:wcsncpy_s.obj
 0001:00035110       ??$common_show_message_box@_W@@YAHQEB_W0I@Z 0000000140036110 f   libucrtd:crtmbox.obj
 0001:000352f0       ?<lambda_invoker_cdecl>@<lambda_a1ce4c8ae42411fd470c77163914f50e>@@CAHPEBX0@Z 00000001400362f0 f   libucrtd:argv_wildcards.obj
 0001:00035720       ??$common_expand_argv_wildcards@D@@YAHQEAPEADQEAPEAPEAD@Z 0000000140036720 f   libucrtd:argv_wildcards.obj
 0001:00035b50       ??$copy_and_add_argument_to_buffer@D@@YAHQEBD0_KAEAV?$argument_list@D@?A0x5f5c8891@@@Z 0000000140036b50 f   libucrtd:argv_wildcards.obj
 0001:00035d00       ??$expand_argument_wildcards@D@@YAHQEAD0AEAV?$argument_list@D@?A0x5f5c8891@@@Z 0000000140036d00 f   libucrtd:argv_wildcards.obj
 0001:000361f0       ??0?$argument_list@D@?A0x5f5c8891@@QEAA@XZ 00000001400371f0 f   libucrtd:argv_wildcards.obj
 0001:00036280       ??1?$argument_list@D@?A0x5f5c8891@@QEAA@XZ 0000000140037280 f   libucrtd:argv_wildcards.obj
 0001:000362f0       ??B<lambda_a1ce4c8ae42411fd470c77163914f50e>@@QEBAP6AHPEBX0@ZXZ 00000001400372f0 f   libucrtd:argv_wildcards.obj
 0001:00036350       ??R<lambda_a1ce4c8ae42411fd470c77163914f50e>@@QEBAHPEBX0@Z 0000000140037350 f   libucrtd:argv_wildcards.obj
 0001:00036390       ??R<lambda_cfae5a0e6efa98e0d1aa03c4cec8f74e>@@QEBA_ND@Z 0000000140037390 f   libucrtd:argv_wildcards.obj
 0001:000366a0       ?append@?$argument_list@D@?A0x5f5c8891@@QEAAHQEAD@Z 00000001400376a0 f   libucrtd:argv_wildcards.obj
 0001:000367e0       ?end@?$argument_list@D@?A0x5f5c8891@@QEBAPEAPEADXZ 00000001400377e0 f   libucrtd:argv_wildcards.obj
 0001:000367f0       ?expand_if_necessary@?$argument_list@D@?A0x5f5c8891@@AEAAHXZ 00000001400377f0 f   libucrtd:argv_wildcards.obj
 0001:000369d0       ?get_file_name@@YAPEADQEAV?$__crt_win32_buffer@DU__crt_win32_buffer_internal_dynamic_resizing@@@@QEA_W@Z 00000001400379d0 f   libucrtd:argv_wildcards.obj
 0001:00036a20       ?get_wide@@YAPEA_WQEAV?$__crt_win32_buffer@_WU__crt_win32_buffer_internal_dynamic_resizing@@@@QEAD@Z 0000000140037a20 f   libucrtd:argv_wildcards.obj
 0001:00036a70       ?previous_character@@YAPEADQEAD0@Z 0000000140037a70 f   libucrtd:argv_wildcards.obj
 0001:00036b00       ?size@?$argument_list@D@?A0x5f5c8891@@QEBA_KXZ 0000000140037b00 f   libucrtd:argv_wildcards.obj
 0001:00037060       ??$?RV<lambda_efa02eb69bf647d2f7ff0dd6f1103f72>@@AEAV<lambda_bd5a608237428601b7e45fbdc72b1ae8>@@V<lambda_728235dc0fc2b1f82d1fa5b3e7102d8f>@@@?$__crt_seh_guarded_call@X@@QEAAX$$QEAV<lambda_efa02eb69bf647d2f7ff0dd6f1103f72>@@AEAV<lambda_bd5a608237428601b7e45fbdc72b1ae8>@@$$QEAV<lambda_728235dc0fc2b1f82d1fa5b3e7102d8f>@@@Z 0000000140038060 f   libucrtd:mbctype.obj
 0001:000370a0       ??$__acrt_lock_and_call@V<lambda_bd5a608237428601b7e45fbdc72b1ae8>@@@@YAXW4__acrt_lock_id@@$$QEAV<lambda_bd5a608237428601b7e45fbdc72b1ae8>@@@Z 00000001400380a0 f   libucrtd:mbctype.obj
 0001:000371e0       ??R<lambda_bd5a608237428601b7e45fbdc72b1ae8>@@QEBAXXZ 00000001400381e0 f   libucrtd:mbctype.obj
 0001:00037310       ?CPtoLocaleName@@YAPEB_WH@Z 0000000140038310 f   libucrtd:mbctype.obj
 0001:000373b0       ?getSystemCP@@YAHH@Z       00000001400383b0 f   libucrtd:mbctype.obj
 0001:00037490       ?setSBCS@@YAXPEAU__crt_multibyte_data@@@Z 0000000140038490 f   libucrtd:mbctype.obj
 0001:00037590       ?setSBUpLow@@YAXPEAU__crt_multibyte_data@@@Z 0000000140038590 f   libucrtd:mbctype.obj
 0001:00037980       ?setmbcp_internal@@YAHH_NQEAU__acrt_ptd@@QEAPEAU__crt_multibyte_data@@@Z 0000000140038980 f   libucrtd:mbctype.obj
 0001:00037c00       ?update_thread_multibyte_data_internal@@YAPEAU__crt_multibyte_data@@QEAU__acrt_ptd@@QEAPEAU1@@Z 0000000140038c00 f   libucrtd:mbctype.obj
 0001:00038310       ?x_ismbbtype_l@@YAHPEAU__crt_locale_pointers@@IHH@Z 0000000140039310 f   libucrtd:ismbbyte.obj
 0001:00038400       ?filter_mbtowcs_flags@@YAKIK@Z 0000000140039400 f   libucrtd:multibytetowidechar.obj
 0001:00038500       ?filter_wcstomb_flags@@YAKIK@Z 0000000140039500 f   libucrtd:widechartomultibyte.obj
 0001:000386d0       ??1?$__crt_unique_handle_t@Uenvironment_strings_traits@?A0x1bf47908@@@@QEAA@XZ 00000001400396d0 f   libucrtd:get_environment_from_os.obj
 0001:000386f0       ?close@?$__crt_unique_handle_t@Uenvironment_strings_traits@?A0x1bf47908@@@@QEAAXXZ 00000001400396f0 f   libucrtd:get_environment_from_os.obj
 0001:00038730       ?close@environment_strings_traits@?A0x1bf47908@@SA_NPEA_W@Z 0000000140039730 f   libucrtd:get_environment_from_os.obj
 0001:00038750       ?find_end_of_double_null_terminated_sequence@@YAPEB_WQEB_W@Z 0000000140039750 f   libucrtd:get_environment_from_os.obj
 0001:000387a0       ?is_valid@?$__crt_unique_handle_t@Uenvironment_strings_traits@?A0x1bf47908@@@@QEBA_NXZ 00000001400397a0 f   libucrtd:get_environment_from_os.obj
 0001:00038a10       ??$common_set_variable_in_environment_nolock@D@@YAHQEADH@Z 0000000140039a10 f   libucrtd:setenv.obj
 0001:00039290       ??$copy_environment@D@@YAPEAPEADQEAPEAD@Z 000000014003a290 f   libucrtd:setenv.obj
 0001:00039460       ??$ensure_current_environment_is_not_initial_environment_nolock@D@@YAXXZ 000000014003a460 f   libucrtd:setenv.obj
 0001:000394b0       ??$find_in_environment_nolock@D@@YA_JQEBD_K@Z 000000014003a4b0 f   libucrtd:setenv.obj
 0001:00039670       ?get_other_environment@@YAAEAPEAPEA_WD@Z 000000014003a670 f   libucrtd:setenv.obj
 0001:00039800       ??$get_cached_win_policy@Udeveloper_information_policy_properties@?1??__acrt_get_developer_information_policy@@YA?AW4developer_information_policy@@XZ@@@YA?AW4developer_information_policy@@W4AppPolicyShowDeveloperDiagnostic@@@Z 000000014003a800 f   libucrtd:win_policies.obj
 0001:000398d0       ??$get_cached_win_policy@Uwindowing_model_policy_properties@?1??__acrt_get_windowing_model_policy@@YA?AW4windowing_model_policy@@XZ@@@YA?AW4windowing_model_policy@@W4AppPolicyWindowingModel@@@Z 000000014003a8d0 f   libucrtd:win_policies.obj
 0001:000399a0       ??$get_win_policy@Uprocess_end_policy_properties@?1??__acrt_get_process_end_policy@@YA?AW4process_end_policy@@XZ@@@YA?AW4process_end_policy@@W4AppPolicyProcessTerminationMethod@@@Z 000000014003a9a0 f   libucrtd:win_policies.obj
 0001:000399f0       ?appmodel_get_policy@developer_information_policy_properties@?1??__acrt_get_developer_information_policy@@YA?AW4developer_information_policy@@XZ@SAJPEAW4AppPolicyShowDeveloperDiagnostic@@@Z 000000014003a9f0 f   libucrtd:win_policies.obj
 0001:00039a10       ?appmodel_get_policy@process_end_policy_properties@?1??__acrt_get_process_end_policy@@YA?AW4process_end_policy@@XZ@SAJPEAW4AppPolicyProcessTerminationMethod@@@Z 000000014003aa10 f   libucrtd:win_policies.obj
 0001:00039a30       ?appmodel_get_policy@windowing_model_policy_properties@?1??__acrt_get_windowing_model_policy@@YA?AW4windowing_model_policy@@XZ@SAJPEAW4AppPolicyWindowingModel@@@Z 000000014003aa30 f   libucrtd:win_policies.obj
 0001:00039a50       ?appmodel_policy_to_policy_type@developer_information_policy_properties@?1??__acrt_get_developer_information_policy@@YA?AW4developer_information_policy@@XZ@SA?AW43@J@Z 000000014003aa50 f   libucrtd:win_policies.obj
 0001:00039a70       ?appmodel_policy_to_policy_type@process_end_policy_properties@?1??__acrt_get_process_end_policy@@YA?AW4process_end_policy@@XZ@SA?AW43@W4AppPolicyProcessTerminationMethod@@@Z 000000014003aa70 f   libucrtd:win_policies.obj
 0001:00039a90       ?appmodel_policy_to_policy_type@windowing_model_policy_properties@?1??__acrt_get_windowing_model_policy@@YA?AW4windowing_model_policy@@XZ@SA?AW43@J@Z 000000014003aa90 f   libucrtd:win_policies.obj
 0001:00039e80       ??$free_crt_array@D$01@@YAXAEAY01PEAD@Z 000000014003ae80 f   libucrtd:inittime.obj
 0001:00039e80       ??$free_crt_array@_W$01@@YAXAEAY01PEA_W@Z 000000014003ae80 f   libucrtd:inittime.obj
 0001:00039ea0       ??$free_crt_array@D$06@@YAXAEAY06PEAD@Z 000000014003aea0 f   libucrtd:inittime.obj
 0001:00039ea0       ??$free_crt_array@_W$06@@YAXAEAY06PEA_W@Z 000000014003aea0 f   libucrtd:inittime.obj
 0001:00039ec0       ??$free_crt_array@D$0M@@@YAXAEAY0M@PEAD@Z 000000014003aec0 f   libucrtd:inittime.obj
 0001:00039ec0       ??$free_crt_array@_W$0M@@@YAXAEAY0M@PEA_W@Z 000000014003aec0 f   libucrtd:inittime.obj
 0001:00039ee0       ?free_crt_array_internal@@YAXQEAPEBX_K@Z 000000014003aee0 f   libucrtd:inittime.obj
 0001:0003b230       ??$?RV<lambda_450d765d439847d4c735a33c368b5fc0>@@AEAV<lambda_44731a7d0e6d81c3e6aa82d741081786>@@V<lambda_601a2a7da3b7a96e9554ac7215c4b07c>@@@?$__crt_seh_guarded_call@P6AXH@Z@@QEAAP6AXH@Z$$QEAV<lambda_450d765d439847d4c735a33c368b5fc0>@@AEAV<lambda_44731a7d0e6d81c3e6aa82d741081786>@@$$QEAV<lambda_601a2a7da3b7a96e9554ac7215c4b07c>@@@Z 000000014003c230 f   libucrtd:signal.obj
 0001:0003b280       ??$__acrt_lock_and_call@V<lambda_44731a7d0e6d81c3e6aa82d741081786>@@@@YAP6AXH@ZW4__acrt_lock_id@@$$QEAV<lambda_44731a7d0e6d81c3e6aa82d741081786>@@@Z 000000014003c280 f   libucrtd:signal.obj
 0001:0003b2e0       ??R<lambda_44731a7d0e6d81c3e6aa82d741081786>@@QEBAP6AXH@ZXZ 000000014003c2e0 f   libucrtd:signal.obj
 0001:0003b310       ?get_global_action_nolock@@YAPEAP6AXH@ZH@Z 000000014003c310 f   libucrtd:signal.obj
 0001:0003b3a0       ?siglookup@@YAPEAU__crt_signal_action_t@@HQEAU1@@Z 000000014003c3a0 f   libucrtd:signal.obj
 0001:0003b974       $LN58                      000000014003c974     libucrtd:signal.obj
 0001:0003b980       $LN57                      000000014003c980     libucrtd:signal.obj
 0001:0003b9a0       ?select_heap@@YAPEAXQEAX@Z 000000014003c9a0 f   libucrtd:free_base.obj
 0001:0003bac0       ?is_contraction_possible@@YA_N_K@Z 000000014003cac0 f   libucrtd:expand.obj
 0001:0003d470       ?GetTableIndexFromLocaleName@@YAHPEB_W@Z 000000014003e470 f   libucrtd:lcidtoname_downlevel.obj
 0001:0003d580       ??$?RV<lambda_7d29013d608e9f25a034de83c9b9e983>@@AEAV<lambda_3e4146214822e0ea86c47ff907aef2ff>@@V<lambda_b869e5a4e1069fcb5c3da79c0d999133>@@@?$__crt_seh_guarded_call@H@@QEAAH$$QEAV<lambda_7d29013d608e9f25a034de83c9b9e983>@@AEAV<lambda_3e4146214822e0ea86c47ff907aef2ff>@@$$QEAV<lambda_b869e5a4e1069fcb5c3da79c0d999133>@@@Z 000000014003e580 f   libucrtd:commit.obj
 0001:0003d5d0       ??$__acrt_lowio_lock_fh_and_call@V<lambda_3e4146214822e0ea86c47ff907aef2ff>@@@@YAHH$$QEAV<lambda_3e4146214822e0ea86c47ff907aef2ff>@@@Z 000000014003e5d0 f   libucrtd:commit.obj
 0001:0003d630       ??R<lambda_3e4146214822e0ea86c47ff907aef2ff>@@QEBAHXZ 000000014003e630 f   libucrtd:commit.obj
 0001:0003e040       ??$common_sopen_dispatch@D@@YAHQEBDHHHQEAHH@Z 000000014003f040 f   libucrtd:open.obj
 0001:0003e400       ?configure_text_mode@@YAHHUfile_options@?A0xa9d50aae@@HAEAW4__crt_lowio_text_mode@@@Z 000000014003f400 f   libucrtd:open.obj
 0001:0003e9a0       ?create_file@@YAPEAXQEB_WQEAU_SECURITY_ATTRIBUTES@@Ufile_options@?A0xa9d50aae@@@Z 000000014003f9a0 f   libucrtd:open.obj
 0001:0003ea10       ?decode_access_flags@@YAKH@Z 000000014003fa10 f   libucrtd:open.obj
 0001:0003eb30       ?decode_open_create_flags@@YAKH@Z 000000014003fb30 f   libucrtd:open.obj
 0001:0003ec80       ?decode_options@@YA?AUfile_options@?A0xa9d50aae@@HHH@Z 000000014003fc80 f   libucrtd:open.obj
 0001:0003ee10       ?decode_sharing_flags@@YAKHH@Z 000000014003fe10 f   libucrtd:open.obj
 0001:0003ef40       ?is_text_mode@@YA_NH@Z     000000014003ff40 f   libucrtd:open.obj
 0001:0003efc0       ?truncate_ctrl_z_if_present@@YAHH@Z 000000014003ffc0 f   libucrtd:open.obj
 0001:0003fc50       ??R<lambda_599026849492e2a71b24cce8b46aab16>@@QEBA_KPEBD@Z 0000000140040c50 f   libucrtd:mbrtowc.obj
 0001:000400e0       ?check_trailing@@YA_NPEBDW4__acrt_has_trailing_digits@@@Z 00000001400410e0 f   libucrtd:_fptostr.obj
 0001:00040130       ?should_round_up@@YA_NQEBD0HW4__acrt_has_trailing_digits@@W4__acrt_rounding_mode@@@Z 0000000140041130 f   libucrtd:_fptostr.obj
 0001:000407d0       ??$convert_to_fos_high_precision@N@@YA?AW4__acrt_has_trailing_digits@@NIW4__acrt_precision_style@@QEAHQEAD_K@Z 00000001400417d0 f   libucrtd:cfout.obj
 0001:00040ef0       ??0scoped_fp_state_reset@?A0x71ca7cfb@@QEAA@XZ 0000000140041ef0 f   libucrtd:cfout.obj
 0001:00040f40       ??1scoped_fp_state_reset@?A0x71ca7cfb@@QEAA@XZ 0000000140041f40 f   libucrtd:cfout.obj
 0001:00042e00       ?shortsort@@YAXPEAD0_KP6AHPEBX2@Z@Z 0000000140043e00 f   libucrtd:qsort.obj
 0001:00042f00       ?swap@@YAXPEAD0_K@Z        0000000140043f00 f   libucrtd:qsort.obj
 0001:00043770       ??$common_tcsncpy_s@D@@YAHQEAD_KQEBD1@Z 0000000140044770 f   libucrtd:strncpy_s.obj
 0001:00043e40       fallbackMethod             0000000140044e40 f   libucrtd:strpbrk.obj
 0001:000447a4       $LN85                      00000001400457a4     libucrtd:strpbrk.obj
 0001:000447e0       $LN84                      00000001400457e0     libucrtd:strpbrk.obj
 0001:00044820       $LN83                      0000000140045820     libucrtd:strpbrk.obj
 0001:00044b20       ?__acrt_LCMapStringA_stat@@YAHPEAU__crt_locale_pointers@@PEB_WKPEBDHPEADHHH@Z 0000000140045b20 f   libucrtd:lcmapstringa.obj
 0001:000451d0       ?initialize_multibyte@@YAHXZ 00000001400461d0 f   libucrtd:multibyte_initializer.obj
 0001:00045770       ??$common_xtox@KD@@YAHKQEAD_KI_N@Z 0000000140046770 f   libucrtd:xtoa.obj
 0001:000459b0       ??$common_xtox@K_W@@YAHKQEA_W_KI_N@Z 00000001400469b0 f   libucrtd:xtoa.obj
 0001:00045c00       ??$common_xtox_s@KD@@YAHKQEAD_KI_N@Z 0000000140046c00 f   libucrtd:xtoa.obj
 0001:00045fb0       ??$common_xtox_s@K_W@@YAHKQEA_W_KI_N@Z 0000000140046fb0 f   libucrtd:xtoa.obj
 0001:000464c0       ?_mbstowcs_internal@@YAHPEA_KPEA_W_KPEBD2AEAV__crt_cached_ptd_host@@@Z 00000001400474c0 f   libucrtd:mbstowcs.obj
 0001:00046aa0       ?_mbstowcs_l_helper@@YA_KPEA_WPEBD_KAEAV__crt_cached_ptd_host@@@Z 0000000140047aa0 f   libucrtd:mbstowcs.obj
 0001:00047050       ?_wcstombs_internal@@YAHPEA_KPEAD_KPEB_W2AEAV__crt_cached_ptd_host@@@Z 0000000140048050 f   libucrtd:wcstombs.obj
 0001:00047620       ?_wcstombs_l_helper@@YA_KPEADPEB_W_KAEAV__crt_cached_ptd_host@@@Z 0000000140048620 f   libucrtd:wcstombs.obj
 0001:00047db0       ?wcsncnt@@YA_KPEB_W_K@Z    0000000140048db0 f   libucrtd:wcstombs.obj
 0001:00047ec0       ??$common_tcscat_s@D@@YAHQEAD_KQEBD@Z 0000000140048ec0 f   libucrtd:strcat_s.obj
 0001:00048dd0       ??$console_output_reopen_and_retry@V<lambda_61c1b8a38cedca4df5fdc542e6ccae6d>@@@@YAHAEBV<lambda_61c1b8a38cedca4df5fdc542e6ccae6d>@@@Z 0000000140049dd0 f   libucrtd:initcon.obj
 0001:00048e30       ??0<lambda_61c1b8a38cedca4df5fdc542e6ccae6d>@@QEAA@AEBQEBXAEBKAEBQEAK@Z 0000000140049e30 f   libucrtd:initcon.obj
 0001:00048e80       ??R<lambda_61c1b8a38cedca4df5fdc542e6ccae6d>@@QEBAHXZ 0000000140049e80 f   libucrtd:initcon.obj
 0001:00048ec0       ?__dcrt_lowio_initialize_console_output@@YAXXZ 0000000140049ec0 f   libucrtd:initcon.obj
 0001:00048fb0       $$000000                   0000000140049fb0     libucrtd:log10.obj
 0001:00049af0       ??$to_abstract_status@W4__acrt_fenv_machine_sse_status@@@@YA?AW4__acrt_fenv_abstract_status@@W4__acrt_fenv_machine_sse_status@@@Z 000000014004aaf0 f   libucrtd:_fenvutils.obj
 0001:00049b10       ??$translate_control_exception_mask@W4__acrt_fenv_abstract_control@@W4__acrt_fenv_machine_sse_control@@@@YA?AW4__acrt_fenv_abstract_control@@W4__acrt_fenv_machine_sse_control@@@Z 000000014004ab10 f   libucrtd:_fenvutils.obj
 0001:00049c00       ??$translate_control_exception_mask@W4__acrt_fenv_machine_sse_control@@W4__acrt_fenv_abstract_control@@@@YA?AW4__acrt_fenv_machine_sse_control@@W4__acrt_fenv_abstract_control@@@Z 000000014004ac00 f   libucrtd:_fenvutils.obj
 0001:00049cf0       ??$translate_control_rounding_control@W4__acrt_fenv_abstract_control@@W4__acrt_fenv_machine_sse_control@@@@YA?AW4__acrt_fenv_abstract_control@@W4__acrt_fenv_machine_sse_control@@@Z 000000014004acf0 f   libucrtd:_fenvutils.obj
 0001:00049d60       ??$translate_control_rounding_control@W4__acrt_fenv_machine_sse_control@@W4__acrt_fenv_abstract_control@@@@YA?AW4__acrt_fenv_machine_sse_control@@W4__acrt_fenv_abstract_control@@@Z 000000014004ad60 f   libucrtd:_fenvutils.obj
 0001:00049dd0       ??$translate_status@W4__acrt_fenv_abstract_status@@W4__acrt_fenv_machine_sse_status@@@@YA?AW4__acrt_fenv_abstract_status@@W4__acrt_fenv_machine_sse_status@@@Z 000000014004add0 f   libucrtd:_fenvutils.obj
 0001:00049ec0       ??$translate_status@W4__acrt_fenv_machine_sse_status@@W4__acrt_fenv_abstract_status@@@@YA?AW4__acrt_fenv_machine_sse_status@@W4__acrt_fenv_abstract_status@@@Z 000000014004aec0 f   libucrtd:_fenvutils.obj
 0001:0004a190       ?get_machine_sse_control@@YA?AW4__acrt_fenv_machine_sse_control@@XZ 000000014004b190 f   libucrtd:_fenvutils.obj
 0001:0004a1b0       ?get_machine_sse_status@@YA?AW4__acrt_fenv_machine_sse_status@@XZ 000000014004b1b0 f   libucrtd:_fenvutils.obj
 0001:0004a1d0       ?set_machine_sse_control@@YAXW4__acrt_fenv_machine_sse_control@@@Z 000000014004b1d0 f   libucrtd:_fenvutils.obj
 0001:0004a230       ?set_machine_sse_status@@YAXW4__acrt_fenv_machine_sse_status@@@Z 000000014004b230 f   libucrtd:_fenvutils.obj
 0001:0004a280       ?to_abstract_control@@YA?AW4__acrt_fenv_abstract_control@@W4__acrt_fenv_machine_sse_control@@@Z 000000014004b280 f   libucrtd:_fenvutils.obj
 0001:0004a2e0       ?to_machine_sse_control@@YA?AW4__acrt_fenv_machine_sse_control@@W4__acrt_fenv_abstract_control@@@Z 000000014004b2e0 f   libucrtd:_fenvutils.obj
 0001:0004a350       ?to_machine_sse_status@@YA?AW4__acrt_fenv_machine_sse_status@@W4__acrt_fenv_abstract_status@@@Z 000000014004b350 f   libucrtd:_fenvutils.obj
 0001:0004a370       ?translate_control_denormal_control_from_sse@@YA?AW4__acrt_fenv_abstract_control@@W4__acrt_fenv_machine_sse_control@@@Z 000000014004b370 f   libucrtd:_fenvutils.obj
 0001:0004a3f0       ?translate_control_denormal_control_to_sse@@YA?AW4__acrt_fenv_machine_sse_control@@W4__acrt_fenv_abstract_control@@@Z 000000014004b3f0 f   libucrtd:_fenvutils.obj
 0001:0004a610       ?InternalCompareStringA@@YAHPEAU__crt_locale_pointers@@PEB_WKPEBDH2HH@Z 000000014004b610 f   libucrtd:comparestringa.obj
 0001:0004b0e0       _log_special_common        000000014004c0e0 f   libucrtd:log_special.obj
 0001:0004b200       _call_matherr              000000014004c200 f   libucrtd:libm_error.obj
 0001:0004b290       _exception_enabled         000000014004c290 f   libucrtd:libm_error.obj
 0001:0004b5b0       _abstract_cw               000000014004c5b0 f   libucrtd:ieee.obj
 0001:0004b700       _abstract_sw               000000014004c700 f   libucrtd:ieee.obj
 0001:0004b7e0       _hw_cw                     000000014004c7e0 f   libucrtd:ieee.obj
 0001:0004b930       common_control87           000000014004c930 f   libucrtd:ieee.obj
 0001:0004bb80       ?combine_second_surrogate@?A0xc60ee810@@YA_U_SPEAU_Mbstatet@@@Z 000000014004cb80 f   libucrtd:c16rtomb.obj
 0001:0004bba0       ?has_surrogate@?A0xc60ee810@@YA_NPEAU_Mbstatet@@@Z 000000014004cba0 f   libucrtd:c16rtomb.obj
 0001:0004bbd0       ?is_first_surrogate@?A0xc60ee810@@YA_N_S@Z 000000014004cbd0 f   libucrtd:c16rtomb.obj
 0001:0004bc10       ?is_second_surrogate@?A0xc60ee810@@YA_N_S@Z 000000014004cc10 f   libucrtd:c16rtomb.obj
 0001:0004bc50       ?store_first_surrogate@?A0xc60ee810@@YAX_SPEAU_Mbstatet@@@Z 000000014004cc50 f   libucrtd:c16rtomb.obj
 0001:0004c510       $$000000                   000000014004d510     libucrtd:fpsr.obj
 0001:0004c870       $$000000                   000000014004d870     LIBCMTD:chkstk.obj
 0001:0004ca30       $$000000                   000000014004da30     libvcruntimed:memcmp.obj
 0001:0004d0c0       $$000000                   000000014004e0c0     LIBCMTD:guard_dispatch.obj
 0001:0004d0e0       $$000000                   000000014004e0e0     LIBCMTD:guard_xfg_dispatch.obj
 0001:0004d100       ?filt$0@?0??__scrt_common_main_seh@@YAHXZ@4HA 000000014004e100 f   LIBCMTD:exe_main.obj
 0001:0004d130       __scrt_is_nonwritable_in_current_image$filt$0 000000014004e130 f   LIBCMTD:utility.obj
 0001:0004d170       __DestructExceptionObject$filt$0 000000014004e170 f   libvcruntimed:ehhelpers.obj
 0001:0004d1a0       ?filt$0@?0???$_CallSETranslator@V__FrameHandler3@@@@YAHPEAUEHExceptionRecord@@PEA_KPEAU_CONTEXT@@PEAU_xDISPATCHER_CONTEXT@@PEBU_s_FuncInfo@@K1H@Z@4HA 000000014004e1a0 f   libvcruntimed:risctrnsctrl.obj
 0001:0004d210       ?filt$0@?0??is_bad_read_pointer@@YA_NQEBX_K@Z@4HA 000000014004e210 f   libucrtd:debug_heap.obj
 0001:0004d210       terminate$filt$0           000000014004e210 f   libucrtd:terminate.obj
 0001:0004d210       ?filt$0@?0???$BuildCatchObjectHelperInternal@V__FrameHandler3@@@@YAHPEAUEHExceptionRecord@@PEAXPEBU_s_HandlerType@@PEBU_s_CatchableType@@@Z@4HA 000000014004e210 f   libvcruntimed:frame.obj
 0001:0004d210       ?filt$0@?0???$BuildCatchObjectInternal@V__FrameHandler3@@@@YAXPEAUEHExceptionRecord@@PEAXPEBU_s_HandlerType@@PEBU_s_CatchableType@@@Z@4HA 000000014004e210 f   libvcruntimed:frame.obj
 0001:0004d230       ?filt$0@?0??CxxCallCatchBlock@__FrameHandler3@@SAPEAXPEAU_EXCEPTION_RECORD@@@Z@4HA 000000014004e230 f   libvcruntimed:frame.obj
 0001:0004d259       ?fin$1@?0??CxxCallCatchBlock@__FrameHandler3@@SAPEAXPEAU_EXCEPTION_RECORD@@@Z@4HA 000000014004e259 f   libvcruntimed:frame.obj
 0001:0004d2f0       ?filt$0@?0??FrameUnwindToState@__FrameHandler3@@SAXPEA_KPEAU_xDISPATCHER_CONTEXT@@PEBU_s_FuncInfo@@H@Z@4HA 000000014004e2f0 f   libvcruntimed:frame.obj
 0001:0004d311       ?fin$1@?0??FrameUnwindToState@__FrameHandler3@@SAXPEA_KPEAU_xDISPATCHER_CONTEXT@@PEBU_s_FuncInfo@@H@Z@4HA 000000014004e311 f   libvcruntimed:frame.obj
 0001:0004d350       ?fin$0@?0??_fclose_internal@@YAHQEAU_iobuf@@AEAV__crt_cached_ptd_host@@@Z@4HA 000000014004e350 f   libucrtd:fclose.obj
 0001:0004d380       ?fin$0@?0???$common_fsopen@D@@YAPEAU_iobuf@@QEBD0H@Z@4HA 000000014004e380 f   libucrtd:fopen.obj
 0001:0004d3b0       fread_s$fin$0              000000014004e3b0 f   libucrtd:fread.obj
 0001:0004d3d0       ?fin$0@?0??common_fseek@@YAHV__crt_stdio_stream@@_JHAEAV__crt_cached_ptd_host@@@Z@4HA 000000014004e3d0 f   libucrtd:fseek.obj
 0001:0004d400       ?fin$0@?0???$common_ftell@J@@YAJV__crt_stdio_stream@@AEAV__crt_cached_ptd_host@@@Z@4HA 000000014004e400 f   libucrtd:ftell.obj
 0001:0004d430       ?fin$0@?0???$?RV<lambda_a2589f19c515cac03caf6db9c38355e9>@@AEAV<lambda_26974eb511f701c600fccfa2a97a8e1b>@@V<lambda_ad9ce2f38261e34e8a422b9cc35dfe8d>@@@?$__crt_seh_guarded_call@_K@@QEAA_K$$QEAV<lambda_a2589f19c515cac03caf6db9c38355e9>@@AEAV<lambda_26974eb511f701c600fccfa2a97a8e1b>@@$$QEAV<lambda_ad9ce2f38261e34e8a422b9cc35dfe8d>@@@Z@4HA 000000014004e430 f   libucrtd:fwrite.obj
 0001:0004d430       ?fin$0@?0???$?RV<lambda_d854c62834386a3b23916ad6dae2782d>@@AEAV<lambda_303760bc4008a2b3ec4768a30b06a80c>@@V<lambda_4780a7ea4f8cbd2590aec34bd14e2bbf>@@@?$__crt_seh_guarded_call@H@@QEAAH$$QEAV<lambda_d854c62834386a3b23916ad6dae2782d>@@AEAV<lambda_303760bc4008a2b3ec4768a30b06a80c>@@$$QEAV<lambda_4780a7ea4f8cbd2590aec34bd14e2bbf>@@@Z@4HA 000000014004e430 f   libucrtd:output.obj
 0001:0004d450       ?fin$0@?0??_perror_internal@@YAXQEBDAEAV__crt_cached_ptd_host@@@Z@4HA 000000014004e450 f   libucrtd:perror.obj
 0001:0004d470       ?fin$0@?0???$?RV<lambda_0ae27a3a962d80f24befdcbee591983d>@@AEAV<lambda_8d0ee55de4b1038c4002e0adecdf1839>@@V<lambda_dc504788e8f1664fe9b84e20bfb512f2>@@@?$__crt_seh_guarded_call@X@@QEAAX$$QEAV<lambda_0ae27a3a962d80f24befdcbee591983d>@@AEAV<lambda_8d0ee55de4b1038c4002e0adecdf1839>@@$$QEAV<lambda_dc504788e8f1664fe9b84e20bfb512f2>@@@Z@4HA 000000014004e470 f   libucrtd:per_thread_data.obj
 0001:0004d470       ?fin$0@?0???$?RV<lambda_2d41944a1d46af3157314b8a01080d33>@@AEAV<lambda_8f455de75cd7d7f24b4096f044d8b9e6>@@V<lambda_aa500f224e6afead328df44964fe2772>@@@?$__crt_seh_guarded_call@X@@QEAAX$$QEAV<lambda_2d41944a1d46af3157314b8a01080d33>@@AEAV<lambda_8f455de75cd7d7f24b4096f044d8b9e6>@@$$QEAV<lambda_aa500f224e6afead328df44964fe2772>@@@Z@4HA 000000014004e470 f   libucrtd:per_thread_data.obj
 0001:0004d470       ?fin$0@?0???$?RV<lambda_74a0ef281e44d15e1136f792f539efb3>@@AEAV<lambda_e157831efee4ea0afb0a2ace5dd5fd0d>@@V<lambda_04ddeca75b7c13fd67716e8dfcef87ee>@@@?$__crt_seh_guarded_call@X@@QEAAX$$QEAV<lambda_74a0ef281e44d15e1136f792f539efb3>@@AEAV<lambda_e157831efee4ea0afb0a2ace5dd5fd0d>@@$$QEAV<lambda_04ddeca75b7c13fd67716e8dfcef87ee>@@@Z@4HA 000000014004e470 f   libucrtd:per_thread_data.obj
 0001:0004d470       ?fin$0@?0???$?RV<lambda_aa87e3671a710a21b5dc78c0bdf72e11>@@AEAV<lambda_92619d2358a28f41a33ba319515a20b9>@@V<lambda_6992ecaafeb10aed2b74cb1fae11a551>@@@?$__crt_seh_guarded_call@X@@QEAAX$$QEAV<lambda_aa87e3671a710a21b5dc78c0bdf72e11>@@AEAV<lambda_92619d2358a28f41a33ba319515a20b9>@@$$QEAV<lambda_6992ecaafeb10aed2b74cb1fae11a551>@@@Z@4HA 000000014004e470 f   libucrtd:per_thread_data.obj
 0001:0004d470       ?fin$0@?0???$?RV<lambda_410d79af7f07d98d83a3f525b3859a53>@@AEAV<lambda_3e16ef9562a7dcce91392c22ab16ea36>@@V<lambda_38119f0e861e05405d8a144b9b982f0a>@@@?$__crt_seh_guarded_call@X@@QEAAX$$QEAV<lambda_410d79af7f07d98d83a3f525b3859a53>@@AEAV<lambda_3e16ef9562a7dcce91392c22ab16ea36>@@$$QEAV<lambda_38119f0e861e05405d8a144b9b982f0a>@@@Z@4HA 000000014004e470 f   libucrtd:wsetlocale.obj
 0001:0004d470       ?fin$0@?0???$?RV<lambda_efa02eb69bf647d2f7ff0dd6f1103f72>@@AEAV<lambda_bd5a608237428601b7e45fbdc72b1ae8>@@V<lambda_728235dc0fc2b1f82d1fa5b3e7102d8f>@@@?$__crt_seh_guarded_call@X@@QEAAX$$QEAV<lambda_efa02eb69bf647d2f7ff0dd6f1103f72>@@AEAV<lambda_bd5a608237428601b7e45fbdc72b1ae8>@@$$QEAV<lambda_728235dc0fc2b1f82d1fa5b3e7102d8f>@@@Z@4HA 000000014004e470 f   libucrtd:mbctype.obj
 0001:0004d470       ?fin$0@?0???$?RV<lambda_d80eeec6fff315bfe5c115232f3240e3>@@AEAV<lambda_6e4b09c48022b2350581041d5f6b0c4c>@@V<lambda_2358e3775559c9db80273638284d5e45>@@@?$__crt_seh_guarded_call@X@@QEAAX$$QEAV<lambda_d80eeec6fff315bfe5c115232f3240e3>@@AEAV<lambda_6e4b09c48022b2350581041d5f6b0c4c>@@$$QEAV<lambda_2358e3775559c9db80273638284d5e45>@@@Z@4HA 000000014004e470 f   libucrtd:exit.obj
 0001:0004d470       ?fin$0@?0???$?RV<lambda_886d6c58226a84441f68b9f2b8217b83>@@AEAV<lambda_ab61a845afdef5b7c387490eaf3616ee>@@V<lambda_f7f22ab5edc0698d5f6905b0d3f44752>@@@?$__crt_seh_guarded_call@X@@QEAAX$$QEAV<lambda_886d6c58226a84441f68b9f2b8217b83>@@AEAV<lambda_ab61a845afdef5b7c387490eaf3616ee>@@$$QEAV<lambda_f7f22ab5edc0698d5f6905b0d3f44752>@@@Z@4HA 000000014004e470 f   libucrtd:fflush.obj
 0001:0004d490       ?filt$0@?0???R<lambda_6e4b09c48022b2350581041d5f6b0c4c>@@QEBA@XZ@4HA 000000014004e490 f   libucrtd:exit.obj
 0001:0004d4c0       ?fin$0@?0???$?RV<lambda_450d765d439847d4c735a33c368b5fc0>@@AEAV<lambda_44731a7d0e6d81c3e6aa82d741081786>@@V<lambda_601a2a7da3b7a96e9554ac7215c4b07c>@@@?$__crt_seh_guarded_call@P6AXH@Z@@QEAAP6AXH@Z$$QEAV<lambda_450d765d439847d4c735a33c368b5fc0>@@AEAV<lambda_44731a7d0e6d81c3e6aa82d741081786>@@$$QEAV<lambda_601a2a7da3b7a96e9554ac7215c4b07c>@@@Z@4HA 000000014004e4c0 f   libucrtd:signal.obj
 0001:0004d4c0       ?fin$0@?0???$?RV<lambda_6a47f4c8fd0152770a780fc1d70204eb>@@AEAV<lambda_d121dba8a4adeaf3a9819e48611155df>@@V<lambda_6aaa2265f5b6a89667e7d7630012e97a>@@@?$__crt_seh_guarded_call@H@@QEAAH$$QEAV<lambda_6a47f4c8fd0152770a780fc1d70204eb>@@AEAV<lambda_d121dba8a4adeaf3a9819e48611155df>@@$$QEAV<lambda_6aaa2265f5b6a89667e7d7630012e97a>@@@Z@4HA 000000014004e4c0 f   libucrtd:onexit.obj
 0001:0004d4c0       ?fin$0@?0???$?RV<lambda_80060f20ac3990516b753a27f211934c>@@AEAV<lambda_208ce30acdd7200aa596f2796f4d5154>@@V<lambda_fd91b99c0687e8936f1d70d7d9b78e69>@@@?$__crt_seh_guarded_call@H@@QEAAH$$QEAV<lambda_80060f20ac3990516b753a27f211934c>@@AEAV<lambda_208ce30acdd7200aa596f2796f4d5154>@@$$QEAV<lambda_fd91b99c0687e8936f1d70d7d9b78e69>@@@Z@4HA 000000014004e4c0 f   libucrtd:onexit.obj
 0001:0004d4e0       ?dtor$0@?0???R<lambda_d121dba8a4adeaf3a9819e48611155df>@@QEBAHXZ@4HA 000000014004e4e0 f   libucrtd:onexit.obj
 0001:0004d500       ?fin$0@?0??heap_alloc_dbg_internal@@YAPEAX_KHQEBDH@Z@4HA 000000014004e500 f   libucrtd:debug_heap.obj
 0001:0004d500       _CrtMemCheckpoint$fin$0    000000014004e500 f   libucrtd:debug_heap.obj
 0001:0004d520       ?fin$0@?0??validate_heap_if_required_nolock@@YAXXZ@4HA 000000014004e520 f   libucrtd:debug_heap.obj
 0001:0004d540       _CrtCheckMemory$fin$0      000000014004e540 f   libucrtd:debug_heap.obj
 0001:0004d540       _CrtMemDumpAllObjectsSince$fin$0 000000014004e540 f   libucrtd:debug_heap.obj
 0001:0004d540       _CrtSetDbgFlag$fin$0       000000014004e540 f   libucrtd:debug_heap.obj
 0001:0004d540       _msize_dbg$fin$0           000000014004e540 f   libucrtd:debug_heap.obj
 0001:0004d540       _realloc_dbg$fin$0         000000014004e540 f   libucrtd:debug_heap.obj
 0001:0004d560       _free_dbg$fin$0            000000014004e560 f   libucrtd:debug_heap.obj
 0001:0004d560       _query_new_handler$fin$0   000000014004e560 f   libucrtd:new_handler.obj
 0001:0004d580       _fcloseall$fin$0           000000014004e580 f   libucrtd:closeall.obj
 0001:0004d580       ?fin$0@?0??__acrt_stdio_allocate_stream@@YA?AV__crt_stdio_stream@@XZ@4HA 000000014004e580 f   libucrtd:stream.obj
 0001:0004d5a0       ?fin$0@?0???$?RV<lambda_842d9ff0dc9ef11c61343bbaebe7f885>@@AEAV<lambda_c5860995281e5c4ce005b3de8f5874ee>@@V<lambda_d90129c13df834fdcbf8d2b88dafcf2d>@@@?$__crt_seh_guarded_call@X@@QEAAX$$QEAV<lambda_842d9ff0dc9ef11c61343bbaebe7f885>@@AEAV<lambda_c5860995281e5c4ce005b3de8f5874ee>@@$$QEAV<lambda_d90129c13df834fdcbf8d2b88dafcf2d>@@@Z@4HA 000000014004e5a0 f   libucrtd:fflush.obj
 0001:0004d5c0       __acrt_initialize_lowio$fin$0 000000014004e5c0 f   libucrtd:ioinit.obj
 0001:0004d5c0       _alloc_osfhnd$fin$0        000000014004e5c0 f   libucrtd:osfinfo.obj
 0001:0004d5e0       ?fin$0@?0???$?RV<lambda_19eaff14c5fe7be5b1b106a862eb1091>@@AEAV<lambda_af29824b49a67d335554598d6cad2be6>@@V<lambda_3ce37f5b621ab310299ea5f68cbdf3bb>@@@?$__crt_seh_guarded_call@H@@QEAAH$$QEAV<lambda_19eaff14c5fe7be5b1b106a862eb1091>@@AEAV<lambda_af29824b49a67d335554598d6cad2be6>@@$$QEAV<lambda_3ce37f5b621ab310299ea5f68cbdf3bb>@@@Z@4HA 000000014004e5e0 f   libucrtd:close.obj
 0001:0004d5e0       ?fin$0@?0???$?RV<lambda_7d29013d608e9f25a034de83c9b9e983>@@AEAV<lambda_3e4146214822e0ea86c47ff907aef2ff>@@V<lambda_b869e5a4e1069fcb5c3da79c0d999133>@@@?$__crt_seh_guarded_call@H@@QEAAH$$QEAV<lambda_7d29013d608e9f25a034de83c9b9e983>@@AEAV<lambda_3e4146214822e0ea86c47ff907aef2ff>@@$$QEAV<lambda_b869e5a4e1069fcb5c3da79c0d999133>@@@Z@4HA 000000014004e5e0 f   libucrtd:commit.obj
 0001:0004d600       _read$fin$0                000000014004e600 f   libucrtd:read.obj
 0001:0004d620       ?fin$0@?0???$common_lseek@_J@@YA_JH_JHAEAV__crt_cached_ptd_host@@@Z@4HA 000000014004e620 f   libucrtd:lseek.obj
 0001:0004d620       _write_internal$fin$0      000000014004e620 f   libucrtd:write.obj
 0001:0004d640       __acrt_lowio_ensure_fh_exists$fin$0 000000014004e640 f   libucrtd:osfinfo.obj
 0001:0004d660       ?fin$0@?0??update_thread_multibyte_data_internal@@YAPEAU__crt_multibyte_data@@QEAU__acrt_ptd@@QEAPEAU1@@Z@4HA 000000014004e660 f   libucrtd:mbctype.obj
 0001:0004d680       __acrt_update_thread_locale_data$fin$0 000000014004e680 f   libucrtd:locale_refcounting.obj
 0001:0004d6a0       raise$fin$0                000000014004e6a0 f   libucrtd:signal.obj
 0001:0004d6d0       _VCrtDbgReportA$fin$0      000000014004e6d0 f   libucrtd:dbgrptt.obj
 0001:0004d6eb       _VCrtDbgReportA$fin$1      000000014004e6eb f   libucrtd:dbgrptt.obj
 0001:0004d710       _VCrtDbgReportW$fin$0      000000014004e710 f   libucrtd:dbgrptt.obj
 0001:0004d72b       _VCrtDbgReportW$fin$1      000000014004e72b f   libucrtd:dbgrptt.obj
 0001:0004d750       ?fin$0@?0???$common_sopen_dispatch@D@@YAHQEBDHHHQEAHH@Z@4HA 000000014004e750 f   libucrtd:open.obj
 0001:0004d7f0       ?dtor$0@?0??shortsort@@YAXPEAD0_KP6AHPEBX2@Z@Z@4HA 000000014004e7f0 f   libucrtd:qsort.obj
 0001:0004d810       common_control87$filt$0    000000014004e810 f   libucrtd:ieee.obj
 0001:0004d860       _ctrlfp$filt$0             000000014004e860 f   libucrtd:fpctrl.obj
 0001:0004d8b0       _IsNonwritableInCurrentImage$filt$0 000000014004e8b0 f   LIBCMTD:pesect.obj
 0002:000002d0       ?pre_cpp_initializer@@3P6AXXZEA 000000014004f2d0     LIBCMTD:exe_main.obj
 0002:000002e8       ?pre_c_initializer@@3P6AHXZEA 000000014004f2e8     LIBCMTD:exe_main.obj
 0002:000002f0       ?post_pgo_initializer@@3P6AHXZEA 000000014004f2f0     LIBCMTD:exe_main.obj
 0002:00000360       $SG6093                    000000014004f360     png.obj
 0002:00000368       $SG6094                    000000014004f368     png.obj
 0002:00000384       $SG6109                    000000014004f384     png.obj
 0002:00000388       $SG6112                    000000014004f388     png.obj
 0002:00000398       $SG6113                    000000014004f398     png.obj
 0002:000003c0       $SG6377                    000000014004f3c0     png.obj
 0002:000003e8       $SG6393                    000000014004f3e8     png.obj
 0002:00000410       $SG6403                    000000014004f410     png.obj
 0002:00000438       $SG6408                    000000014004f438     png.obj
 0002:0000044c       $SG6663                    000000014004f44c     png.obj
 0002:00000458       $SG6671                    000000014004f458     png.obj
 0002:00000464       $SG6673                    000000014004f464     png.obj
 0002:0000046c       $SG6676                    000000014004f46c     png.obj
 0002:00000478       $SG6679                    000000014004f478     png.obj
 0002:00000498       $SG6720                    000000014004f498     png.obj
 0002:000004a8       $SG6730                    000000014004f4a8     png.obj
 0002:000004b8       GS_ExceptionPointers       000000014004f4b8     LIBCMTD:gs_report.obj
 0002:00000520       ?tokenTable@@3QBUStringLiteral@@B 000000014004f520     libvcruntimed:undname.obj
 0002:00000630       ?nameTable@@3QBUStringLiteral@@B 000000014004f630     libvcruntimed:undname.obj
 0002:00000b60       ?rttiTable@@3QBUStringLiteral@@B 000000014004fb60     libvcruntimed:undname.obj
 0002:00000bb0       ?IndirectionName@@3QBUStringLiteral@@B 000000014004fbb0     libvcruntimed:undname.obj
 0002:00000c10       ?PrefixName@@3QBUStringLiteral@@B 000000014004fc10     libvcruntimed:undname.obj
 0002:00001300       ?module_names@?A0x14174aea@@3QBQEB_WB 0000000140050300     libvcruntimed:winapi_downlevel.obj
 0002:00001570       ?candidate_modules@?1??try_get_FlsAlloc@@YAP6AKP6AXPEAX@Z@ZXZ@4QBW4module_id@?A0x14174aea@@B 0000000140050570     libvcruntimed:winapi_downlevel.obj
 0002:00001588       ?candidate_modules@?1??try_get_FlsFree@@YAP6AHK@ZXZ@4QBW4module_id@?A0x14174aea@@B 0000000140050588     libvcruntimed:winapi_downlevel.obj
 0002:00001598       ?candidate_modules@?1??try_get_FlsGetValue@@YAP6APEAXK@ZXZ@4QBW4module_id@?A0x14174aea@@B 0000000140050598     libvcruntimed:winapi_downlevel.obj
 0002:000015b0       ?candidate_modules@?1??try_get_FlsSetValue@@YAP6AHKPEAX@ZXZ@4QBW4module_id@?A0x14174aea@@B 00000001400505b0     libvcruntimed:winapi_downlevel.obj
 0002:000015c8       ?candidate_modules@?1??try_get_InitializeCriticalSectionEx@@YAP6AHPEAU_RTL_CRITICAL_SECTION@@KK@ZXZ@4QBW4module_id@?A0x14174aea@@B 00000001400505c8     libvcruntimed:winapi_downlevel.obj
 0002:000015f0       ?ExceptionTemplate@?1??UnwindNestedFrames@__FrameHandler3@@SAXPEA_KPEAUEHExceptionRecord@@PEAU_CONTEXT@@0PEAXPEBU_s_FuncInfo@@HHPEBU_s_HandlerType@@PEAU_xDISPATCHER_CONTEXT@@E@Z@4U_EXCEPTION_RECORD@@B 00000001400505f0     libvcruntimed:risctrnsctrl.obj
 0002:00001cd8       $cppxdata$?common_fseek_binary_mode_read_only_fast_track_nolock@@YA_NV__crt_stdio_stream@@_JH@Z 0000000140050cd8     libucrtd:fseek.obj
 0002:00001f50       $cppxdata$??$__acrt_lock_stream_and_call@V<lambda_26974eb511f701c600fccfa2a97a8e1b>@@@@YA_KQEAU_iobuf@@$$QEAV<lambda_26974eb511f701c600fccfa2a97a8e1b>@@@Z 0000000140050f50     libucrtd:fwrite.obj
 0002:000022e0       $cppxdata$??$common_vfprintf@Vstandard_base@__crt_stdio_output@@D@@YAH_KQEAU_iobuf@@QEBDAEAV__crt_cached_ptd_host@@QEAD@Z 00000001400512e0     libucrtd:output.obj
 0002:00002308       $cppxdata$??0?$output_adapter_data@DV?$stream_output_adapter@D@__crt_stdio_output@@@__crt_stdio_output@@IEAA@AEBV?$stream_output_adapter@D@1@_KQEBDAEAV__crt_cached_ptd_host@@QEAD@Z 0000000140051308     libucrtd:output.obj
 0002:00002308       $cppxdata$??0?$output_adapter_data@DV?$string_output_adapter@D@__crt_stdio_output@@@__crt_stdio_output@@IEAA@AEBV?$string_output_adapter@D@1@_KQEBDAEAV__crt_cached_ptd_host@@QEAD@Z 0000000140051308     libucrtd:output.obj
 0002:00002330       $cppxdata$?find_next_state@?$output_processor@DV?$stream_output_adapter@D@__crt_stdio_output@@V?$standard_base@DV?$stream_output_adapter@D@__crt_stdio_output@@@2@@__crt_stdio_output@@AEBA?AW4state@2@DW432@@Z 0000000140051330     libucrtd:output.obj
 0002:00002358       $cppxdata$??$__acrt_lock_stream_and_call@V<lambda_303760bc4008a2b3ec4768a30b06a80c>@@@@YAHQEAU_iobuf@@$$QEAV<lambda_303760bc4008a2b3ec4768a30b06a80c>@@@Z 0000000140051358     libucrtd:output.obj
 0002:00002380       $cppxdata$??0?$output_adapter_data@_WV?$string_output_adapter@_W@__crt_stdio_output@@@__crt_stdio_output@@IEAA@AEBV?$string_output_adapter@_W@1@_KQEB_WAEAV__crt_cached_ptd_host@@QEAD@Z 0000000140051380     libucrtd:output.obj
 0002:000023a8       $cppxdata$?find_next_state@?$output_processor@DV?$string_output_adapter@D@__crt_stdio_output@@V?$format_validation_base@DV?$string_output_adapter@D@__crt_stdio_output@@@2@@__crt_stdio_output@@AEBA?AW4state@2@DW432@@Z 00000001400513a8     libucrtd:output.obj
 0002:000023d0       $cppxdata$?find_next_state@?$output_processor@_WV?$string_output_adapter@_W@__crt_stdio_output@@V?$format_validation_base@_WV?$string_output_adapter@_W@__crt_stdio_output@@@2@@__crt_stdio_output@@AEBA?AW4state@2@_WW432@@Z 00000001400513d0     libucrtd:output.obj
 0002:000056b0       $cppxdata$??$common_configure_argv@D@@YAHW4_crt_argv_mode@@@Z 00000001400546b0     libucrtd:argv_parsing.obj
 0002:00005850       $cppxdata$??$uninitialize@A6AXAEAPEAPEAD@_E@?$dual_state_global@PEAPEAD@__crt_state_management@@QEAAXA6AXAEAPEAPEAD@_E@Z 0000000140054850     libucrtd:environment_initialization.obj
 0002:00005878       $cppxdata$??$uninitialize@A6AXAEAPEAPEA_W@_E@?$dual_state_global@PEAPEA_W@__crt_state_management@@QEAAXA6AXAEAPEAPEA_W@_E@Z 0000000140054878     libucrtd:environment_initialization.obj
 0002:000058a0       $cppxdata$??$initialize_environment_by_cloning_nolock@D@@YAHXZ 00000001400548a0     libucrtd:environment_initialization.obj
 0002:00005a58       $cppxdata$?try_cor_exit_process@@YAXI@Z 0000000140054a58     libucrtd:exit.obj
 0002:00005a80       $cppxdata$?common_exit@@YAXHW4_crt_exit_cleanup_mode@@W4_crt_exit_return_mode@@@Z 0000000140054a80     libucrtd:exit.obj
 0002:00005aa8       $cppxdata$??$__acrt_lock_and_call@V<lambda_6e4b09c48022b2350581041d5f6b0c4c>@@@@YAXW4__acrt_lock_id@@$$QEAV<lambda_6e4b09c48022b2350581041d5f6b0c4c>@@@Z 0000000140054aa8     libucrtd:exit.obj
 0002:00005d70       $cppxdata$??$uninitialize@V<lambda_363eea9039da1e8169e2d060c7fe5cbc>@@@?$dual_state_global@PEAU__crt_locale_data@@@__crt_state_management@@QEAAX$$QEAV<lambda_363eea9039da1e8169e2d060c7fe5cbc>@@@Z 0000000140054d70     libucrtd:wsetlocale.obj
 0002:00005d98       $cppxdata$??$__acrt_lock_and_call@V<lambda_3e16ef9562a7dcce91392c22ab16ea36>@@@@YAXW4__acrt_lock_id@@$$QEAV<lambda_3e16ef9562a7dcce91392c22ab16ea36>@@@Z 0000000140054d98     libucrtd:wsetlocale.obj
 0002:00005f78       $cppxdata$??$__acrt_lock_and_call@V<lambda_208ce30acdd7200aa596f2796f4d5154>@@@@YAHW4__acrt_lock_id@@$$QEAV<lambda_208ce30acdd7200aa596f2796f4d5154>@@@Z 0000000140054f78     libucrtd:onexit.obj
 0002:00005fa0       $cppxdata$??R<lambda_d121dba8a4adeaf3a9819e48611155df>@@QEBAHXZ 0000000140054fa0     libucrtd:onexit.obj
 0002:00005fc8       $cppxdata$??$__acrt_lock_and_call@V<lambda_d121dba8a4adeaf3a9819e48611155df>@@@@YAHW4__acrt_lock_id@@$$QEAV<lambda_d121dba8a4adeaf3a9819e48611155df>@@@Z 0000000140054fc8     libucrtd:onexit.obj
 0002:00006030       __acrt_initializers        0000000140055030     libucrtd:initialization.obj
 0002:00006130       $cppxdata$??$uninitialize@V<lambda_af27fe6ede5d83bbdbd622796c194e9c>@@@?$dual_state_global@PEAU__crt_multibyte_data@@@__crt_state_management@@QEAAX$$QEAV<lambda_af27fe6ede5d83bbdbd622796c194e9c>@@@Z 0000000140055130     libucrtd:initialization.obj
 0002:00006158       ?block_use_names@@3QBQEBDB 0000000140055158     libucrtd:debug_heap.obj
 0002:000061a8       $cppxdata$?realloc_dbg_nolock@@YAPEAXQEAXQEA_KHQEBDH_N@Z 00000001400551a8     libucrtd:debug_heap.obj
 0002:000061d0       $cppxdata$?free_dbg_nolock@@YAXQEAXH@Z 00000001400551d0     libucrtd:debug_heap.obj
 0002:000061f8       $cppxdata$?dump_all_object_since_nolock@@YAXQEBU_CrtMemState@@@Z 00000001400551f8     libucrtd:debug_heap.obj
 0002:00007340       ?report_type_messages@@3QBQEB_WB 0000000140056340     libucrtd:dbgrpt.obj
 0002:000073a0       ?more_info_string@@3QEB_WEB 00000001400563a0     libucrtd:dbgrpt.obj
 0002:000076ae       ?empty_string@?1???$common_message_window@D@@YAHHQEAXQEBD111@Z@4QBDB 00000001400566ae     libucrtd:dbgrpt.obj
 0002:00007928       ?empty_string@?1???$common_message_window@_W@@YAHHQEAXQEB_W111@Z@4QB_WB 0000000140056928     libucrtd:dbgrpt.obj
 0002:00007930       ?errtable@@3QBUerrentry@?A0x31fdb9ec@@B 0000000140056930     libucrtd:errno.obj
 0002:00007aa0       ?module_names@?A0x391cf84c@@3QBQEB_WB 0000000140056aa0     libucrtd:winapi_thunks.obj
 0002:00008024       ?candidate_modules@?1??try_get_AreFileApisANSI@@YAP6AHXZXZ@4QBW4module_id@?A0x391cf84c@@B 0000000140057024     libucrtd:winapi_thunks.obj
 0002:00008038       ?candidate_modules@?1??try_get_CompareStringEx@@YAP6AHPEB_WK0H0HPEAU_nlsversioninfo@@PEAX_J@ZXZ@4QBW4module_id@?A0x391cf84c@@B 0000000140057038     libucrtd:winapi_thunks.obj
 0002:00008050       ?candidate_modules@?1??try_get_GetActiveWindow@@YAP6APEAUHWND__@@XZXZ@4QBW4module_id@?A0x391cf84c@@B 0000000140057050     libucrtd:winapi_thunks.obj
 0002:00008068       ?candidate_modules@?1??try_get_GetLastActivePopup@@YAP6APEAUHWND__@@PEAU2@@ZXZ@4QBW4module_id@?A0x391cf84c@@B 0000000140057068     libucrtd:winapi_thunks.obj
 0002:00008088       ?candidate_modules@?1??try_get_GetProcessWindowStation@@YAP6APEAUHWINSTA__@@XZXZ@4QBW4module_id@?A0x391cf84c@@B 0000000140057088     libucrtd:winapi_thunks.obj
 0002:000080a8       ?candidate_modules@?1??try_get_GetUserObjectInformationW@@YAP6AHPEAXH0KPEAK@ZXZ@4QBW4module_id@?A0x391cf84c@@B 00000001400570a8     libucrtd:winapi_thunks.obj
 0002:000080d0       ?candidate_modules@?1??try_get_InitializeCriticalSectionEx@@YAP6AHPEAU_RTL_CRITICAL_SECTION@@KK@ZXZ@4QBW4module_id@?A0x391cf84c@@B 00000001400570d0     libucrtd:winapi_thunks.obj
 0002:000080d8       ?candidate_modules@?1??try_get_LCMapStringEx@@YAP6AHPEB_WK0HPEA_WHPEAU_nlsversioninfo@@PEAX_J@ZXZ@4QBW4module_id@?A0x391cf84c@@B 00000001400570d8     libucrtd:winapi_thunks.obj
 0002:000080f0       ?candidate_modules@?1??try_get_LocaleNameToLCID@@YAP6AKPEB_WK@ZXZ@4QBW4module_id@?A0x391cf84c@@B 00000001400570f0     libucrtd:winapi_thunks.obj
 0002:00008110       ?candidate_modules@?1??try_get_MessageBoxA@@YAP6AHPEAUHWND__@@PEBD1I@ZXZ@4QBW4module_id@?A0x391cf84c@@B 0000000140057110     libucrtd:winapi_thunks.obj
 0002:00008128       ?candidate_modules@?1??try_get_MessageBoxW@@YAP6AHPEAUHWND__@@PEB_W1I@ZXZ@4QBW4module_id@?A0x391cf84c@@B 0000000140057128     libucrtd:winapi_thunks.obj
 0002:0000813c       ?candidate_modules@?1??try_get_AppPolicyGetProcessTerminationMethod@@YAP6AJPEAXPEAW4AppPolicyProcessTerminationMethod@@@ZXZ@4QBW4module_id@?A0x391cf84c@@B 000000014005713c     libucrtd:winapi_thunks.obj
 0002:00008168       ?candidate_modules@?1??try_get_AppPolicyGetShowDeveloperDiagnostic@@YAP6AJPEAXPEAW4AppPolicyShowDeveloperDiagnostic@@@ZXZ@4QBW4module_id@?A0x391cf84c@@B 0000000140057168     libucrtd:winapi_thunks.obj
 0002:00008194       ?candidate_modules@?1??try_get_AppPolicyGetWindowingModel@@YAP6AJPEAXPEAW4AppPolicyWindowingModel@@@ZXZ@4QBW4module_id@?A0x391cf84c@@B 0000000140057194     libucrtd:winapi_thunks.obj
 0002:000081b8       $cppxdata$?common_flush_all@@YAH_N@Z 00000001400571b8     libucrtd:fflush.obj
 0002:000081e0       $cppxdata$??$__acrt_lock_stream_and_call@V<lambda_c5860995281e5c4ce005b3de8f5874ee>@@@@YAXQEAU_iobuf@@$$QEAV<lambda_c5860995281e5c4ce005b3de8f5874ee>@@@Z 00000001400571e0     libucrtd:fflush.obj
 0002:00008208       $cppxdata$??$__acrt_lock_and_call@V<lambda_ab61a845afdef5b7c387490eaf3616ee>@@@@YAXW4__acrt_lock_id@@$$QEAV<lambda_ab61a845afdef5b7c387490eaf3616ee>@@@Z 0000000140057208     libucrtd:fflush.obj
 0002:00008310       $cppxdata$??$__acrt_lowio_lock_fh_and_call@V<lambda_af29824b49a67d335554598d6cad2be6>@@@@YAHH$$QEAV<lambda_af29824b49a67d335554598d6cad2be6>@@@Z 0000000140057310     libucrtd:close.obj
 0002:000083f0       $cppxdata$?construct_ptd@@YAXQEAU__acrt_ptd@@QEAPEAU__crt_locale_data@@@Z 00000001400573f0     libucrtd:per_thread_data.obj
 0002:00008418       $cppxdata$??$__acrt_lock_and_call@V<lambda_8d0ee55de4b1038c4002e0adecdf1839>@@@@YAXW4__acrt_lock_id@@$$QEAV<lambda_8d0ee55de4b1038c4002e0adecdf1839>@@@Z 0000000140057418     libucrtd:per_thread_data.obj
 0002:00008440       $cppxdata$??$__acrt_lock_and_call@V<lambda_92619d2358a28f41a33ba319515a20b9>@@@@YAXW4__acrt_lock_id@@$$QEAV<lambda_92619d2358a28f41a33ba319515a20b9>@@@Z 0000000140057440     libucrtd:per_thread_data.obj
 0002:00008468       $cppxdata$?destroy_ptd@@YAXQEAU__acrt_ptd@@@Z 0000000140057468     libucrtd:per_thread_data.obj
 0002:00008490       $cppxdata$??$__acrt_lock_and_call@V<lambda_e157831efee4ea0afb0a2ace5dd5fd0d>@@@@YAXW4__acrt_lock_id@@$$QEAV<lambda_e157831efee4ea0afb0a2ace5dd5fd0d>@@@Z 0000000140057490     libucrtd:per_thread_data.obj
 0002:000084b8       $cppxdata$??$__acrt_lock_and_call@V<lambda_8f455de75cd7d7f24b4096f044d8b9e6>@@@@YAXW4__acrt_lock_id@@$$QEAV<lambda_8f455de75cd7d7f24b4096f044d8b9e6>@@@Z 00000001400574b8     libucrtd:per_thread_data.obj
 0002:00009090       $cppxdata$?write_double_translated_ansi_nolock@@YA?AUwrite_result@?A0x17268360@@HQEBDIAEAV__crt_cached_ptd_host@@@Z 0000000140058090     libucrtd:write.obj
 0002:00009fd0       ?strings@?1??fp_format_nan_or_infinity@@YAHW4__acrt_fp_class@@_NPEAD_K1@Z@4QAY03QEBDA 0000000140058fd0     libucrtd:cvt.obj
 0002:0000ab68       $cppxdata$??1?$__crt_win32_buffer@DU__crt_win32_buffer_internal_dynamic_resizing@@@@QEAA@XZ 0000000140059b68     libucrtd:argv_wildcards.obj
 0002:0000ab68       $cppxdata$??1?$__crt_win32_buffer@_WU__crt_win32_buffer_internal_dynamic_resizing@@@@QEAA@XZ 0000000140059b68     libucrtd:argv_wildcards.obj
 0002:0000ab90       $cppxdata$??$tcspbrk@AEAPEADAEAY02$$CBD@?$__crt_char_traits@D@@SAPEADAEAPEADAEAY02$$CBD@Z 0000000140059b90     libucrtd:argv_wildcards.obj
 0002:0000abb8       $cppxdata$??$expand_argument_wildcards@D@@YAHQEAD0AEAV?$argument_list@D@?A0x5f5c8891@@@Z 0000000140059bb8     libucrtd:argv_wildcards.obj
 0002:0000afd8       $cppxdata$??1?$__crt_win32_buffer@DU__crt_win32_buffer_no_resizing@@@@QEAA@XZ 0000000140059fd8     libucrtd:getmodulefilenamea.obj
 0002:0000b000       ?_mb_locale_names@@3QBQEB_WB 000000014005a000     libucrtd:mbctype.obj
 0002:0000b060       $cppxdata$?setmbcp_internal@@YAHH_NQEAU__acrt_ptd@@QEAPEAU__crt_multibyte_data@@@Z 000000014005a060     libucrtd:mbctype.obj
 0002:0000b088       $cppxdata$??$__acrt_lock_and_call@V<lambda_bd5a608237428601b7e45fbdc72b1ae8>@@@@YAXW4__acrt_lock_id@@$$QEAV<lambda_bd5a608237428601b7e45fbdc72b1ae8>@@@Z 000000014005a088     libucrtd:mbctype.obj
 0002:0000b138       $cppxdata$??$tcschr@AEBQEADD@?$__crt_char_traits@D@@SAPEADAEBQEAD$$QEAD@Z 000000014005a138     libucrtd:setenv.obj
 0002:0000bf08       $cppxdata$??$__acrt_lock_and_call@V<lambda_44731a7d0e6d81c3e6aa82d741081786>@@@@YAP6AXH@ZW4__acrt_lock_id@@$$QEAV<lambda_44731a7d0e6d81c3e6aa82d741081786>@@@Z 000000014005af08     libucrtd:signal.obj
 0002:0000ce20       ?LcidToLocaleNameTable@?A0x881e4c05@@3QBULcidToLocaleName@1@B 000000014005be20     libucrtd:lcidtoname_downlevel.obj
 0002:0000e870       ?LocaleNameToIndexTable@?A0x881e4c05@@3QBULocaleNameIndex@1@B 000000014005d870     libucrtd:lcidtoname_downlevel.obj
 0002:00010108       $cppxdata$??$__acrt_lowio_lock_fh_and_call@V<lambda_3e4146214822e0ea86c47ff907aef2ff>@@@@YAHH$$QEAV<lambda_3e4146214822e0ea86c47ff907aef2ff>@@@Z 000000014005f108     libucrtd:commit.obj
 0002:00011870       $cppxdata$?shortsort@@YAXPEAD0_KP6AHPEBX2@Z@Z 0000000140060870     libucrtd:qsort.obj
 0002:00011ce0       $cppxdata$?_mbstowcs_l_helper@@YA_KPEA_WPEBD_KAEAV__crt_cached_ptd_host@@@Z 0000000140060ce0     libucrtd:mbstowcs.obj
 0002:000120c0       $cppxdata$??$console_output_reopen_and_retry@V<lambda_61c1b8a38cedca4df5fdc542e6ccae6d>@@@@YAHAEBV<lambda_61c1b8a38cedca4df5fdc542e6ccae6d>@@@Z 00000001400610c0     libucrtd:initcon.obj
 0002:00012100       __real_ninf                0000000140061100     libucrtd:log10.obj
 0002:00012110       __real_inf                 0000000140061110     libucrtd:log10.obj
 0002:00012120       __real_neg_qnan            0000000140061120     libucrtd:log10.obj
 0002:00012130       __real_qnanbit             0000000140061130     libucrtd:log10.obj
 0002:00012140       __int_1023                 0000000140061140     libucrtd:log10.obj
 0002:00012150       __mask_001                 0000000140061150     libucrtd:log10.obj
 0002:00012160       __mask_mant                0000000140061160     libucrtd:log10.obj
 0002:00012170       __mask_mant_top8           0000000140061170     libucrtd:log10.obj
 0002:00012180       __mask_mant9               0000000140061180     libucrtd:log10.obj
 0002:00012190       __real_log10_e             0000000140061190     libucrtd:log10.obj
 0002:000121a0       __real_log10_e_lead        00000001400611a0     libucrtd:log10.obj
 0002:000121b0       __real_log10_e_tail        00000001400611b0     libucrtd:log10.obj
 0002:000121c0       __real_log10_2_lead        00000001400611c0     libucrtd:log10.obj
 0002:000121d0       __real_log10_2_tail        00000001400611d0     libucrtd:log10.obj
 0002:000121e0       __real_two                 00000001400611e0     libucrtd:log10.obj
 0002:000121f0       __real_one                 00000001400611f0     libucrtd:log10.obj
 0002:00012200       __real_half                0000000140061200     libucrtd:log10.obj
 0002:00012210       __mask_100                 0000000140061210     libucrtd:log10.obj
 0002:00012220       __real_1_over_512          0000000140061220     libucrtd:log10.obj
 0002:00012230       __real_1_over_2            0000000140061230     libucrtd:log10.obj
 0002:00012240       __real_1_over_3            0000000140061240     libucrtd:log10.obj
 0002:00012250       __real_1_over_4            0000000140061250     libucrtd:log10.obj
 0002:00012260       __real_1_over_5            0000000140061260     libucrtd:log10.obj
 0002:00012270       __real_1_over_6            0000000140061270     libucrtd:log10.obj
 0002:00012280       __real_neg_1023            0000000140061280     libucrtd:log10.obj
 0002:00012290       __mask_2045                0000000140061290     libucrtd:log10.obj
 0002:000122a0       __real_threshold           00000001400612a0     libucrtd:log10.obj
 0002:000122b0       __real_near_one_lt         00000001400612b0     libucrtd:log10.obj
 0002:000122c0       __real_near_one_gt         00000001400612c0     libucrtd:log10.obj
 0002:000122d0       __real_min_norm            00000001400612d0     libucrtd:log10.obj
 0002:000122e0       __real_notsign             00000001400612e0     libucrtd:log10.obj
 0002:000122f0       __real_ca1                 00000001400612f0     libucrtd:log10.obj
 0002:00012300       __real_ca2                 0000000140061300     libucrtd:log10.obj
 0002:00012310       __real_ca3                 0000000140061310     libucrtd:log10.obj
 0002:00012320       __real_ca4                 0000000140061320     libucrtd:log10.obj
 0002:00012330       __mask_lower               0000000140061330     libucrtd:log10.obj
 0002:00012340       __flag_x_zero              0000000140061340     libucrtd:log10.obj
 0002:00012344       __flag_x_neg               0000000140061344     libucrtd:log10.obj
 0002:00012348       __flag_x_nan               0000000140061348     libucrtd:log10.obj
 0002:00013e50       __real@433fffffffffffff    0000000140062e50     libucrtd:fpsr.obj
 0002:00013e58       __real@c33fffffffffffff    0000000140062e58     libucrtd:fpsr.obj
 0002:00014668       $unwind$_vfprintf_l        0000000140063668     png.obj
 0002:00014668       $unwind$printf             0000000140063668     png.obj
 0002:00014668       $unwind$_calloc_dbg        0000000140063668     libucrtd:debug_heap.obj
 0002:00014668       $unwind$?common_lseek_do_seek_nolock@@YA_JQEAX_JHAEAV__crt_cached_ptd_host@@@Z 0000000140063668     libucrtd:lseek.obj
 0002:00014668       $unwind$_sopen_s           0000000140063668     libucrtd:open.obj
 0002:00014668       $unwind$_vsnprintf_s       0000000140063668     libucrtd:dbgrptt.obj
 0002:00014668       $unwind$fread              0000000140063668     libucrtd:fread.obj
 0002:00014668       $unwind$?common_fseek_nolock@@YAHV__crt_stdio_stream@@_JHAEAV__crt_cached_ptd_host@@@Z 0000000140063668     libucrtd:fseek.obj
 0002:00014668       $unwind$??$tsopen_s@PEAHAEBQEBDAEBHAEBHH@?$__crt_char_traits@D@@SAH$$QEAPEAHAEBQEBDAEBH2$$QEAH@Z 0000000140063668     libucrtd:openfile.obj
 0002:00014668       $unwind$_openfile          0000000140063668     libucrtd:openfile.obj
 0002:00014668       $unwind$??$?0AEBV?$stream_output_adapter@D@__crt_stdio_output@@AEB_KAEBQEBDAEAV__crt_cached_ptd_host@@AEBQEAD@?$standard_base@DV?$stream_output_adapter@D@__crt_stdio_output@@@__crt_stdio_output@@IEAA@AEBV?$stream_output_adapter@D@1@AEB_KAEBQEBDAEAV__crt_cached_ptd_host@@AEBQEAD@Z 0000000140063668     libucrtd:output.obj
 0002:00014668       $unwind$??$?0AEBV?$string_output_adapter@D@__crt_stdio_output@@AEB_KAEBQEBDAEAV__crt_cached_ptd_host@@AEBQEAD@?$format_validation_base@DV?$string_output_adapter@D@__crt_stdio_output@@@__crt_stdio_output@@IEAA@AEBV?$string_output_adapter@D@1@AEB_KAEBQEBDAEAV__crt_cached_ptd_host@@AEBQEAD@Z 0000000140063668     libucrtd:output.obj
 0002:00014668       $unwind$??$?0AEBV?$string_output_adapter@D@__crt_stdio_output@@AEB_KAEBQEBDAEAV__crt_cached_ptd_host@@AEBQEAD@?$standard_base@DV?$string_output_adapter@D@__crt_stdio_output@@@__crt_stdio_output@@IEAA@AEBV?$string_output_adapter@D@1@AEB_KAEBQEBDAEAV__crt_cached_ptd_host@@AEBQEAD@Z 0000000140063668     libucrtd:output.obj
 0002:00014668       $unwind$??$?0AEBV?$string_output_adapter@_W@__crt_stdio_output@@AEB_KAEBQEB_WAEAV__crt_cached_ptd_host@@AEBQEAD@?$format_validation_base@_WV?$string_output_adapter@_W@__crt_stdio_output@@@__crt_stdio_output@@IEAA@AEBV?$string_output_adapter@_W@1@AEB_KAEBQEB_WAEAV__crt_cached_ptd_host@@AEBQEAD@Z 0000000140063668     libucrtd:output.obj
 0002:00014668       $unwind$??$?0AEBV?$string_output_adapter@_W@__crt_stdio_output@@AEB_KAEBQEB_WAEAV__crt_cached_ptd_host@@AEBQEAD@?$standard_base@_WV?$string_output_adapter@_W@__crt_stdio_output@@@__crt_stdio_output@@IEAA@AEBV?$string_output_adapter@_W@1@AEB_KAEBQEB_WAEAV__crt_cached_ptd_host@@AEBQEAD@Z 0000000140063668     libucrtd:output.obj
 0002:00014668       $unwind$??0?$output_processor@DV?$stream_output_adapter@D@__crt_stdio_output@@V?$standard_base@DV?$stream_output_adapter@D@__crt_stdio_output@@@2@@__crt_stdio_output@@QEAA@AEBV?$stream_output_adapter@D@1@_KQEBDAEAV__crt_cached_ptd_host@@QEAD@Z 0000000140063668     libucrtd:output.obj
 0002:00014668       $unwind$??0?$output_processor@DV?$string_output_adapter@D@__crt_stdio_output@@V?$format_validation_base@DV?$string_output_adapter@D@__crt_stdio_output@@@2@@__crt_stdio_output@@QEAA@AEBV?$string_output_adapter@D@1@_KQEBDAEAV__crt_cached_ptd_host@@QEAD@Z 0000000140063668     libucrtd:output.obj
 0002:00014668       $unwind$??0?$output_processor@_WV?$string_output_adapter@_W@__crt_stdio_output@@V?$format_validation_base@_WV?$string_output_adapter@_W@__crt_stdio_output@@@2@@__crt_stdio_output@@QEAA@AEBV?$string_output_adapter@_W@1@_KQEB_WAEAV__crt_cached_ptd_host@@QEAD@Z 0000000140063668     libucrtd:output.obj
 0002:00014668       $unwind$?write_string@?$stream_output_adapter@D@__crt_stdio_output@@QEBAXQEBDHQEAHAEAV__crt_cached_ptd_host@@@Z 0000000140063668     libucrtd:output.obj
 0002:00014668       $unwind$??$__acrt_fenv_translate_bit@W4__acrt_fenv_abstract_control@@W4__acrt_fenv_machine_sse_control@@@@YA?AW4__acrt_fenv_abstract_control@@W4__acrt_fenv_machine_sse_control@@0W40@1@Z 0000000140063668     libucrtd:_fenvutils.obj
 0002:00014668       $unwind$??$__acrt_fenv_translate_bit@W4__acrt_fenv_machine_sse_control@@W4__acrt_fenv_abstract_control@@@@YA?AW4__acrt_fenv_machine_sse_control@@W4__acrt_fenv_abstract_control@@0W40@1@Z 0000000140063668     libucrtd:_fenvutils.obj
 0002:00014668       $unwind$__C_specific_handler_noexcept 0000000140063668     libvcruntimed:chandler_noexcept.obj
 0002:00014668       $unwind$?SetUnwindTryBlock@__FrameHandler3@@SAXPEA_KPEAU_xDISPATCHER_CONTEXT@@PEBU_s_FuncInfo@@H@Z 0000000140063668     libvcruntimed:ehstate.obj
 0002:00014668       $unwind$?_CallMemberFunction2@@YAXQEAX00H@Z 0000000140063668     libvcruntimed:frame.obj
 0002:00014670       $unwind$?read_file@@YA?AUFile_Result@@PEAD@Z 0000000140063670     png.obj
 0002:0001467c       $unwind$?free_file@@YAXUFile_Result@@@Z 000000014006367c     png.obj
 0002:00014684       $unwind$?write_file@@YA_NPEADPEAXI@Z 0000000140063684     png.obj
 0002:0001468c       $unwind$?EndianSwap@@YAXPEAI@Z 000000014006368c     png.obj
 0002:00014694       $unwind$?ConsumeDataSize@@YAPEAXPEAPEAEI@Z 0000000140063694     png.obj
 0002:0001469c       $unwind$?ConsumeDataSizeLong@@YAPEAXPEAPEAE_K@Z 000000014006369c     png.obj
 0002:000146a4       $unwind$?PushDataSize@@YAIPEAPEAEPEAEI@Z 00000001400636a4     png.obj
 0002:000146ac       $unwind$?calc_line_length@@YAIPEADI@Z 00000001400636ac     png.obj
 0002:000146b4       $unwind$?copy_line_to_buffer@@YAXPEAD0PEAI@Z 00000001400636b4     png.obj
 0002:000146bc       $unwind$?ReadDataBits@@YAIPEAPEAUDeflate_Block_Data@@E@Z 00000001400636bc     png.obj
 0002:000146c4       $unwind$?PeakBitsInReverseForHuffman@@YAIPEAUDeflate_Block_Data@@I@Z 00000001400636c4     png.obj
 0002:000146cc       $unwind$?BuildHuffmanCodesFromCodeLengthCounts@@YAXPEAEIPEAI@Z 00000001400636cc     png.obj
 0002:000146e0       $unwind$?DecodeHuffmanSymbol@@YA_NPEAPEAUDeflate_Block_Data@@PEAIPEAEI1@Z 00000001400636e0     png.obj
 0002:000146e8       $unwind$?deflate_decompress@@YAIPEAUDeflate_Block_Data@@PEAE@Z 00000001400636e8     png.obj
 0002:000146fc       $unwind$?deflate_decompress@@YAIPEAEI0@Z 00000001400636fc     png.obj
 0002:00014704       $unwind$?PaethPredictor@@YAEEEE@Z 0000000140063704     png.obj
 0002:0001470c       $unwind$?defilter_pass@@YAXPEAEIII@Z 000000014006370c     png.obj
 0002:00014714       $unwind$?LoadPNG@@YA?AUImage@@UFile_Result@@@Z 0000000140063714     png.obj
 0002:00014728       $unwind$?dataReadTest@@YAXXZ 0000000140063728     png.obj
 0002:00014730       $unwind$main               0000000140063730     png.obj
 0002:0001473c       $unwind$??$ensure_buffer_is_big_enough@D@formatting_buffer@__crt_stdio_output@@QEAA_N_KAEAV__crt_cached_ptd_host@@@Z 000000014006373c     libucrtd:output.obj
 0002:0001473c       $unwind$??$ensure_buffer_is_big_enough@_W@formatting_buffer@__crt_stdio_output@@QEAA_N_KAEAV__crt_cached_ptd_host@@@Z 000000014006373c     libucrtd:output.obj
 0002:0001473c       $unwind$__ascii_strnicmp   000000014006373c     libucrtd:strnicmp.obj
 0002:0001473c       $unwind$_strnicmp          000000014006373c     libucrtd:strnicmp.obj
 0002:0001473c       $unwind$__ascii_wcsnicmp   000000014006373c     libucrtd:wcsnicmp.obj
 0002:0001473c       $unwind$__GSHandlerCheckCommon 000000014006373c     LIBCMTD:gshandler.obj
 0002:00014744       $unwind$?shift_bytes@@YAXQEAD_K0H@Z 0000000140063744     libucrtd:cvt.obj
 0002:00014744       $unwind$??$message_box@$$TAEBQEB_WAEBQEB_WK@?$__crt_char_traits@_W@@SAH$$QEA$$TAEBQEB_W1$$QEAK@Z 0000000140063744     libucrtd:crtmbox.obj
 0002:00014744       $unwind$??$message_box@PEAUHWND__@@AEBQEB_WAEBQEB_WAEBI@?$__crt_char_traits@_W@@SAH$$QEAPEAUHWND__@@AEBQEB_W1AEBI@Z 0000000140063744     libucrtd:crtmbox.obj
 0002:00014744       $unwind$_invoke_watson     0000000140063744     libucrtd:invalid_parameter.obj
 0002:00014744       $unwind$??$tcsncpy_s@AEAPEAD_KAEAPEADAEB_K@?$__crt_char_traits@D@@SAHAEAPEAD$$QEA_K0AEB_K@Z 0000000140063744     libucrtd:argv_wildcards.obj
 0002:00014744       $unwind$??$tcsncpy_s@PEADAEB_KAEBQEBDAEB_K@?$__crt_char_traits@D@@SAH$$QEAPEADAEB_KAEBQEBD1@Z 0000000140063744     libucrtd:argv_wildcards.obj
 0002:00014744       $unwind$??$tcsncpy_s@PEAD_KAEBQEBDAEB_K@?$__crt_char_traits@D@@SAH$$QEAPEAD$$QEA_KAEBQEBDAEB_K@Z 0000000140063744     libucrtd:argv_wildcards.obj
 0002:00014744       $unwind$??$open_file@AEBQEBDAEBQEBDAEBHPEAU_iobuf@@@?$__crt_char_traits@D@@SAPEAU_iobuf@@AEBQEBD0AEBH$$QEAPEAU1@@Z 0000000140063744     libucrtd:fopen.obj
 0002:00014744       $unwind$strncpy_s          0000000140063744     libucrtd:strncpy_s.obj
 0002:00014744       $unwind$wcsncpy_s          0000000140063744     libucrtd:wcsncpy_s.obj
 0002:00014744       $unwind$__GSHandlerCheck   0000000140063744     LIBCMTD:gshandler.obj
 0002:00014744       $unwind$?BuildCatchObject@__FrameHandler3@@SAXPEAUEHExceptionRecord@@PEAXPEBU_s_HandlerType@@PEBU_s_CatchableType@@@Z 0000000140063744     libvcruntimed:frame.obj
 0002:00014750       $xdatasym                  0000000140063750     LIBCMTD:amdsecgs.obj
 0002:00014754       $unwind$__dcrt_lowio_ensure_console_output_initialized 0000000140063754     libucrtd:initcon.obj
 0002:00014754       $unwind$__dcrt_terminate_console_output 0000000140063754     libucrtd:initcon.obj
 0002:00014754       $unwind$??$get_environment_from_os@$$V@?$__crt_char_traits@D@@SAPEADXZ 0000000140063754     libucrtd:environment_initialization.obj
 0002:00014754       $unwind$__dcrt_get_or_create_narrow_environment_nolock 0000000140063754     libucrtd:environment_initialization.obj
 0002:00014754       $unwind$__dcrt_uninitialize_environments_nolock 0000000140063754     libucrtd:environment_initialization.obj
 0002:00014754       $unwind$_get_initial_narrow_environment 0000000140063754     libucrtd:environment_initialization.obj
 0002:00014754       $unwind$_initialize_narrow_environment 0000000140063754     libucrtd:environment_initialization.obj
 0002:00014754       $unwind$??$get_or_create_environment_nolock@$$V@?$__crt_char_traits@D@@SAPEAPEADXZ 0000000140063754     libucrtd:setenv.obj
 0002:00014754       $unwind$__acrt_initialize_heap 0000000140063754     libucrtd:heap_handle.obj
 0002:00014754       $unwind$_query_new_mode    0000000140063754     libucrtd:new_mode.obj
 0002:00014754       $unwind$__acrt_initialize  0000000140063754     libucrtd:initialization.obj
 0002:00014754       $unwind$initialize_c       0000000140063754     libucrtd:initialization.obj
 0002:00014754       $unwind$initialize_global_variables 0000000140063754     libucrtd:initialization.obj
 0002:00014754       $unwind$__acrt_getptd_noexit 0000000140063754     libucrtd:per_thread_data.obj
 0002:00014754       $unwind$__acrt_initialize_ptd 0000000140063754     libucrtd:per_thread_data.obj
 0002:00014754       $unwind$__acrt_get_developer_information_policy 0000000140063754     libucrtd:win_policies.obj
 0002:00014754       $unwind$__acrt_get_process_end_policy 0000000140063754     libucrtd:win_policies.obj
 0002:00014754       $unwind$__acrt_get_windowing_model_policy 0000000140063754     libucrtd:win_policies.obj
 0002:00014754       $unwind$?try_get_AppPolicyGetProcessTerminationMethod@@YAP6AJPEAXPEAW4AppPolicyProcessTerminationMethod@@@ZXZ 0000000140063754     libucrtd:winapi_thunks.obj
 0002:00014754       $unwind$?try_get_AppPolicyGetShowDeveloperDiagnostic@@YAP6AJPEAXPEAW4AppPolicyShowDeveloperDiagnostic@@@ZXZ 0000000140063754     libucrtd:winapi_thunks.obj
 0002:00014754       $unwind$?try_get_AppPolicyGetWindowingModel@@YAP6AJPEAXPEAW4AppPolicyWindowingModel@@@ZXZ 0000000140063754     libucrtd:winapi_thunks.obj
 0002:00014754       $unwind$?try_get_AreFileApisANSI@@YAP6AHXZXZ 0000000140063754     libucrtd:winapi_thunks.obj
 0002:00014754       $unwind$?try_get_CompareStringEx@@YAP6AHPEB_WK0H0HPEAU_nlsversioninfo@@PEAX_J@ZXZ 0000000140063754     libucrtd:winapi_thunks.obj
 0002:00014754       $unwind$?try_get_GetActiveWindow@@YAP6APEAUHWND__@@XZXZ 0000000140063754     libucrtd:winapi_thunks.obj
 0002:00014754       $unwind$?try_get_GetLastActivePopup@@YAP6APEAUHWND__@@PEAU1@@ZXZ 0000000140063754     libucrtd:winapi_thunks.obj
 0002:00014754       $unwind$?try_get_GetProcessWindowStation@@YAP6APEAUHWINSTA__@@XZXZ 0000000140063754     libucrtd:winapi_thunks.obj
 0002:00014754       $unwind$?try_get_GetUserObjectInformationW@@YAP6AHPEAXH0KPEAK@ZXZ 0000000140063754     libucrtd:winapi_thunks.obj
 0002:00014754       $unwind$?try_get_InitializeCriticalSectionEx@@YAP6AHPEAU_RTL_CRITICAL_SECTION@@KK@ZXZ 0000000140063754     libucrtd:winapi_thunks.obj
 0002:00014754       $unwind$?try_get_LCMapStringEx@@YAP6AHPEB_WK0HPEA_WHPEAU_nlsversioninfo@@PEAX_J@ZXZ 0000000140063754     libucrtd:winapi_thunks.obj
 0002:00014754       $unwind$?try_get_LocaleNameToLCID@@YAP6AKPEB_WK@ZXZ 0000000140063754     libucrtd:winapi_thunks.obj
 0002:00014754       $unwind$?try_get_MessageBoxA@@YAP6AHPEAUHWND__@@PEBD1I@ZXZ 0000000140063754     libucrtd:winapi_thunks.obj
 0002:00014754       $unwind$?try_get_MessageBoxW@@YAP6AHPEAUHWND__@@PEB_W1I@ZXZ 0000000140063754     libucrtd:winapi_thunks.obj
 0002:00014754       $unwind$__fpecode          0000000140063754     libucrtd:signal.obj
 0002:00014754       $unwind$__acrt_initialize_command_line 0000000140063754     libucrtd:argv_data.obj
 0002:00014754       $unwind$_c_exit            0000000140063754     libucrtd:exit.obj
 0002:00014754       $unwind$_cexit             0000000140063754     libucrtd:exit.obj
 0002:00014754       $unwind$_flushall          0000000140063754     libucrtd:fflush.obj
 0002:00014754       $unwind$fegetround         0000000140063754     libucrtd:fegetround.obj
 0002:00014754       $unwind$?__scrt_common_main@@YAHXZ 0000000140063754     LIBCMTD:exe_main.obj
 0002:00014754       $unwind$?configure_argv@__scrt_narrow_argv_policy@@SAHXZ 0000000140063754     LIBCMTD:exe_main.obj
 0002:00014754       $unwind$?initialize_environment@__scrt_narrow_environment_policy@@SAHXZ 0000000140063754     LIBCMTD:exe_main.obj
 0002:00014754       $unwind$?post_pgo_initialization@@YAHXZ 0000000140063754     LIBCMTD:exe_main.obj
 0002:00014754       $unwind$?pre_c_initialization@@YAHXZ 0000000140063754     LIBCMTD:exe_main.obj
 0002:00014754       $unwind$?pre_cpp_initialization@@YAXXZ 0000000140063754     LIBCMTD:exe_main.obj
 0002:00014754       $unwind$?set_app_type@__scrt_main_policy@@SAXXZ 0000000140063754     LIBCMTD:exe_main.obj
 0002:00014754       $unwind$?set_fmode@__scrt_file_policy@@SAXXZ 0000000140063754     LIBCMTD:exe_main.obj
 0002:00014754       $unwind$__report_rangecheckfailure 0000000140063754     LIBCMTD:gs_report.obj
 0002:00014754       $unwind$?__scrt_initialize_type_info@@YAXXZ 0000000140063754     LIBCMTD:tncleanup.obj
 0002:00014754       $unwind$__scrt_initialize_mta 0000000140063754     LIBCMTD:utility_desktop.obj
 0002:00014754       $unwind$__scrt_set_unhandled_exception_filter 0000000140063754     LIBCMTD:utility_desktop.obj
 0002:00014754       $unwind$__current_exception 0000000140063754     libvcruntimed:ehhelpers.obj
 0002:00014754       $unwind$__current_exception_context 0000000140063754     libvcruntimed:ehhelpers.obj
 0002:00014754       $unwind$__vcrt_initialize  0000000140063754     libvcruntimed:initialization.obj
 0002:00014754       $unwind$__vcrt_initialize_ptd 0000000140063754     libvcruntimed:per_thread_data.obj
 0002:00014754       $unwind$__vcrt_uninitialize_ptd 0000000140063754     libvcruntimed:per_thread_data.obj
 0002:00014754       $unwind$_GetImageBase      0000000140063754     libvcruntimed:risctrnsctrl.obj
 0002:00014754       $unwind$_GetThrowImageBase 0000000140063754     libvcruntimed:risctrnsctrl.obj
 0002:00014754       $unwind$?try_get_FlsAlloc@@YAP6AKP6AXPEAX@Z@ZXZ 0000000140063754     libvcruntimed:winapi_downlevel.obj
 0002:00014754       $unwind$?try_get_FlsFree@@YAP6AHK@ZXZ 0000000140063754     libvcruntimed:winapi_downlevel.obj
 0002:00014754       $unwind$?try_get_FlsGetValue@@YAP6APEAXK@ZXZ 0000000140063754     libvcruntimed:winapi_downlevel.obj
 0002:00014754       $unwind$?try_get_FlsSetValue@@YAP6AHKPEAX@ZXZ 0000000140063754     libvcruntimed:winapi_downlevel.obj
 0002:00014754       $unwind$?try_get_InitializeCriticalSectionEx@@YAP6AHPEAU_RTL_CRITICAL_SECTION@@KK@ZXZ 0000000140063754     libvcruntimed:winapi_downlevel.obj
 0002:0001475c       $unwind$??$common_get_initial_environment@D@@YAPEAPEADXZ 000000014006375c     libucrtd:environment_initialization.obj
 0002:0001475c       $unwind$??$common_get_or_create_environment_nolock@D@@YAPEAPEADXZ 000000014006375c     libucrtd:environment_initialization.obj
 0002:0001475c       $unwind$??$ensure_current_environment_is_not_initial_environment_nolock@D@@YAXXZ 000000014006375c     libucrtd:setenv.obj
 0002:0001475c       $unwind$?initialize_multibyte@@YAHXZ 000000014006375c     libucrtd:multibyte_initializer.obj
 0002:0001475c       $unwind$initialize_pointers 000000014006375c     libucrtd:initialization.obj
 0002:0001475c       $unwind$__acrt_initialize_locks 000000014006375c     libucrtd:locks.obj
 0002:0001475c       $unwind$?internal_getptd_noexit@@YAPEAU__acrt_ptd@@XZ 000000014006375c     libucrtd:per_thread_data.obj
 0002:0001475c       $unwind$?try_get_ptd_head@@YAPEAU__acrt_ptd@@XZ 000000014006375c     libucrtd:per_thread_data.obj
 0002:0001475c       $unwind$__acrt_getptd      000000014006375c     libucrtd:per_thread_data.obj
 0002:0001475c       $unwind$__acrt_getptd_head 000000014006375c     libucrtd:per_thread_data.obj
 0002:0001475c       $unwind$?should_write_error_to_console@@YA_NXZ 000000014006375c     libucrtd:report_runtime_error.obj
 0002:0001475c       $unwind$__acrt_AreFileApisANSI 000000014006375c     libucrtd:winapi_thunks.obj
 0002:0001475c       $unwind$__acrt_can_show_message_box 000000014006375c     libucrtd:winapi_thunks.obj
 0002:0001475c       $unwind$__acrt_initialize_multibyte 000000014006375c     libucrtd:mbctype.obj
 0002:0001475c       $unwind$__acrt_update_thread_multibyte_data 000000014006375c     libucrtd:mbctype.obj
 0002:0001475c       $unwind$__doserrno         000000014006375c     libucrtd:errno.obj
 0002:0001475c       $unwind$_errno             000000014006375c     libucrtd:errno.obj
 0002:0001475c       $unwind$_invalid_parameter_noinfo 000000014006375c     libucrtd:invalid_parameter.obj
 0002:0001475c       $unwind$abort              000000014006375c     libucrtd:abort.obj
 0002:0001475c       $unwind$?is_managed_app@@YA_NXZ 000000014006375c     libucrtd:exit.obj
 0002:0001475c       $unwind$?should_call_terminate_process@@YA_NXZ 000000014006375c     libucrtd:exit.obj
 0002:0001475c       $unwind$__acrt_uninitialize_stdio 000000014006375c     libucrtd:_file.obj
 0002:0001475c       $unwind$_clrfp             000000014006375c     libucrtd:fpctrl.obj
 0002:0001475c       $unwind$_statfp            000000014006375c     libucrtd:fpctrl.obj
 0002:0001475c       $unwind$_clearfp           000000014006375c     libucrtd:ieee.obj
 0002:0001475c       $unwind$?get_machine_sse_control@@YA?AW4__acrt_fenv_machine_sse_control@@XZ 000000014006375c     libucrtd:_fenvutils.obj
 0002:0001475c       $unwind$?get_machine_sse_status@@YA?AW4__acrt_fenv_machine_sse_status@@XZ 000000014006375c     libucrtd:_fenvutils.obj
 0002:0001475c       $unwind$__acrt_fenv_get_control 000000014006375c     libucrtd:_fenvutils.obj
 0002:0001475c       $unwind$__acrt_fenv_get_status 000000014006375c     libucrtd:_fenvutils.obj
 0002:0001475c       $unwind$__acrt_has_user_matherr 000000014006375c     libucrtd:matherr.obj
 0002:0001475c       $unwind$__scrt_initialize_default_local_stdio_options 000000014006375c     LIBCMTD:default_local_stdio_options.obj
 0002:0001475c       $unwind$?set_commode@__scrt_file_policy@@SAXXZ 000000014006375c     LIBCMTD:exe_main.obj
 0002:0001475c       $unwind$__security_init_cookie 000000014006375c     LIBCMTD:gs_support.obj
 0002:0001475c       $unwind$_guard_icall_checks_enforced 000000014006375c     LIBCMTD:guard_support.obj
 0002:0001475c       $unwind$__scrt_is_managed_app 000000014006375c     LIBCMTD:utility_desktop.obj
 0002:0001475c       $unwind$__vcrt_initialize_locks 000000014006375c     libvcruntimed:locks.obj
 0002:0001475c       $unwind$__vcrt_uninitialize_locks 000000014006375c     libvcruntimed:locks.obj
 0002:0001475c       $unwind$__vcrt_getptd      000000014006375c     libvcruntimed:per_thread_data.obj
 0002:00014764       $unwind$?__dcrt_lowio_initialize_console_output@@YAXXZ 0000000140063764     libucrtd:initcon.obj
 0002:00014764       $unwind$?initialize_stdio_handles_nolock@@YAXXZ 0000000140063764     libucrtd:ioinit.obj
 0002:00014764       $unwind$__acrt_initialize_fmode 0000000140063764     libucrtd:txtmode.obj
 0002:00014764       $unwind$?invoke_main@@YAHXZ 0000000140063764     LIBCMTD:exe_main.obj
 0002:00014764       $unwind$__scrt_acquire_startup_lock 0000000140063764     LIBCMTD:utility.obj
 0002:0001476c       $unwind$?__scrt_common_main_seh@@YAHXZ 000000014006376c     LIBCMTD:exe_main.obj
 0002:0001478c       $unwind$?filt$0@?0??is_bad_read_pointer@@YA_NQEBX_K@Z@4HA 000000014006378c     libucrtd:debug_heap.obj
 0002:0001478c       $unwind$_free_dbg$fin$0    000000014006378c     libucrtd:debug_heap.obj
 0002:0001478c       $unwind$_query_new_handler$fin$0 000000014006378c     libucrtd:new_handler.obj
 0002:0001478c       $unwind$?fin$0@?0???$?RV<lambda_0ae27a3a962d80f24befdcbee591983d>@@AEAV<lambda_8d0ee55de4b1038c4002e0adecdf1839>@@V<lambda_dc504788e8f1664fe9b84e20bfb512f2>@@@?$__crt_seh_guarded_call@X@@QEAAX$$QEAV<lambda_0ae27a3a962d80f24befdcbee591983d>@@AEAV<lambda_8d0ee55de4b1038c4002e0adecdf1839>@@$$QEAV<lambda_dc504788e8f1664fe9b84e20bfb512f2>@@@Z@4HA 000000014006378c     libucrtd:per_thread_data.obj
 0002:0001478c       $unwind$?fin$0@?0???$?RV<lambda_2d41944a1d46af3157314b8a01080d33>@@AEAV<lambda_8f455de75cd7d7f24b4096f044d8b9e6>@@V<lambda_aa500f224e6afead328df44964fe2772>@@@?$__crt_seh_guarded_call@X@@QEAAX$$QEAV<lambda_2d41944a1d46af3157314b8a01080d33>@@AEAV<lambda_8f455de75cd7d7f24b4096f044d8b9e6>@@$$QEAV<lambda_aa500f224e6afead328df44964fe2772>@@@Z@4HA 000000014006378c     libucrtd:per_thread_data.obj
 0002:0001478c       $unwind$?fin$0@?0???$?RV<lambda_74a0ef281e44d15e1136f792f539efb3>@@AEAV<lambda_e157831efee4ea0afb0a2ace5dd5fd0d>@@V<lambda_04ddeca75b7c13fd67716e8dfcef87ee>@@@?$__crt_seh_guarded_call@X@@QEAAX$$QEAV<lambda_74a0ef281e44d15e1136f792f539efb3>@@AEAV<lambda_e157831efee4ea0afb0a2ace5dd5fd0d>@@$$QEAV<lambda_04ddeca75b7c13fd67716e8dfcef87ee>@@@Z@4HA 000000014006378c     libucrtd:per_thread_data.obj
 0002:0001478c       $unwind$?fin$0@?0???$?RV<lambda_aa87e3671a710a21b5dc78c0bdf72e11>@@AEAV<lambda_92619d2358a28f41a33ba319515a20b9>@@V<lambda_6992ecaafeb10aed2b74cb1fae11a551>@@@?$__crt_seh_guarded_call@X@@QEAAX$$QEAV<lambda_aa87e3671a710a21b5dc78c0bdf72e11>@@AEAV<lambda_92619d2358a28f41a33ba319515a20b9>@@$$QEAV<lambda_6992ecaafeb10aed2b74cb1fae11a551>@@@Z@4HA 000000014006378c     libucrtd:per_thread_data.obj
 0002:0001478c       $unwind$__acrt_update_thread_locale_data$fin$0 000000014006378c     libucrtd:locale_refcounting.obj
 0002:0001478c       $unwind$?fin$0@?0???$?RV<lambda_410d79af7f07d98d83a3f525b3859a53>@@AEAV<lambda_3e16ef9562a7dcce91392c22ab16ea36>@@V<lambda_38119f0e861e05405d8a144b9b982f0a>@@@?$__crt_seh_guarded_call@X@@QEAAX$$QEAV<lambda_410d79af7f07d98d83a3f525b3859a53>@@AEAV<lambda_3e16ef9562a7dcce91392c22ab16ea36>@@$$QEAV<lambda_38119f0e861e05405d8a144b9b982f0a>@@@Z@4HA 000000014006378c     libucrtd:wsetlocale.obj
 0002:0001478c       $unwind$?fin$0@?0???$?RV<lambda_19eaff14c5fe7be5b1b106a862eb1091>@@AEAV<lambda_af29824b49a67d335554598d6cad2be6>@@V<lambda_3ce37f5b621ab310299ea5f68cbdf3bb>@@@?$__crt_seh_guarded_call@H@@QEAAH$$QEAV<lambda_19eaff14c5fe7be5b1b106a862eb1091>@@AEAV<lambda_af29824b49a67d335554598d6cad2be6>@@$$QEAV<lambda_3ce37f5b621ab310299ea5f68cbdf3bb>@@@Z@4HA 000000014006378c     libucrtd:close.obj
 0002:0001478c       $unwind$?fin$0@?0???$?RV<lambda_7d29013d608e9f25a034de83c9b9e983>@@AEAV<lambda_3e4146214822e0ea86c47ff907aef2ff>@@V<lambda_b869e5a4e1069fcb5c3da79c0d999133>@@@?$__crt_seh_guarded_call@H@@QEAAH$$QEAV<lambda_7d29013d608e9f25a034de83c9b9e983>@@AEAV<lambda_3e4146214822e0ea86c47ff907aef2ff>@@$$QEAV<lambda_b869e5a4e1069fcb5c3da79c0d999133>@@@Z@4HA 000000014006378c     libucrtd:commit.obj
 0002:0001478c       $unwind$__acrt_initialize_lowio$fin$0 000000014006378c     libucrtd:ioinit.obj
 0002:0001478c       $unwind$_alloc_osfhnd$fin$0 000000014006378c     libucrtd:osfinfo.obj
 0002:0001478c       $unwind$?fin$0@?0???$?RV<lambda_efa02eb69bf647d2f7ff0dd6f1103f72>@@AEAV<lambda_bd5a608237428601b7e45fbdc72b1ae8>@@V<lambda_728235dc0fc2b1f82d1fa5b3e7102d8f>@@@?$__crt_seh_guarded_call@X@@QEAAX$$QEAV<lambda_efa02eb69bf647d2f7ff0dd6f1103f72>@@AEAV<lambda_bd5a608237428601b7e45fbdc72b1ae8>@@$$QEAV<lambda_728235dc0fc2b1f82d1fa5b3e7102d8f>@@@Z@4HA 000000014006378c     libucrtd:mbctype.obj
 0002:0001478c       $unwind$?fin$0@?0??update_thread_multibyte_data_internal@@YAPEAU__crt_multibyte_data@@QEAU__acrt_ptd@@QEAPEAU1@@Z@4HA 000000014006378c     libucrtd:mbctype.obj
 0002:0001478c       $unwind$?fin$0@?0??_perror_internal@@YAXQEBDAEAV__crt_cached_ptd_host@@@Z@4HA 000000014006378c     libucrtd:perror.obj
 0002:0001478c       $unwind$?fin$0@?0???$?RV<lambda_450d765d439847d4c735a33c368b5fc0>@@AEAV<lambda_44731a7d0e6d81c3e6aa82d741081786>@@V<lambda_601a2a7da3b7a96e9554ac7215c4b07c>@@@?$__crt_seh_guarded_call@P6AXH@Z@@QEAAP6AXH@Z$$QEAV<lambda_450d765d439847d4c735a33c368b5fc0>@@AEAV<lambda_44731a7d0e6d81c3e6aa82d741081786>@@$$QEAV<lambda_601a2a7da3b7a96e9554ac7215c4b07c>@@@Z@4HA 000000014006378c     libucrtd:signal.obj
 0002:0001478c       $unwind$terminate$filt$0   000000014006378c     libucrtd:terminate.obj
 0002:0001478c       $unwind$?filt$0@?0???R<lambda_6e4b09c48022b2350581041d5f6b0c4c>@@QEBA@XZ@4HA 000000014006378c     libucrtd:exit.obj
 0002:0001478c       $unwind$?fin$0@?0???$?RV<lambda_d80eeec6fff315bfe5c115232f3240e3>@@AEAV<lambda_6e4b09c48022b2350581041d5f6b0c4c>@@V<lambda_2358e3775559c9db80273638284d5e45>@@@?$__crt_seh_guarded_call@X@@QEAAX$$QEAV<lambda_d80eeec6fff315bfe5c115232f3240e3>@@AEAV<lambda_6e4b09c48022b2350581041d5f6b0c4c>@@$$QEAV<lambda_2358e3775559c9db80273638284d5e45>@@@Z@4HA 000000014006378c     libucrtd:exit.obj
 0002:0001478c       $unwind$?dtor$0@?0???R<lambda_d121dba8a4adeaf3a9819e48611155df>@@QEBAHXZ@4HA 000000014006378c     libucrtd:onexit.obj
 0002:0001478c       $unwind$?fin$0@?0???$?RV<lambda_6a47f4c8fd0152770a780fc1d70204eb>@@AEAV<lambda_d121dba8a4adeaf3a9819e48611155df>@@V<lambda_6aaa2265f5b6a89667e7d7630012e97a>@@@?$__crt_seh_guarded_call@H@@QEAAH$$QEAV<lambda_6a47f4c8fd0152770a780fc1d70204eb>@@AEAV<lambda_d121dba8a4adeaf3a9819e48611155df>@@$$QEAV<lambda_6aaa2265f5b6a89667e7d7630012e97a>@@@Z@4HA 000000014006378c     libucrtd:onexit.obj
 0002:0001478c       $unwind$?fin$0@?0???$?RV<lambda_80060f20ac3990516b753a27f211934c>@@AEAV<lambda_208ce30acdd7200aa596f2796f4d5154>@@V<lambda_fd91b99c0687e8936f1d70d7d9b78e69>@@@?$__crt_seh_guarded_call@H@@QEAAH$$QEAV<lambda_80060f20ac3990516b753a27f211934c>@@AEAV<lambda_208ce30acdd7200aa596f2796f4d5154>@@$$QEAV<lambda_fd91b99c0687e8936f1d70d7d9b78e69>@@@Z@4HA 000000014006378c     libucrtd:onexit.obj
 0002:0001478c       $unwind$_fcloseall$fin$0   000000014006378c     libucrtd:closeall.obj
 0002:0001478c       $unwind$?fin$0@?0???$?RV<lambda_842d9ff0dc9ef11c61343bbaebe7f885>@@AEAV<lambda_c5860995281e5c4ce005b3de8f5874ee>@@V<lambda_d90129c13df834fdcbf8d2b88dafcf2d>@@@?$__crt_seh_guarded_call@X@@QEAAX$$QEAV<lambda_842d9ff0dc9ef11c61343bbaebe7f885>@@AEAV<lambda_c5860995281e5c4ce005b3de8f5874ee>@@$$QEAV<lambda_d90129c13df834fdcbf8d2b88dafcf2d>@@@Z@4HA 000000014006378c     libucrtd:fflush.obj
 0002:0001478c       $unwind$?fin$0@?0???$?RV<lambda_886d6c58226a84441f68b9f2b8217b83>@@AEAV<lambda_ab61a845afdef5b7c387490eaf3616ee>@@V<lambda_f7f22ab5edc0698d5f6905b0d3f44752>@@@?$__crt_seh_guarded_call@X@@QEAAX$$QEAV<lambda_886d6c58226a84441f68b9f2b8217b83>@@AEAV<lambda_ab61a845afdef5b7c387490eaf3616ee>@@$$QEAV<lambda_f7f22ab5edc0698d5f6905b0d3f44752>@@@Z@4HA 000000014006378c     libucrtd:fflush.obj
 0002:0001478c       $unwind$?fin$0@?0???$?RV<lambda_a2589f19c515cac03caf6db9c38355e9>@@AEAV<lambda_26974eb511f701c600fccfa2a97a8e1b>@@V<lambda_ad9ce2f38261e34e8a422b9cc35dfe8d>@@@?$__crt_seh_guarded_call@_K@@QEAA_K$$QEAV<lambda_a2589f19c515cac03caf6db9c38355e9>@@AEAV<lambda_26974eb511f701c600fccfa2a97a8e1b>@@$$QEAV<lambda_ad9ce2f38261e34e8a422b9cc35dfe8d>@@@Z@4HA 000000014006378c     libucrtd:fwrite.obj
 0002:0001478c       $unwind$?fin$0@?0???$?RV<lambda_d854c62834386a3b23916ad6dae2782d>@@AEAV<lambda_303760bc4008a2b3ec4768a30b06a80c>@@V<lambda_4780a7ea4f8cbd2590aec34bd14e2bbf>@@@?$__crt_seh_guarded_call@H@@QEAAH$$QEAV<lambda_d854c62834386a3b23916ad6dae2782d>@@AEAV<lambda_303760bc4008a2b3ec4768a30b06a80c>@@$$QEAV<lambda_4780a7ea4f8cbd2590aec34bd14e2bbf>@@@Z@4HA 000000014006378c     libucrtd:output.obj
 0002:0001478c       $unwind$?fin$0@?0??__acrt_stdio_allocate_stream@@YA?AV__crt_stdio_stream@@XZ@4HA 000000014006378c     libucrtd:stream.obj
 0002:0001478c       $unwind$?dtor$0@?0??shortsort@@YAXPEAD0_KP6AHPEBX2@Z@Z@4HA 000000014006378c     libucrtd:qsort.obj
 0002:0001478c       $unwind$_ctrlfp$filt$0     000000014006378c     libucrtd:fpctrl.obj
 0002:0001478c       $unwind$?filt$0@?0??__scrt_common_main_seh@@YAHXZ@4HA 000000014006378c     LIBCMTD:exe_main.obj
 0002:0001478c       $unwind$_IsNonwritableInCurrentImage$filt$0 000000014006378c     LIBCMTD:pesect.obj
 0002:0001478c       $unwind$__scrt_is_nonwritable_in_current_image$filt$0 000000014006378c     LIBCMTD:utility.obj
 0002:0001478c       $unwind$__DestructExceptionObject$filt$0 000000014006378c     libvcruntimed:ehhelpers.obj
 0002:0001478c       $unwind$?filt$0@?0???$BuildCatchObjectHelperInternal@V__FrameHandler3@@@@YAHPEAUEHExceptionRecord@@PEAXPEBU_s_HandlerType@@PEBU_s_CatchableType@@@Z@4HA 000000014006378c     libvcruntimed:frame.obj
 0002:0001478c       $unwind$?filt$0@?0???$BuildCatchObjectInternal@V__FrameHandler3@@@@YAXPEAUEHExceptionRecord@@PEAXPEBU_s_HandlerType@@PEBU_s_CatchableType@@@Z@4HA 000000014006378c     libvcruntimed:frame.obj
 0002:0001478c       $unwind$?filt$0@?0??CxxCallCatchBlock@__FrameHandler3@@SAPEAXPEAU_EXCEPTION_RECORD@@@Z@4HA 000000014006378c     libvcruntimed:frame.obj
 0002:0001478c       $unwind$?filt$0@?0??FrameUnwindToState@__FrameHandler3@@SAXPEA_KPEAU_xDISPATCHER_CONTEXT@@PEBU_s_FuncInfo@@H@Z@4HA 000000014006378c     libvcruntimed:frame.obj
 0002:0001478c       $unwind$?fin$1@?0??CxxCallCatchBlock@__FrameHandler3@@SAPEAXPEAU_EXCEPTION_RECORD@@@Z@4HA 000000014006378c     libvcruntimed:frame.obj
